_camlHash_lookup_string_equal__fn$5bhash_lookup_string_equal.ml$3a27$2c37$2d$2d40$5d_8_8_code: ; @"\01_camlHash_lookup_string_equal__fn$5bhash_lookup_string_equal.ml$3a27$2c37$2d$2d40$5d_8_8_code"
; %bb.0:                                ; %L1
	ldr	x0, [x0]
	ret
                                        ; -- End function
	.globl	_camlHash_lookup_string_equal__entry ; -- Begin function _camlHash_lookup_string_equal__entry
	.p2align	2
_camlHash_lookup_string_equal__entry:   ; @"\01_camlHash_lookup_string_equal__entry"
	.cfi_startproc
; %bb.0:                                ; %L1
	sub	sp, sp, #16
	.cfi_def_cfa_offset 16
	str	x30, [sp, #8]                   ; 8-byte Folded Spill
	.cfi_offset w30, -16
	sub	sp, sp, #32
	.cfi_def_cfa_offset 48
Lloh20:
	adrp	x8, _caml_sys_argv@GOTPAGE
Lloh21:
	ldr	x8, [x8, _caml_sys_argv@GOTPAGEOFF]
	mov	w0, #1
	bl	_caml_c_call
Ltmp11:
	ldur	x8, [x0, #-8]
	tst	x8, #0xfffffffffff800
	b.eq	LBB8_3
; %bb.1:                                ; %L328
Lloh22:
	adrp	x8, _caml_sys_argv@GOTPAGE
Lloh23:
	ldr	x8, [x8, _caml_sys_argv@GOTPAGEOFF]
	mov	w0, #1
	bl	_caml_c_call
Ltmp12:
	ldur	x8, [x0, #-8]
	tst	x8, #0xfffffffffff800
	b.eq	LBB8_11
; %bb.2:                                ; %L338
	ldr	x0, [x0, #8]
	str	x0, [sp, #24]
Lloh24:
	adrp	x8, _caml_int_of_string@GOTPAGE
Lloh25:
	ldr	x8, [x8, _caml_int_of_string@GOTPAGEOFF]
	bl	_caml_c_call
Ltmp13:
	mov	x20, x0
	b	LBB8_4
LBB8_3:
	mov	w20, #3393
	movk	w20, #3, lsl #16
LBB8_4:                                 ; %L352
Lloh26:
	adrp	x0, _camlHash_lookup_string_equal@PAGE+24
Lloh27:
	add	x0, x0, _camlHash_lookup_string_equal@PAGEOFF+24
	mov	x1, x20
	mov	x29, sp
	.cfi_remember_state
	.cfi_def_cfa_register w29
	ldr	x16, [x28, #104]
	mov	sp, x16
	bl	_caml_initialize
	mov	sp, x29
	.cfi_restore_state
Lloh28:
	adrp	x8, _caml_sys_argv@GOTPAGE
Lloh29:
	ldr	x8, [x8, _caml_sys_argv@GOTPAGEOFF]
	mov	w0, #1
	bl	_caml_c_call
Ltmp14:
	ldur	x8, [x0, #-8]
	and	x8, x8, #0xfffffffffffc00
	cmp	x8, #2561
	b.lo	LBB8_7
; %bb.5:                                ; %L364
Lloh30:
	adrp	x8, _caml_sys_argv@GOTPAGE
Lloh31:
	ldr	x8, [x8, _caml_sys_argv@GOTPAGEOFF]
	mov	w0, #1
	bl	_caml_c_call
Ltmp15:
	ldur	x8, [x0, #-8]
	and	x8, x8, #0xfffffffffffc00
	cmp	x8, #2561
	b.lo	LBB8_11
; %bb.6:                                ; %L374
	ldr	x0, [x0, #16]
	str	x0, [sp, #24]
Lloh32:
	adrp	x8, _caml_int_of_string@GOTPAGE
Lloh33:
	ldr	x8, [x8, _caml_int_of_string@GOTPAGEOFF]
	bl	_caml_c_call
Ltmp16:
	mov	x19, x0
	b	LBB8_8
LBB8_7:
	mov	w19, #21
LBB8_8:                                 ; %L388
Lloh34:
	adrp	x0, _camlHash_lookup_string_equal@PAGE+32
Lloh35:
	add	x0, x0, _camlHash_lookup_string_equal@PAGEOFF+32
	mov	x1, x19
	mov	x29, sp
	.cfi_remember_state
	.cfi_def_cfa_register w29
	ldr	x16, [x28, #104]
	mov	sp, x16
	bl	_caml_initialize
	mov	sp, x29
	.cfi_restore_state
	ldr	x8, [x28, #40]
	add	x8, x8, #376
	; InlineAsm Start
	mov	x9, sp
	; InlineAsm End
	cmp	x9, x8
	str	x20, [sp, #16]                  ; 8-byte Folded Spill
	b.lo	LBB8_10
LBB8_9:                                 ; %L409
	mov	x0, x19
	bl	_camlHash_lookup_string_equal__black_box_int_0_9_code
Ltmp17:
	str	x0, [sp, #8]                    ; 8-byte Folded Spill
	ldr	x0, [sp, #16]                   ; 8-byte Folded Reload
	bl	_camlHash_lookup_string_equal__black_box_int_0_9_code
Ltmp18:
	ldr	x1, [sp, #8]                    ; 8-byte Folded Reload
	bl	_camlHash_lookup_string_equal__run_6_15_code
Ltmp19:
	str	x0, [sp, #16]                   ; 8-byte Folded Spill
Lloh36:
	adrp	x0, _camlStdlib__Printf__fn$5b$2fworkspace_root$2fprintf.ml$3a27$2c14$2d$2d48$5d_31@GOTPAGE
Lloh37:
	ldr	x0, [x0, _camlStdlib__Printf__fn$5b$2fworkspace_root$2fprintf.ml$3a27$2c14$2d$2d48$5d_31@GOTPAGEOFF]
Lloh38:
	adrp	x2, _camlHash_lookup_string_equal__const_block66@PAGE
Lloh39:
	add	x2, x2, _camlHash_lookup_string_equal__const_block66@PAGEOFF
	mov	w1, #1
	bl	_camlCamlinternalFormat__make_printf_120_401_code
Ltmp20:
	mov	x1, x0
	ldr	x8, [sp, #16]                   ; 8-byte Folded Reload
	and	x0, x8, #0x7fffffff
	ldr	x8, [x1]
	blr	x8
Ltmp21:
	mov	w0, #1
	ldr	x30, [sp, #40]                  ; 8-byte Folded Reload
	add	sp, sp, #48
	ret
LBB8_10:                                ; %L408
	mov	w0, #34
	bl	_caml_llvm_call_realloc_stack
Ltmp22:
	b	LBB8_9
LBB8_11:                                ; %L382
Lloh40:
	adrp	x8, _camlHash_lookup_string_equal__block35@PAGE
Lloh41:
	add	x8, x8, _camlHash_lookup_string_equal__block35@PAGEOFF
	mov	x0, x8
	mov	sp, x26
	ldp	x26, x16, [sp], #16
	br	x16
	.loh AdrpLdrGot	Lloh20, Lloh21
	.loh AdrpLdrGot	Lloh22, Lloh23
	.loh AdrpLdrGot	Lloh24, Lloh25
	.loh AdrpLdrGot	Lloh28, Lloh29
	.loh AdrpAdd	Lloh26, Lloh27
	.loh AdrpLdrGot	Lloh30, Lloh31
	.loh AdrpLdrGot	Lloh32, Lloh33
	.loh AdrpAdd	Lloh34, Lloh35
	.loh AdrpAdd	Lloh38, Lloh39
	.loh AdrpLdrGot	Lloh36, Lloh37
	.loh AdrpAdd	Lloh40, Lloh41
	.cfi_endproc
                                        ; -- End function
	.section	__DATA,__data
	.globl	_camlHash_lookup_string_equal__gc_roots ; @"\01_camlHash_lookup_string_equal__gc_roots"
	.p2align	3, 0x0
_camlHash_lookup_string_equal__gc_roots:
	.quad	_camlHash_lookup_string_equal
	.quad	0                               ; 0x0

	.globl	_header.camlHash_lookup_string_equal ; @"\01_header.camlHash_lookup_string_equal"
	.p2align	3, 0x0
_header.camlHash_lookup_string_equal:
	.quad	8960                            ; 0x2300

	.globl	_camlHash_lookup_string_equal   ; @"\01_camlHash_lookup_string_equal"
	.p2align	3, 0x0
_camlHash_lookup_string_equal:
	.quad	_camlHash_lookup_string_equal__black_box_int_9
	.quad	_camlHash_lookup_string_equal__black_box_string_10
	.quad	_camlHash_lookup_string_equal__black_box_11
	.quad	1                               ; 0x1
	.quad	1                               ; 0x1
	.quad	_camlHash_lookup_string_equal__print_result_12
	.quad	_camlHash_lookup_string_equal__find_13
	.quad	_camlHash_lookup_string_equal__run_14

	.globl	_header.camlHash_lookup_string_equal__run_14 ; @"\01_header.camlHash_lookup_string_equal__run_14"
	.p2align	3, 0x0
_header.camlHash_lookup_string_equal__run_14:
	.quad	4087                            ; 0xff7

	.globl	_camlHash_lookup_string_equal__run_14 ; @"\01_camlHash_lookup_string_equal__run_14"
	.p2align	3, 0x0
_camlHash_lookup_string_equal__run_14:
	.quad	_caml_curry2
	.quad	180143985094819847              ; 0x280000000000007
	.quad	_camlHash_lookup_string_equal__run_6_15_code

	.globl	_header.camlHash_lookup_string_equal__fn$5bhash_lookup_string_equal.ml$3a24$2c17$2d$2d70$5d_15 ; @"\01_header.camlHash_lookup_string_equal__fn$5bhash_lookup_string_equal.ml$3a24$2c17$2d$2d70$5d_15"
	.p2align	3, 0x0
_header.camlHash_lookup_string_equal__fn$5bhash_lookup_string_equal.ml$3a24$2c17$2d$2d70$5d_15:
	.quad	3063                            ; 0xbf7

	.globl	_camlHash_lookup_string_equal__fn$5bhash_lookup_string_equal.ml$3a24$2c17$2d$2d70$5d_15 ; @"\01_camlHash_lookup_string_equal__fn$5bhash_lookup_string_equal.ml$3a24$2c17$2d$2d70$5d_15"
	.p2align	3, 0x0
_camlHash_lookup_string_equal__fn$5bhash_lookup_string_equal.ml$3a24$2c17$2d$2d70$5d_15:
	.quad	_camlHash_lookup_string_equal__fn$5bhash_lookup_string_equal.ml$3a24$2c17$2d$2d70$5d_7_16_code
	.quad	108086391056891909              ; 0x180000000000005

	.globl	_header.camlHash_lookup_string_equal__fn$5bhash_lookup_string_equal.ml$3a27$2c37$2d$2d40$5d_16 ; @"\01_header.camlHash_lookup_string_equal__fn$5bhash_lookup_string_equal.ml$3a27$2c37$2d$2d40$5d_16"
	.p2align	3, 0x0
_header.camlHash_lookup_string_equal__fn$5bhash_lookup_string_equal.ml$3a27$2c37$2d$2d40$5d_16:
	.quad	3063                            ; 0xbf7

	.globl	_camlHash_lookup_string_equal__fn$5bhash_lookup_string_equal.ml$3a27$2c37$2d$2d40$5d_16 ; @"\01_camlHash_lookup_string_equal__fn$5bhash_lookup_string_equal.ml$3a27$2c37$2d$2d40$5d_16"
	.p2align	3, 0x0
_camlHash_lookup_string_equal__fn$5bhash_lookup_string_equal.ml$3a27$2c37$2d$2d40$5d_16:
	.quad	_camlHash_lookup_string_equal__fn$5bhash_lookup_string_equal.ml$3a27$2c37$2d$2d40$5d_8_8_code
	.quad	108086391056891909              ; 0x180000000000005

	.globl	_header.camlHash_lookup_string_equal__find_13 ; @"\01_header.camlHash_lookup_string_equal__find_13"
	.p2align	3, 0x0
_header.camlHash_lookup_string_equal__find_13:
	.quad	4087                            ; 0xff7

	.globl	_camlHash_lookup_string_equal__find_13 ; @"\01_camlHash_lookup_string_equal__find_13"
	.p2align	3, 0x0
_camlHash_lookup_string_equal__find_13:
	.quad	_caml_curry2
	.quad	180143985094819847              ; 0x280000000000007
	.quad	_camlHash_lookup_string_equal__find_4_13_code

	.globl	_header.camlHash_lookup_string_equal__print_result_12 ; @"\01_header.camlHash_lookup_string_equal__print_result_12"
	.p2align	3, 0x0
_header.camlHash_lookup_string_equal__print_result_12:
	.quad	3063                            ; 0xbf7

	.globl	_camlHash_lookup_string_equal__print_result_12 ; @"\01_camlHash_lookup_string_equal__print_result_12"
	.p2align	3, 0x0
_camlHash_lookup_string_equal__print_result_12:
	.quad	_camlHash_lookup_string_equal__print_result_3_12_code
	.quad	108086391056891909              ; 0x180000000000005

	.globl	_header.camlHash_lookup_string_equal__black_box_11 ; @"\01_header.camlHash_lookup_string_equal__black_box_11"
	.p2align	3, 0x0
_header.camlHash_lookup_string_equal__black_box_11:
	.quad	3063                            ; 0xbf7

	.globl	_camlHash_lookup_string_equal__black_box_11 ; @"\01_camlHash_lookup_string_equal__black_box_11"
	.p2align	3, 0x0
_camlHash_lookup_string_equal__black_box_11:
	.quad	_camlHash_lookup_string_equal__black_box_2_11_code
	.quad	108086391056891909              ; 0x180000000000005

	.globl	_header.camlHash_lookup_string_equal__black_box_string_10 ; @"\01_header.camlHash_lookup_string_equal__black_box_string_10"
	.p2align	3, 0x0
_header.camlHash_lookup_string_equal__black_box_string_10:
	.quad	3063                            ; 0xbf7

	.globl	_camlHash_lookup_string_equal__black_box_string_10 ; @"\01_camlHash_lookup_string_equal__black_box_string_10"
	.p2align	3, 0x0
_camlHash_lookup_string_equal__black_box_string_10:
	.quad	_camlHash_lookup_string_equal__black_box_string_1_10_code
	.quad	108086391056891909              ; 0x180000000000005

	.globl	_header.camlHash_lookup_string_equal__black_box_int_9 ; @"\01_header.camlHash_lookup_string_equal__black_box_int_9"
	.p2align	3, 0x0
_header.camlHash_lookup_string_equal__black_box_int_9:
	.quad	3063                            ; 0xbf7

	.globl	_camlHash_lookup_string_equal__black_box_int_9 ; @"\01_camlHash_lookup_string_equal__black_box_int_9"
	.p2align	3, 0x0
_camlHash_lookup_string_equal__black_box_int_9:
	.quad	_camlHash_lookup_string_equal__black_box_int_0_9_code
	.quad	108086391056891909              ; 0x180000000000005

	.globl	_header.camlHash_lookup_string_equal__block35 ; @"\01_header.camlHash_lookup_string_equal__block35"
	.p2align	3, 0x0
_header.camlHash_lookup_string_equal__block35:
	.quad	2816                            ; 0xb00

	.globl	_camlHash_lookup_string_equal__block35 ; @"\01_camlHash_lookup_string_equal__block35"
	.p2align	3, 0x0
_camlHash_lookup_string_equal__block35:
	.quad	_caml_exn_Invalid_argument
	.quad	_camlHash_lookup_string_equal__string33

	.globl	_header.camlHash_lookup_string_equal__string33 ; @"\01_header.camlHash_lookup_string_equal__string33"
	.p2align	3, 0x0
_header.camlHash_lookup_string_equal__string33:
	.quad	4092                            ; 0xffc

	.globl	_camlHash_lookup_string_equal__string33 ; @"\01_camlHash_lookup_string_equal__string33"
	.p2align	3, 0x0
_camlHash_lookup_string_equal__string33:
	.ascii	"index out of bounds"
	.space	4
	.byte	4                               ; 0x4

	.globl	_header.camlHash_lookup_string_equal__immstring117 ; @"\01_header.camlHash_lookup_string_equal__immstring117"
	.p2align	3, 0x0
_header.camlHash_lookup_string_equal__immstring117:
	.quad	4092                            ; 0xffc

	.globl	_camlHash_lookup_string_equal__immstring117 ; @"\01_camlHash_lookup_string_equal__immstring117"
	.p2align	3, 0x0
_camlHash_lookup_string_equal__immstring117:
	.ascii	"hash_collision_key_"
	.space	4
	.byte	4                               ; 0x4

	.globl	_header.camlHash_lookup_string_equal__const_block66 ; @"\01_header.camlHash_lookup_string_equal__const_block66"
	.p2align	3, 0x0
_header.camlHash_lookup_string_equal__const_block66:
	.quad	4868                            ; 0x1304

	.globl	_camlHash_lookup_string_equal__const_block66 ; @"\01_camlHash_lookup_string_equal__const_block66"
	.p2align	3, 0x0
_camlHash_lookup_string_equal__const_block66:
	.quad	1                               ; 0x1
	.quad	1                               ; 0x1
	.quad	1                               ; 0x1
	.quad	_camlHash_lookup_string_equal__const_block64

	.globl	_header.camlHash_lookup_string_equal__const_block64 ; @"\01_header.camlHash_lookup_string_equal__const_block64"
	.p2align	3, 0x0
_header.camlHash_lookup_string_equal__const_block64:
	.quad	2828                            ; 0xb0c

	.globl	_camlHash_lookup_string_equal__const_block64 ; @"\01_camlHash_lookup_string_equal__const_block64"
	.p2align	3, 0x0
_camlHash_lookup_string_equal__const_block64:
	.quad	21                              ; 0x15
	.quad	_camlHash_lookup_string_equal__const_block62

	.globl	_header.camlHash_lookup_string_equal__const_block62 ; @"\01_header.camlHash_lookup_string_equal__const_block62"
	.p2align	3, 0x0
_header.camlHash_lookup_string_equal__const_block62:
	.quad	1802                            ; 0x70a

	.globl	_camlHash_lookup_string_equal__const_block62 ; @"\01_camlHash_lookup_string_equal__const_block62"
	.p2align	3, 0x0
_camlHash_lookup_string_equal__const_block62:
	.quad	1                               ; 0x1

	.quad	0
	.globl	_camlHash_lookup_string_equal__data_end
_camlHash_lookup_string_equal__data_end:
	.quad	0
	.p2align	3, 0x0
	.globl	_camlHash_lookup_string_equal__frametable
_camlHash_lookup_string_equal__frametable:
	.quad	23
Ltmp23:
	.long	Ltmp0-Ltmp23
	.short	33
	.short	0
	.p2align	2, 0x0
Ltmp25:
	.long	Ltmp24-Ltmp25
	.p2align	3, 0x0
Ltmp26:
	.long	Ltmp1-Ltmp26
	.short	32
	.short	0
	.p2align	3, 0x0
Ltmp27:
	.long	Ltmp2-Ltmp27
	.short	113
	.short	0
	.p2align	2, 0x0
Ltmp29:
	.long	Ltmp28-Ltmp29
	.p2align	3, 0x0
Ltmp30:
	.long	Ltmp3-Ltmp30
	.short	113
	.short	1
	.short	88
	.p2align	2, 0x0
Ltmp32:
	.long	Ltmp31-Ltmp32
	.p2align	3, 0x0
Ltmp33:
	.long	Ltmp4-Ltmp33
	.short	113
	.short	4
	.short	80
	.short	88
	.short	72
	.short	64
	.p2align	2, 0x0
Ltmp35:
	.long	Ltmp34-Ltmp35
	.p2align	3, 0x0
Ltmp36:
	.long	Ltmp5-Ltmp36
	.short	113
	.short	2
	.short	56
	.short	48
	.p2align	2, 0x0
Ltmp38:
	.long	Ltmp37-Ltmp38
	.p2align	3, 0x0
Ltmp39:
	.long	Ltmp6-Ltmp39
	.short	112
	.short	0
	.p2align	3, 0x0
Ltmp40:
	.long	Ltmp7-Ltmp40
	.short	115
	.short	1
	.short	3
	.byte	1
	.byte	0
	.p2align	2, 0x0
Ltmp42:
	.long	Ltmp41-Ltmp42
	.p2align	3, 0x0
Ltmp43:
	.long	Ltmp8-Ltmp43
	.short	33
	.short	1
	.short	8
	.p2align	2, 0x0
Ltmp45:
	.long	Ltmp44-Ltmp45
	.p2align	3, 0x0
Ltmp46:
	.long	Ltmp9-Ltmp46
	.short	33
	.short	2
	.short	8
	.short	0
	.p2align	2, 0x0
Ltmp48:
	.long	Ltmp47-Ltmp48
	.p2align	3, 0x0
Ltmp49:
	.long	Ltmp10-Ltmp49
	.short	35
	.short	1
	.short	35
	.byte	1
	.byte	1
	.p2align	2, 0x0
Ltmp51:
	.long	Ltmp50-Ltmp51
	.p2align	3, 0x0
Ltmp52:
	.long	Ltmp11-Ltmp52
	.short	49
	.short	0
	.p2align	2, 0x0
Ltmp54:
	.long	Ltmp53-Ltmp54
	.p2align	3, 0x0
Ltmp55:
	.long	Ltmp12-Ltmp55
	.short	49
	.short	0
	.p2align	2, 0x0
Ltmp57:
	.long	Ltmp56-Ltmp57
	.p2align	3, 0x0
Ltmp58:
	.long	Ltmp13-Ltmp58
	.short	49
	.short	1
	.short	24
	.p2align	2, 0x0
Ltmp60:
	.long	Ltmp59-Ltmp60
	.p2align	3, 0x0
Ltmp61:
	.long	Ltmp14-Ltmp61
	.short	49
	.short	0
	.p2align	2, 0x0
Ltmp63:
	.long	Ltmp62-Ltmp63
	.p2align	3, 0x0
Ltmp64:
	.long	Ltmp15-Ltmp64
	.short	49
	.short	0
	.p2align	2, 0x0
Ltmp66:
	.long	Ltmp65-Ltmp66
	.p2align	3, 0x0
Ltmp67:
	.long	Ltmp16-Ltmp67
	.short	49
	.short	1
	.short	24
	.p2align	2, 0x0
Ltmp69:
	.long	Ltmp68-Ltmp69
	.p2align	3, 0x0
Ltmp70:
	.long	Ltmp17-Ltmp70
	.short	49
	.short	0
	.p2align	2, 0x0
Ltmp72:
	.long	Ltmp71-Ltmp72
	.p2align	3, 0x0
Ltmp73:
	.long	Ltmp18-Ltmp73
	.short	49
	.short	0
	.p2align	2, 0x0
Ltmp75:
	.long	Ltmp74-Ltmp75
	.p2align	3, 0x0
Ltmp76:
	.long	Ltmp19-Ltmp76
	.short	49
	.short	0
	.p2align	2, 0x0
Ltmp78:
	.long	Ltmp77-Ltmp78
	.p2align	3, 0x0
Ltmp79:
	.long	Ltmp20-Ltmp79
	.short	49
	.short	0
	.p2align	2, 0x0
Ltmp81:
	.long	Ltmp80-Ltmp81
	.p2align	3, 0x0
Ltmp82:
	.long	Ltmp21-Ltmp82
	.short	49
	.short	0
	.p2align	2, 0x0
Ltmp84:
	.long	Ltmp83-Ltmp84
	.p2align	3, 0x0
Ltmp85:
	.long	Ltmp22-Ltmp85
	.short	48
	.short	0
	.p2align	3, 0x0
	.p2align	2, 0x0
Ltmp24:
Ltmp94:
	.long	(Ltmp86-Ltmp94)+1
	.long	14158328
Ltmp95:
	.long	(Ltmp88-Ltmp95)+1
	.long	17847640
Ltmp96:
	.long	(Ltmp90-Ltmp96)+1
	.long	19940632
Ltmp97:
	.long	(Ltmp92-Ltmp97)+0
	.long	5789176
	.p2align	2, 0x0
Ltmp86:
	.long	Ltmp87-Ltmp86
	.ascii	"Stdlib__Printf.kfprintf"
	.byte	0
Ltmp87:
	.ascii	"printf.ml"
	.byte	0
	.p2align	2, 0x0
Ltmp88:
	.long	Ltmp89-Ltmp88
	.ascii	"Stdlib__Printf.fprintf"
	.byte	0
Ltmp89:
	.ascii	"printf.ml"
	.byte	0
	.p2align	2, 0x0
Ltmp90:
	.long	Ltmp91-Ltmp90
	.ascii	"Stdlib__Printf.printf"
	.byte	0
Ltmp91:
	.ascii	"printf.ml"
	.byte	0
	.p2align	2, 0x0
Ltmp92:
	.long	Ltmp93-Ltmp92
	.ascii	"Hash_lookup_string_equal.print_result"
	.byte	0
Ltmp93:
	.ascii	"hash_lookup_string_equal.ml"
	.byte	0
	.p2align	2, 0x0
Ltmp28:
Ltmp102:
	.long	(Ltmp98-Ltmp102)+1
	.long	40372384
Ltmp103:
	.long	(Ltmp100-Ltmp103)+0
	.long	12587568
	.p2align	2, 0x0
Ltmp98:
	.long	Ltmp99-Ltmp98
	.ascii	"Stdlib__List.init"
	.byte	0
Ltmp99:
	.ascii	"list.ml"
	.byte	0
	.p2align	2, 0x0
Ltmp100:
	.long	Ltmp101-Ltmp100
	.ascii	"Hash_lookup_string_equal.run"
	.byte	0
Ltmp101:
	.ascii	"hash_lookup_string_equal.ml"
	.byte	0
	.p2align	2, 0x0
Ltmp31:
Ltmp106:
	.long	(Ltmp104-Ltmp106)+0
	.long	14183816
	.p2align	2, 0x0
Ltmp104:
	.long	Ltmp105-Ltmp104
	.ascii	"Hash_lookup_string_equal.run"
	.byte	0
Ltmp105:
	.ascii	"hash_lookup_string_equal.ml"
	.byte	0
	.p2align	2, 0x0
Ltmp34:
Ltmp111:
	.long	(Ltmp107-Ltmp111)+1
	.long	111688008
Ltmp112:
	.long	(Ltmp109-Ltmp112)+0
	.long	14169480
	.p2align	2, 0x0
Ltmp107:
	.long	Ltmp108-Ltmp107
	.ascii	"Stdlib__Array.of_list"
	.byte	0
Ltmp108:
	.ascii	"array.ml"
	.byte	0
	.p2align	2, 0x0
Ltmp109:
	.long	Ltmp110-Ltmp109
	.ascii	"Hash_lookup_string_equal.run"
	.byte	0
Ltmp110:
	.ascii	"hash_lookup_string_equal.ml"
	.byte	0
	.p2align	2, 0x0
Ltmp37:
Ltmp115:
	.long	(Ltmp113-Ltmp115)+0
	.long	16274000
	.p2align	2, 0x0
Ltmp113:
	.long	Ltmp114-Ltmp113
	.ascii	"Hash_lookup_string_equal.run"
	.byte	0
Ltmp114:
	.ascii	"hash_lookup_string_equal.ml"
	.byte	0
	.p2align	2, 0x0
Ltmp41:
Ltmp118:
	.long	(Ltmp116-Ltmp118)+0
	.long	13648104
	.p2align	2, 0x0
Ltmp116:
	.long	Ltmp117-Ltmp116
	.ascii	"Hash_lookup_string_equal.run"
	.byte	0
Ltmp117:
	.ascii	"hash_lookup_string_equal.ml"
	.byte	0
	.p2align	2, 0x0
Ltmp44:
Ltmp123:
	.long	(Ltmp119-Ltmp123)+1
	.long	146802840
Ltmp124:
	.long	(Ltmp121-Ltmp124)+0
	.long	12635664
	.p2align	2, 0x0
Ltmp119:
	.long	Ltmp120-Ltmp119
	.ascii	"Stdlib.string_of_int"
	.byte	0
Ltmp120:
	.ascii	"stdlib.ml"
	.byte	0
	.p2align	2, 0x0
Ltmp121:
	.long	Ltmp122-Ltmp121
	.ascii	"Hash_lookup_string_equal.run.(fun)"
	.byte	0
Ltmp122:
	.ascii	"hash_lookup_string_equal.ml"
	.byte	0
	.p2align	2, 0x0
Ltmp47:
Ltmp129:
	.long	(Ltmp125-Ltmp129)+1
	.long	118499584
Ltmp130:
	.long	(Ltmp127-Ltmp130)+0
	.long	12611088
	.p2align	2, 0x0
Ltmp125:
	.long	Ltmp126-Ltmp125
	.ascii	"Stdlib.(^)"
	.byte	0
Ltmp126:
	.ascii	"stdlib.ml"
	.byte	0
	.p2align	2, 0x0
Ltmp127:
	.long	Ltmp128-Ltmp127
	.ascii	"Hash_lookup_string_equal.run.(fun)"
	.byte	0
Ltmp128:
	.ascii	"hash_lookup_string_equal.ml"
	.byte	0
	.p2align	2, 0x0
Ltmp50:
Ltmp133:
	.long	(Ltmp131-Ltmp133)+0
	.long	12611112
	.p2align	2, 0x0
Ltmp131:
	.long	Ltmp132-Ltmp131
	.ascii	"Hash_lookup_string_equal.run.(fun)"
	.byte	0
Ltmp132:
	.ascii	"hash_lookup_string_equal.ml"
	.byte	0
	.p2align	2, 0x0
Ltmp53:
Ltmp136:
	.long	(Ltmp134-Ltmp136)+0
	.long	3164368
	.p2align	2, 0x0
Ltmp134:
	.long	Ltmp135-Ltmp134
	.ascii	"Hash_lookup_string_equal.n"
	.byte	0
Ltmp135:
	.ascii	"hash_lookup_string_equal.ml"
	.byte	0
	.p2align	2, 0x0
Ltmp56:
Ltmp139:
	.long	(Ltmp137-Ltmp139)+0
	.long	3197392
	.p2align	2, 0x0
Ltmp137:
	.long	Ltmp138-Ltmp137
	.ascii	"Hash_lookup_string_equal.n"
	.byte	0
Ltmp138:
	.ascii	"hash_lookup_string_equal.ml"
	.byte	0
	.p2align	2, 0x0
Ltmp59:
Ltmp142:
	.long	(Ltmp140-Ltmp142)+0
	.long	3183088
	.p2align	2, 0x0
Ltmp140:
	.long	Ltmp141-Ltmp140
	.ascii	"Hash_lookup_string_equal.n"
	.byte	0
Ltmp141:
	.ascii	"hash_lookup_string_equal.ml"
	.byte	0
	.p2align	2, 0x0
Ltmp62:
Ltmp145:
	.long	(Ltmp143-Ltmp145)+0
	.long	4737232
	.p2align	2, 0x0
Ltmp143:
	.long	Ltmp144-Ltmp143
	.ascii	"Hash_lookup_string_equal.reps"
	.byte	0
Ltmp144:
	.ascii	"hash_lookup_string_equal.ml"
	.byte	0
	.p2align	2, 0x0
Ltmp65:
Ltmp148:
	.long	(Ltmp146-Ltmp148)+0
	.long	4770256
	.p2align	2, 0x0
Ltmp146:
	.long	Ltmp147-Ltmp146
	.ascii	"Hash_lookup_string_equal.reps"
	.byte	0
Ltmp147:
	.ascii	"hash_lookup_string_equal.ml"
	.byte	0
	.p2align	2, 0x0
Ltmp68:
Ltmp151:
	.long	(Ltmp149-Ltmp151)+0
	.long	4755952
	.p2align	2, 0x0
Ltmp149:
	.long	Ltmp150-Ltmp149
	.ascii	"Hash_lookup_string_equal.reps"
	.byte	0
Ltmp150:
	.ascii	"hash_lookup_string_equal.ml"
	.byte	0
	.p2align	2, 0x0
Ltmp71:
Ltmp154:
	.long	(Ltmp152-Ltmp154)+0
	.long	18920968
	.p2align	2, 0x0
Ltmp152:
	.long	Ltmp153-Ltmp152
	.ascii	"Hash_lookup_string_equal"
	.byte	0
Ltmp153:
	.ascii	"hash_lookup_string_equal.ml"
	.byte	0
	.p2align	2, 0x0
Ltmp74:
Ltmp157:
	.long	(Ltmp155-Ltmp157)+0
	.long	18902368
	.p2align	2, 0x0
Ltmp155:
	.long	Ltmp156-Ltmp155
	.ascii	"Hash_lookup_string_equal"
	.byte	0
Ltmp156:
	.ascii	"hash_lookup_string_equal.ml"
	.byte	0
	.p2align	2, 0x0
Ltmp77:
Ltmp160:
	.long	(Ltmp158-Ltmp160)+0
	.long	18897424
	.p2align	2, 0x0
Ltmp158:
	.long	Ltmp159-Ltmp158
	.ascii	"Hash_lookup_string_equal"
	.byte	0
Ltmp159:
	.ascii	"hash_lookup_string_equal.ml"
	.byte	0
	.p2align	2, 0x0
Ltmp80:
Ltmp171:
	.long	(Ltmp161-Ltmp171)+1
	.long	14158328
Ltmp172:
	.long	(Ltmp163-Ltmp172)+1
	.long	17847640
Ltmp173:
	.long	(Ltmp165-Ltmp173)+1
	.long	19940632
Ltmp174:
	.long	(Ltmp167-Ltmp174)+1
	.long	5789176
Ltmp175:
	.long	(Ltmp169-Ltmp175)+0
	.long	18884112
	.p2align	2, 0x0
Ltmp161:
	.long	Ltmp162-Ltmp161
	.ascii	"Stdlib__Printf.kfprintf"
	.byte	0
Ltmp162:
	.ascii	"printf.ml"
	.byte	0
	.p2align	2, 0x0
Ltmp163:
	.long	Ltmp164-Ltmp163
	.ascii	"Stdlib__Printf.fprintf"
	.byte	0
Ltmp164:
	.ascii	"printf.ml"
	.byte	0
	.p2align	2, 0x0
Ltmp165:
	.long	Ltmp166-Ltmp165
	.ascii	"Stdlib__Printf.printf"
	.byte	0
Ltmp166:
	.ascii	"printf.ml"
	.byte	0
	.p2align	2, 0x0
Ltmp167:
	.long	Ltmp168-Ltmp167
	.ascii	"Hash_lookup_string_equal.print_result"
	.byte	0
Ltmp168:
	.ascii	"hash_lookup_string_equal.ml"
	.byte	0
	.p2align	2, 0x0
Ltmp169:
	.long	Ltmp170-Ltmp169
	.ascii	"Hash_lookup_string_equal"
	.byte	0
Ltmp170:
	.ascii	"hash_lookup_string_equal.ml"
	.byte	0
	.p2align	2, 0x0
Ltmp83:
Ltmp180:
	.long	(Ltmp176-Ltmp180)+1
	.long	5789176
Ltmp181:
	.long	(Ltmp178-Ltmp181)+0
	.long	18884112
	.p2align	2, 0x0
Ltmp176:
	.long	Ltmp177-Ltmp176
	.ascii	"Hash_lookup_string_equal.print_result"
	.byte	0
Ltmp177:
	.ascii	"hash_lookup_string_equal.ml"
	.byte	0
	.p2align	2, 0x0
Ltmp178:
	.long	Ltmp179-Ltmp178
	.ascii	"Hash_lookup_string_equal"
	.byte	0
Ltmp179:
	.ascii	"hash_lookup_string_equal.ml"
	.byte	0

	.section	__TEXT,__text,regular,pure_instructions
	.globl	_camlHash_lookup_string_equal__code_end
_camlHash_lookup_string_equal__code_end:
.subsections_via_symbols
