	.section	__TEXT,__text,regular,pure_instructions
	.build_version macos, 16, 0
	.globl	_camlTry_find_miss_rare__code_begin
_camlTry_find_miss_rare__code_begin:
	.section	__DATA,__data
	.globl	_camlTry_find_miss_rare__data_begin
_camlTry_find_miss_rare__data_begin:
	.section	__TEXT,__text,regular,pure_instructions
	.globl	_camlTry_find_miss_rare__black_box_int_0_7_code ; -- Begin function _camlTry_find_miss_rare__black_box_int_0_7_code
	.p2align	2
_camlTry_find_miss_rare__black_box_int_0_7_code: ; @"\01_camlTry_find_miss_rare__black_box_int_0_7_code"
	.cfi_startproc
; %bb.0:                                ; %L1
	; InlineAsm Start
	; InlineAsm End
	ret
	.cfi_endproc
                                        ; -- End function
	.globl	_camlTry_find_miss_rare__black_box_string_1_8_code ; -- Begin function _camlTry_find_miss_rare__black_box_string_1_8_code
	.p2align	2
_camlTry_find_miss_rare__black_box_string_1_8_code: ; @"\01_camlTry_find_miss_rare__black_box_string_1_8_code"
	.cfi_startproc
; %bb.0:                                ; %L1
	; InlineAsm Start
	; InlineAsm End
	ret
	.cfi_endproc
                                        ; -- End function
	.globl	_camlTry_find_miss_rare__black_box_2_9_code ; -- Begin function _camlTry_find_miss_rare__black_box_2_9_code
	.p2align	2
_camlTry_find_miss_rare__black_box_2_9_code: ; @"\01_camlTry_find_miss_rare__black_box_2_9_code"
	.cfi_startproc
; %bb.0:                                ; %L1
	; InlineAsm Start
	; InlineAsm End
	ret
	.cfi_endproc
                                        ; -- End function
	.globl	_camlTry_find_miss_rare__print_result_3_10_code ; -- Begin function _camlTry_find_miss_rare__print_result_3_10_code
	.p2align	2
_camlTry_find_miss_rare__print_result_3_10_code: ; @"\01_camlTry_find_miss_rare__print_result_3_10_code"
	.cfi_startproc
; %bb.0:                                ; %L1
	sub	sp, sp, #16
	.cfi_def_cfa_offset 16
	str	x30, [sp, #8]                   ; 8-byte Folded Spill
	.cfi_offset w30, -16
	sub	sp, sp, #16
	.cfi_def_cfa_offset 32
	str	x0, [sp, #8]                    ; 8-byte Folded Spill
	ldr	x8, [x28, #40]
	add	x8, x8, #376
	; InlineAsm Start
	mov	x9, sp
	; InlineAsm End
	cmp	x9, x8
	b.lo	LBB3_2
LBB3_1:                                 ; %L117
Lloh0:
	adrp	x0, _camlStdlib__Printf__fn$5b$2fworkspace_root$2fprintf.ml$3a27$2c14$2d$2d48$5d_31@GOTPAGE
Lloh1:
	ldr	x0, [x0, _camlStdlib__Printf__fn$5b$2fworkspace_root$2fprintf.ml$3a27$2c14$2d$2d48$5d_31@GOTPAGEOFF]
Lloh2:
	adrp	x2, _camlTry_find_miss_rare__const_block66@PAGE
Lloh3:
	add	x2, x2, _camlTry_find_miss_rare__const_block66@PAGEOFF
	mov	w1, #1
	bl	_camlCamlinternalFormat__make_printf_120_401_code
Ltmp1:
	mov	x1, x0
	ldr	x8, [sp, #8]                    ; 8-byte Folded Reload
	and	x0, x8, #0x7fffffff
	ldr	x2, [x1]
	ldr	x30, [sp, #24]                  ; 8-byte Folded Reload
	add	sp, sp, #32
	br	x2
LBB3_2:                                 ; %L116
	mov	w0, #34
	bl	_caml_llvm_call_realloc_stack
Ltmp2:
	b	LBB3_1
	.loh AdrpAdd	Lloh2, Lloh3
	.loh AdrpLdrGot	Lloh0, Lloh1
	.cfi_endproc
                                        ; -- End function
	.globl	_camlTry_find_miss_rare__scan_4_11_code ; -- Begin function _camlTry_find_miss_rare__scan_4_11_code
	.p2align	2
_camlTry_find_miss_rare__scan_4_11_code: ; @"\01_camlTry_find_miss_rare__scan_4_11_code"
	.cfi_startproc
; %bb.0:                                ; %L1
	sub	sp, sp, #16
	.cfi_def_cfa_offset 16
	str	x30, [sp, #8]                   ; 8-byte Folded Spill
	.cfi_offset w30, -16
	sub	sp, sp, #32
	.cfi_def_cfa_offset 48
	mov	x9, x1
	ldur	x8, [x1, #-8]
	lsr	x10, x8, #9
	and	x10, x10, #0x7ffffffffffe
	orr	x10, x10, #0x1
	cmp	x10, x2
	b.eq	LBB4_10
; %bb.1:
	mov	x19, x2
	mov	x1, x0
	mov	w21, #1277
Lloh4:
	adrp	x20, _caml_equal@GOTPAGE
Lloh5:
	ldr	x20, [x20, _caml_equal@GOTPAGEOFF]
LBB4_2:                                 ; %L136
                                        ; =>This Inner Loop Header: Depth=1
	and	x8, x8, #0xff
	cmp	x8, #254
	b.ne	LBB4_5
; %bb.3:                                ; %L140
                                        ;   in Loop: Header=BB4_2 Depth=1
	sub	x27, x27, #16
	ldr	x8, [x28]
	cmp	x8, x27
	b.hi	LBB4_8
LBB4_4:                                 ; %L169
                                        ;   in Loop: Header=BB4_2 Depth=1
	str	x21, [x27]
	add	x8, x9, x19, lsl #2
	ldur	d0, [x8, #-4]
	mov	x0, x27
	str	d0, [x0, #8]!
	b	LBB4_6
LBB4_5:                                 ; %L147
                                        ;   in Loop: Header=BB4_2 Depth=1
	add	x8, x9, x19, lsl #2
	ldur	x0, [x8, #-4]
LBB4_6:                                 ; %L154
                                        ;   in Loop: Header=BB4_2 Depth=1
	str	x9, [sp, #16]
	str	x1, [sp, #24]
	str	x0, [sp, #8]
	mov	x8, x20
	bl	_caml_c_call
Ltmp3:
	cmp	x0, #1
	b.ne	LBB4_9
; %bb.7:                                ; %L157
                                        ;   in Loop: Header=BB4_2 Depth=1
	ldr	x9, [sp, #16]
	ldr	x1, [sp, #24]
	add	x19, x19, #2
	ldur	x8, [x9, #-8]
	lsr	x10, x8, #9
	and	x10, x10, #0x7ffffffffffe
	orr	x10, x10, #0x1
	cmp	x19, x10
	b.ne	LBB4_2
	b	LBB4_10
LBB4_8:                                 ; %L168
                                        ;   in Loop: Header=BB4_2 Depth=1
	bl	_caml_call_gc
Ltmp4:
	b	LBB4_4
LBB4_9:                                 ; %L160
	mov	x0, x19
	ldr	x30, [sp, #40]                  ; 8-byte Folded Reload
	add	sp, sp, #48
	ret
LBB4_10:                                ; %L131
Lloh6:
	adrp	x8, _camlTry_find_miss_rare__Miss281@PAGE
Lloh7:
	add	x8, x8, _camlTry_find_miss_rare__Miss281@PAGEOFF
	mov	x0, x8
	mov	sp, x26
	ldp	x26, x16, [sp], #16
	br	x16
	.loh AdrpLdrGot	Lloh4, Lloh5
	.loh AdrpAdd	Lloh6, Lloh7
	.cfi_endproc
                                        ; -- End function
	.globl	_camlTry_find_miss_rare__run_5_12_code ; -- Begin function _camlTry_find_miss_rare__run_5_12_code
	.p2align	2
_camlTry_find_miss_rare__run_5_12_code: ; @"\01_camlTry_find_miss_rare__run_5_12_code"
Lfunc_begin0:
	.cfi_startproc
	.cfi_personality 155, _caml_llvm_eh_personality
	.cfi_lsda 16, Lexception0
; %bb.0:                                ; %L1
	sub	sp, sp, #16
	.cfi_def_cfa_offset 16
	str	x30, [sp, #8]                   ; 8-byte Folded Spill
	.cfi_offset w30, -16
	sub	sp, sp, #96
	.cfi_def_cfa_offset 112
	mov	x20, x1
	str	x0, [sp, #16]                   ; 8-byte Folded Spill
	mov	w8, #1
	str	x8, [sp, #88]
	ldr	x8, [x28, #64]
	str	x8, [sp]                        ; 8-byte Folded Spill
Lloh8:
	adrp	x8, _caml_array_make@GOTPAGE
Lloh9:
	ldr	x8, [x8, _caml_array_make@GOTPAGEOFF]
	mov	w0, #33
	mov	w1, #1
	bl	_caml_c_call
Ltmp5:
	mov	x19, x0
	ldr	x8, [x28, #40]
	add	x8, x8, #408
	; InlineAsm Start
	mov	x9, sp
	; InlineAsm End
	cmp	x9, x8
	b.lo	LBB5_31
; %bb.1:                                ; %L306
	ldurb	w8, [x19, #-8]
	cmp	w8, #254
	b.eq	LBB5_32
LBB5_2:                                 ; %L189
	add	x0, x19, #8
	mov	w1, #5
	mov	x29, sp
	.cfi_remember_state
	.cfi_def_cfa_register w29
	ldr	x16, [x28, #104]
	mov	sp, x16
	bl	_caml_modify
	mov	sp, x29
	.cfi_restore_state
	ldurb	w8, [x19, #-8]
	cmp	w8, #254
	b.eq	LBB5_32
; %bb.3:                                ; %L189.1
	add	x0, x19, #16
	mov	w1, #9
	mov	x29, sp
	.cfi_remember_state
	.cfi_def_cfa_register w29
	ldr	x16, [x28, #104]
	mov	sp, x16
	bl	_caml_modify
	mov	sp, x29
	.cfi_restore_state
	ldurb	w8, [x19, #-8]
	cmp	w8, #254
	b.eq	LBB5_32
; %bb.4:                                ; %L189.2
	add	x0, x19, #24
	mov	w1, #13
	mov	x29, sp
	.cfi_remember_state
	.cfi_def_cfa_register w29
	ldr	x16, [x28, #104]
	mov	sp, x16
	bl	_caml_modify
	mov	sp, x29
	.cfi_restore_state
	ldurb	w8, [x19, #-8]
	cmp	w8, #254
	b.eq	LBB5_32
; %bb.5:                                ; %L189.3
	add	x0, x19, #32
	mov	w1, #17
	mov	x29, sp
	.cfi_remember_state
	.cfi_def_cfa_register w29
	ldr	x16, [x28, #104]
	mov	sp, x16
	bl	_caml_modify
	mov	sp, x29
	.cfi_restore_state
	ldurb	w8, [x19, #-8]
	cmp	w8, #254
	b.eq	LBB5_32
; %bb.6:                                ; %L189.4
	add	x0, x19, #40
	mov	w1, #21
	mov	x29, sp
	.cfi_remember_state
	.cfi_def_cfa_register w29
	ldr	x16, [x28, #104]
	mov	sp, x16
	bl	_caml_modify
	mov	sp, x29
	.cfi_restore_state
	ldurb	w8, [x19, #-8]
	cmp	w8, #254
	b.eq	LBB5_32
; %bb.7:                                ; %L189.5
	add	x0, x19, #48
	mov	w1, #25
	mov	x29, sp
	.cfi_remember_state
	.cfi_def_cfa_register w29
	ldr	x16, [x28, #104]
	mov	sp, x16
	bl	_caml_modify
	mov	sp, x29
	.cfi_restore_state
	ldurb	w8, [x19, #-8]
	cmp	w8, #254
	b.eq	LBB5_32
; %bb.8:                                ; %L189.6
	add	x0, x19, #56
	mov	w1, #29
	mov	x29, sp
	.cfi_remember_state
	.cfi_def_cfa_register w29
	ldr	x16, [x28, #104]
	mov	sp, x16
	bl	_caml_modify
	mov	sp, x29
	.cfi_restore_state
	ldurb	w8, [x19, #-8]
	cmp	w8, #254
	b.eq	LBB5_32
; %bb.9:                                ; %L189.7
	add	x0, x19, #64
	mov	w1, #33
	mov	x29, sp
	.cfi_remember_state
	.cfi_def_cfa_register w29
	ldr	x16, [x28, #104]
	mov	sp, x16
	bl	_caml_modify
	mov	sp, x29
	.cfi_restore_state
	ldurb	w8, [x19, #-8]
	cmp	w8, #254
	b.eq	LBB5_32
; %bb.10:                               ; %L189.8
	add	x0, x19, #72
	mov	w1, #37
	mov	x29, sp
	.cfi_remember_state
	.cfi_def_cfa_register w29
	ldr	x16, [x28, #104]
	mov	sp, x16
	bl	_caml_modify
	mov	sp, x29
	.cfi_restore_state
	ldurb	w8, [x19, #-8]
	cmp	w8, #254
	b.eq	LBB5_32
; %bb.11:                               ; %L189.9
	add	x0, x19, #80
	mov	w1, #41
	mov	x29, sp
	.cfi_remember_state
	.cfi_def_cfa_register w29
	ldr	x16, [x28, #104]
	mov	sp, x16
	bl	_caml_modify
	mov	sp, x29
	.cfi_restore_state
	ldurb	w8, [x19, #-8]
	cmp	w8, #254
	b.eq	LBB5_32
; %bb.12:                               ; %L189.10
	add	x0, x19, #88
	mov	w1, #45
	mov	x29, sp
	.cfi_remember_state
	.cfi_def_cfa_register w29
	ldr	x16, [x28, #104]
	mov	sp, x16
	bl	_caml_modify
	mov	sp, x29
	.cfi_restore_state
	ldurb	w8, [x19, #-8]
	cmp	w8, #254
	b.eq	LBB5_32
; %bb.13:                               ; %L189.11
	add	x0, x19, #96
	mov	w1, #49
	mov	x29, sp
	.cfi_remember_state
	.cfi_def_cfa_register w29
	ldr	x16, [x28, #104]
	mov	sp, x16
	bl	_caml_modify
	mov	sp, x29
	.cfi_restore_state
	ldurb	w8, [x19, #-8]
	cmp	w8, #254
	b.eq	LBB5_32
; %bb.14:                               ; %L189.12
	add	x0, x19, #104
	mov	w1, #53
	mov	x29, sp
	.cfi_remember_state
	.cfi_def_cfa_register w29
	ldr	x16, [x28, #104]
	mov	sp, x16
	bl	_caml_modify
	mov	sp, x29
	.cfi_restore_state
	ldurb	w8, [x19, #-8]
	cmp	w8, #254
	b.eq	LBB5_32
; %bb.15:                               ; %L189.13
	add	x0, x19, #112
	mov	w1, #57
	mov	x29, sp
	.cfi_remember_state
	.cfi_def_cfa_register w29
	ldr	x16, [x28, #104]
	mov	sp, x16
	bl	_caml_modify
	mov	sp, x29
	.cfi_restore_state
	ldurb	w8, [x19, #-8]
	cmp	w8, #254
	b.eq	LBB5_32
; %bb.16:                               ; %L189.14
	add	x0, x19, #120
	mov	w1, #61
	mov	x29, sp
	.cfi_remember_state
	.cfi_def_cfa_register w29
	ldr	x16, [x28, #104]
	mov	sp, x16
	bl	_caml_modify
	mov	sp, x29
	.cfi_restore_state
	cmp	x20, #3
	b.ge	LBB5_19
; %bb.17:
	mov	w0, #1
LBB5_18:                                ; %L300
	ldr	x8, [sp]                        ; 8-byte Folded Reload
	str	x8, [x28, #64]
	ldr	x30, [sp, #104]                 ; 8-byte Folded Reload
	add	sp, sp, #112
	ret
LBB5_19:                                ; %L209
	lsr	x8, x20, #1
	str	x8, [sp, #8]                    ; 8-byte Folded Spill
	ldr	x8, [sp, #16]                   ; 8-byte Folded Reload
	lsr	x8, x8, #1
	str	x8, [sp, #48]                   ; 8-byte Folded Spill
	mov	w0, #1
	mov	w8, #74
	str	x8, [sp, #32]                   ; 8-byte Folded Spill
	mov	w8, #1
	str	x8, [sp, #24]                   ; 8-byte Folded Spill
	b	LBB5_21
LBB5_20:                                ; %L287
                                        ;   in Loop: Header=BB5_21 Depth=1
	ldr	x9, [sp, #24]                   ; 8-byte Folded Reload
	add	x9, x9, #1
	ldr	x8, [sp, #32]                   ; 8-byte Folded Reload
	add	x8, x8, #4
	str	x8, [sp, #32]                   ; 8-byte Folded Spill
	ldr	x8, [sp, #8]                    ; 8-byte Folded Reload
	str	x9, [sp, #24]                   ; 8-byte Folded Spill
	cmp	x9, x8
	b.gt	LBB5_18
LBB5_21:                                ; %L215
                                        ; =>This Loop Header: Depth=1
                                        ;     Child Loop BB5_23 Depth 2
	ldr	x8, [sp, #16]                   ; 8-byte Folded Reload
	cmp	x8, #3
	b.lt	LBB5_20
; %bb.22:                               ; %L227.preheader
                                        ;   in Loop: Header=BB5_21 Depth=1
	mov	x10, #0
	ldr	x9, [sp, #32]                   ; 8-byte Folded Reload
	mov	w11, #1
LBB5_23:                                ; %L227
                                        ;   Parent Loop BB5_21 Depth=1
                                        ; =>  This Inner Loop Header: Depth=2
	str	x0, [sp, #80]                   ; 8-byte Folded Spill
	add	w8, w10, #3
	and	x8, x8, #0x1ff
	cmp	x8, #1
	str	x10, [sp, #72]                  ; 8-byte Folded Spill
	str	x9, [sp, #64]                   ; 8-byte Folded Spill
	str	x11, [sp, #56]                  ; 8-byte Folded Spill
	b.ne	LBB5_25
; %bb.24:                               ;   in Loop: Header=BB5_23 Depth=2
	mov	x0, #-1
	b	LBB5_26
LBB5_25:                                ; %L236
                                        ;   in Loop: Header=BB5_23 Depth=2
	and	x8, x9, #0x3e
	sub	x0, x8, #1
LBB5_26:                                ; %L243
                                        ;   in Loop: Header=BB5_23 Depth=2
	ldr	x8, [x28, #64]
	str	x8, [sp, #40]                   ; 8-byte Folded Spill
	adr	x16, LBB5_29
	sub	sp, sp, #16
	str	x26, [sp]
	str	x16, [sp, #8]
	mov	x26, sp
	str	x19, [sp, #104]
	mov	x1, x19
	mov	w2, #1
	bl	_camlTry_find_miss_rare__scan_4_11_code
Ltmp6:
; %bb.27:                               ; %L314
                                        ;   in Loop: Header=BB5_23 Depth=2
	ldr	x19, [sp, #104]
	ldr	x8, [sp, #96]                   ; 8-byte Folded Reload
	add	x8, x8, x0
	sub	x0, x8, #1
	ldr	x26, [sp], #16
	ldr	x10, [sp, #72]                  ; 8-byte Folded Reload
LBB5_28:                                ; %L273
                                        ;   in Loop: Header=BB5_23 Depth=2
	ldr	x9, [sp, #64]                   ; 8-byte Folded Reload
	ldr	x11, [sp, #56]                  ; 8-byte Folded Reload
	add	x11, x11, #1
	add	x9, x9, #4
	add	x10, x10, #2
	ldr	x8, [sp, #48]                   ; 8-byte Folded Reload
	cmp	x11, x8
	b.le	LBB5_23
	b	LBB5_20
Ltmp7:                                  ; Block address taken
LBB5_29:                                ; %L313
                                        ;   in Loop: Header=BB5_23 Depth=2
                                        ; Label of block must be emitted
                                        ; implicit-def: $q0
                                        ; implicit-def: $q1
                                        ; implicit-def: $q2
                                        ; implicit-def: $q3
                                        ; implicit-def: $q4
                                        ; implicit-def: $q5
                                        ; implicit-def: $q6
                                        ; implicit-def: $q7
                                        ; implicit-def: $q8
                                        ; implicit-def: $q9
                                        ; implicit-def: $q10
                                        ; implicit-def: $q11
                                        ; implicit-def: $q12
                                        ; implicit-def: $q13
                                        ; implicit-def: $q14
                                        ; implicit-def: $q15
                                        ; implicit-def: $q16
                                        ; implicit-def: $q17
                                        ; implicit-def: $q18
                                        ; implicit-def: $q19
                                        ; implicit-def: $q20
                                        ; implicit-def: $q21
                                        ; implicit-def: $q22
                                        ; implicit-def: $q23
                                        ; implicit-def: $q24
                                        ; implicit-def: $q25
                                        ; implicit-def: $q26
                                        ; implicit-def: $q27
                                        ; implicit-def: $q28
                                        ; implicit-def: $q29
                                        ; implicit-def: $q30
                                        ; implicit-def: $q31
                                        ; implicit-def: $x1
                                        ; implicit-def: $x2
                                        ; implicit-def: $x3
                                        ; implicit-def: $x4
                                        ; implicit-def: $x5
                                        ; implicit-def: $x6
                                        ; implicit-def: $x7
                                        ; implicit-def: $x8
                                        ; implicit-def: $x9
                                        ; implicit-def: $x10
                                        ; implicit-def: $x11
                                        ; implicit-def: $x12
                                        ; implicit-def: $x13
                                        ; implicit-def: $x14
                                        ; implicit-def: $x19
                                        ; implicit-def: $x20
                                        ; implicit-def: $x21
                                        ; implicit-def: $x22
                                        ; implicit-def: $x23
                                        ; implicit-def: $x24
                                        ; implicit-def: $x25
Ltmp0:
	ldr	x9, [sp, #40]                   ; 8-byte Folded Reload
	str	x9, [x28, #64]
Lloh10:
	adrp	x9, _camlTry_find_miss_rare__Miss281@PAGE
Lloh11:
	add	x9, x9, _camlTry_find_miss_rare__Miss281@PAGEOFF
	cmp	x0, x9
	b.ne	LBB5_33
; %bb.30:                               ; %L264
                                        ;   in Loop: Header=BB5_23 Depth=2
	ldr	x8, [sp, #80]                   ; 8-byte Folded Reload
	ldr	x10, [sp, #72]                  ; 8-byte Folded Reload
	add	w8, w8, w10
	mov	w9, #2
	movk	w9, #32768, lsl #16
	add	w8, w8, w9
	and	x0, x8, #0x7fffffff
	ldr	x19, [sp, #88]
	b	LBB5_28
LBB5_31:                                ; %L305
	mov	w0, #38
	bl	_caml_llvm_call_realloc_stack
Ltmp8:
	ldurb	w8, [x19, #-8]
	cmp	w8, #254
	b.ne	LBB5_2
LBB5_32:                                ; %L187
Lloh12:
	adrp	x0, _camlTry_find_miss_rare__invalid605@PAGE
Lloh13:
	add	x0, x0, _camlTry_find_miss_rare__invalid605@PAGEOFF
	mov	x29, sp
	.cfi_remember_state
	.cfi_def_cfa_register w29
	ldr	x16, [x28, #104]
	mov	sp, x16
	bl	_caml_flambda2_invalid
	mov	sp, x29
	.cfi_restore_state
	brk	#0x1
LBB5_33:                                ; %L269
	mov	sp, x26
	ldp	x26, x16, [sp], #16
	br	x16
	.loh AdrpLdrGot	Lloh8, Lloh9
	.loh AdrpAdd	Lloh10, Lloh11
	.loh AdrpAdd	Lloh12, Lloh13
Lfunc_end0:
	.cfi_endproc
	.section	__TEXT,__gcc_except_tab
	.p2align	2, 0x0
GCC_except_table5:
Lexception0:
	.byte	255                             ; @LPStart Encoding = omit
	.byte	255                             ; @TType Encoding = omit
	.byte	1                               ; Call site Encoding = uleb128
	.uleb128 Lcst_end0-Lcst_begin0
Lcst_begin0:
	.uleb128 Lfunc_begin0-Lfunc_begin0      ; >> Call Site 1 <<
	.uleb128 Lfunc_end0-Lfunc_begin0        ;   Call between Lfunc_begin0 and Lfunc_end0
	.byte	0                               ;     has no landing pad
	.byte	0                               ;   On action: cleanup
Lcst_end0:
	.p2align	2, 0x0
                                        ; -- End function
	.section	__TEXT,__text,regular,pure_instructions
	.globl	_camlTry_find_miss_rare__entry  ; -- Begin function _camlTry_find_miss_rare__entry
	.p2align	2
_camlTry_find_miss_rare__entry:         ; @"\01_camlTry_find_miss_rare__entry"
	.cfi_startproc
; %bb.0:                                ; %L1
	sub	sp, sp, #16
	.cfi_def_cfa_offset 16
	str	x30, [sp, #8]                   ; 8-byte Folded Spill
	.cfi_offset w30, -16
	sub	sp, sp, #32
	.cfi_def_cfa_offset 48
Lloh14:
	adrp	x8, _caml_sys_argv@GOTPAGE
Lloh15:
	ldr	x8, [x8, _caml_sys_argv@GOTPAGEOFF]
	mov	w0, #1
	bl	_caml_c_call
Ltmp9:
	ldur	x8, [x0, #-8]
	tst	x8, #0xfffffffffff800
	b.eq	LBB6_3
; %bb.1:                                ; %L332
Lloh16:
	adrp	x8, _caml_sys_argv@GOTPAGE
Lloh17:
	ldr	x8, [x8, _caml_sys_argv@GOTPAGEOFF]
	mov	w0, #1
	bl	_caml_c_call
Ltmp10:
	ldur	x8, [x0, #-8]
	tst	x8, #0xfffffffffff800
	b.eq	LBB6_11
; %bb.2:                                ; %L342
	ldr	x0, [x0, #8]
	str	x0, [sp, #24]
Lloh18:
	adrp	x8, _caml_int_of_string@GOTPAGE
Lloh19:
	ldr	x8, [x8, _caml_int_of_string@GOTPAGEOFF]
	bl	_caml_c_call
Ltmp11:
	mov	x20, x0
	b	LBB6_4
LBB6_3:
	mov	w20, #3393
	movk	w20, #3, lsl #16
LBB6_4:                                 ; %L356
Lloh20:
	adrp	x0, _camlTry_find_miss_rare@PAGE+24
Lloh21:
	add	x0, x0, _camlTry_find_miss_rare@PAGEOFF+24
	mov	x1, x20
	mov	x29, sp
	.cfi_remember_state
	.cfi_def_cfa_register w29
	ldr	x16, [x28, #104]
	mov	sp, x16
	bl	_caml_initialize
	mov	sp, x29
	.cfi_restore_state
Lloh22:
	adrp	x8, _caml_sys_argv@GOTPAGE
Lloh23:
	ldr	x8, [x8, _caml_sys_argv@GOTPAGEOFF]
	mov	w0, #1
	bl	_caml_c_call
Ltmp12:
	ldur	x8, [x0, #-8]
	and	x8, x8, #0xfffffffffffc00
	cmp	x8, #2561
	b.lo	LBB6_7
; %bb.5:                                ; %L368
Lloh24:
	adrp	x8, _caml_sys_argv@GOTPAGE
Lloh25:
	ldr	x8, [x8, _caml_sys_argv@GOTPAGEOFF]
	mov	w0, #1
	bl	_caml_c_call
Ltmp13:
	ldur	x8, [x0, #-8]
	and	x8, x8, #0xfffffffffffc00
	cmp	x8, #2561
	b.lo	LBB6_11
; %bb.6:                                ; %L378
	ldr	x0, [x0, #16]
	str	x0, [sp, #24]
Lloh26:
	adrp	x8, _caml_int_of_string@GOTPAGE
Lloh27:
	ldr	x8, [x8, _caml_int_of_string@GOTPAGEOFF]
	bl	_caml_c_call
Ltmp14:
	mov	x19, x0
	b	LBB6_8
LBB6_7:
	mov	w19, #21
LBB6_8:                                 ; %L392
Lloh28:
	adrp	x0, _camlTry_find_miss_rare@PAGE+32
Lloh29:
	add	x0, x0, _camlTry_find_miss_rare@PAGEOFF+32
	mov	x1, x19
	mov	x29, sp
	.cfi_remember_state
	.cfi_def_cfa_register w29
	ldr	x16, [x28, #104]
	mov	sp, x16
	bl	_caml_initialize
	mov	sp, x29
	.cfi_restore_state
	mov	w0, #1
	mov	x29, sp
	.cfi_remember_state
	.cfi_def_cfa_register w29
	ldr	x16, [x28, #104]
	mov	sp, x16
	bl	_caml_fresh_oo_id
	mov	sp, x29
	.cfi_restore_state
	mov	x1, x0
Lloh30:
	adrp	x0, _camlTry_find_miss_rare__Miss281@PAGE+8
Lloh31:
	add	x0, x0, _camlTry_find_miss_rare__Miss281@PAGEOFF+8
	mov	x29, sp
	.cfi_remember_state
	.cfi_def_cfa_register w29
	ldr	x16, [x28, #104]
	mov	sp, x16
	bl	_caml_initialize
	mov	sp, x29
	.cfi_restore_state
	ldr	x8, [x28, #40]
	add	x8, x8, #376
	; InlineAsm Start
	mov	x9, sp
	; InlineAsm End
	cmp	x9, x8
	str	x20, [sp, #16]                  ; 8-byte Folded Spill
	b.lo	LBB6_10
LBB6_9:                                 ; %L416
	mov	x0, x19
	bl	_camlTry_find_miss_rare__black_box_int_0_7_code
Ltmp15:
	str	x0, [sp, #8]                    ; 8-byte Folded Spill
	ldr	x0, [sp, #16]                   ; 8-byte Folded Reload
	bl	_camlTry_find_miss_rare__black_box_int_0_7_code
Ltmp16:
	ldr	x1, [sp, #8]                    ; 8-byte Folded Reload
	bl	_camlTry_find_miss_rare__run_5_12_code
Ltmp17:
	str	x0, [sp, #16]                   ; 8-byte Folded Spill
Lloh32:
	adrp	x0, _camlStdlib__Printf__fn$5b$2fworkspace_root$2fprintf.ml$3a27$2c14$2d$2d48$5d_31@GOTPAGE
Lloh33:
	ldr	x0, [x0, _camlStdlib__Printf__fn$5b$2fworkspace_root$2fprintf.ml$3a27$2c14$2d$2d48$5d_31@GOTPAGEOFF]
Lloh34:
	adrp	x2, _camlTry_find_miss_rare__const_block66@PAGE
Lloh35:
	add	x2, x2, _camlTry_find_miss_rare__const_block66@PAGEOFF
	mov	w1, #1
	bl	_camlCamlinternalFormat__make_printf_120_401_code
Ltmp18:
	mov	x1, x0
	ldr	x8, [sp, #16]                   ; 8-byte Folded Reload
	and	x0, x8, #0x7fffffff
	ldr	x8, [x1]
	blr	x8
Ltmp19:
	mov	w0, #1
	ldr	x30, [sp, #40]                  ; 8-byte Folded Reload
	add	sp, sp, #48
	ret
LBB6_10:                                ; %L415
	mov	w0, #34
	bl	_caml_llvm_call_realloc_stack
Ltmp20:
	b	LBB6_9
LBB6_11:                                ; %L386
Lloh36:
	adrp	x8, _camlTry_find_miss_rare__block35@PAGE
Lloh37:
	add	x8, x8, _camlTry_find_miss_rare__block35@PAGEOFF
	mov	x0, x8
	mov	sp, x26
	ldp	x26, x16, [sp], #16
	br	x16
	.loh AdrpLdrGot	Lloh14, Lloh15
	.loh AdrpLdrGot	Lloh16, Lloh17
	.loh AdrpLdrGot	Lloh18, Lloh19
	.loh AdrpLdrGot	Lloh22, Lloh23
	.loh AdrpAdd	Lloh20, Lloh21
	.loh AdrpLdrGot	Lloh24, Lloh25
	.loh AdrpLdrGot	Lloh26, Lloh27
	.loh AdrpAdd	Lloh30, Lloh31
	.loh AdrpAdd	Lloh28, Lloh29
	.loh AdrpAdd	Lloh34, Lloh35
	.loh AdrpLdrGot	Lloh32, Lloh33
	.loh AdrpAdd	Lloh36, Lloh37
	.cfi_endproc
                                        ; -- End function
	.section	__DATA,__data
	.globl	_camlTry_find_miss_rare__gc_roots ; @"\01_camlTry_find_miss_rare__gc_roots"
	.p2align	3, 0x0
_camlTry_find_miss_rare__gc_roots:
	.quad	_camlTry_find_miss_rare
	.quad	_camlTry_find_miss_rare__Miss281
	.quad	0                               ; 0x0

	.globl	_header.camlTry_find_miss_rare  ; @"\01_header.camlTry_find_miss_rare"
	.p2align	3, 0x0
_header.camlTry_find_miss_rare:
	.quad	9984                            ; 0x2700

	.globl	_camlTry_find_miss_rare         ; @"\01_camlTry_find_miss_rare"
	.p2align	3, 0x0
_camlTry_find_miss_rare:
	.quad	_camlTry_find_miss_rare__black_box_int_7
	.quad	_camlTry_find_miss_rare__black_box_string_8
	.quad	_camlTry_find_miss_rare__black_box_9
	.quad	1                               ; 0x1
	.quad	1                               ; 0x1
	.quad	_camlTry_find_miss_rare__print_result_10
	.quad	_camlTry_find_miss_rare__Miss281
	.quad	_camlTry_find_miss_rare__scan_11
	.quad	_camlTry_find_miss_rare__run_12

	.globl	_header.camlTry_find_miss_rare__run_12 ; @"\01_header.camlTry_find_miss_rare__run_12"
	.p2align	3, 0x0
_header.camlTry_find_miss_rare__run_12:
	.quad	4087                            ; 0xff7

	.globl	_camlTry_find_miss_rare__run_12 ; @"\01_camlTry_find_miss_rare__run_12"
	.p2align	3, 0x0
_camlTry_find_miss_rare__run_12:
	.quad	_caml_curry2
	.quad	180143985094819847              ; 0x280000000000007
	.quad	_camlTry_find_miss_rare__run_5_12_code

	.globl	_header.camlTry_find_miss_rare__invalid605 ; @"\01_header.camlTry_find_miss_rare__invalid605"
	.p2align	3, 0x0
_header.camlTry_find_miss_rare__invalid605:
	.quad	16380                           ; 0x3ffc

	.globl	_camlTry_find_miss_rare__invalid605 ; @"\01_camlTry_find_miss_rare__invalid605"
	.p2align	3, 0x0
_camlTry_find_miss_rare__invalid605:
	.ascii	"(Defining_expr_of_let (bound_pattern prim/367N)\n (defining_expr ((Unbox_float apply_result/357N) array.ml:87,5--27)))"
	.space	2
	.byte	2                               ; 0x2

	.globl	_header.camlTry_find_miss_rare__scan_11 ; @"\01_header.camlTry_find_miss_rare__scan_11"
	.p2align	3, 0x0
_header.camlTry_find_miss_rare__scan_11:
	.quad	4087                            ; 0xff7

	.globl	_camlTry_find_miss_rare__scan_11 ; @"\01_camlTry_find_miss_rare__scan_11"
	.p2align	3, 0x0
_camlTry_find_miss_rare__scan_11:
	.quad	_caml_curry3
	.quad	252201579132747783              ; 0x380000000000007
	.quad	_camlTry_find_miss_rare__scan_4_11_code

	.globl	_header.camlTry_find_miss_rare__Miss281 ; @"\01_header.camlTry_find_miss_rare__Miss281"
	.p2align	3, 0x0
_header.camlTry_find_miss_rare__Miss281:
	.quad	3064                            ; 0xbf8

	.globl	_camlTry_find_miss_rare__Miss281 ; @"\01_camlTry_find_miss_rare__Miss281"
	.p2align	3, 0x0
_camlTry_find_miss_rare__Miss281:
	.quad	_camlTry_find_miss_rare__immstring74
	.quad	1                               ; 0x1

	.globl	_header.camlTry_find_miss_rare__print_result_10 ; @"\01_header.camlTry_find_miss_rare__print_result_10"
	.p2align	3, 0x0
_header.camlTry_find_miss_rare__print_result_10:
	.quad	3063                            ; 0xbf7

	.globl	_camlTry_find_miss_rare__print_result_10 ; @"\01_camlTry_find_miss_rare__print_result_10"
	.p2align	3, 0x0
_camlTry_find_miss_rare__print_result_10:
	.quad	_camlTry_find_miss_rare__print_result_3_10_code
	.quad	108086391056891909              ; 0x180000000000005

	.globl	_header.camlTry_find_miss_rare__black_box_9 ; @"\01_header.camlTry_find_miss_rare__black_box_9"
	.p2align	3, 0x0
_header.camlTry_find_miss_rare__black_box_9:
	.quad	3063                            ; 0xbf7

	.globl	_camlTry_find_miss_rare__black_box_9 ; @"\01_camlTry_find_miss_rare__black_box_9"
	.p2align	3, 0x0
_camlTry_find_miss_rare__black_box_9:
	.quad	_camlTry_find_miss_rare__black_box_2_9_code
	.quad	108086391056891909              ; 0x180000000000005

	.globl	_header.camlTry_find_miss_rare__black_box_string_8 ; @"\01_header.camlTry_find_miss_rare__black_box_string_8"
	.p2align	3, 0x0
_header.camlTry_find_miss_rare__black_box_string_8:
	.quad	3063                            ; 0xbf7

	.globl	_camlTry_find_miss_rare__black_box_string_8 ; @"\01_camlTry_find_miss_rare__black_box_string_8"
	.p2align	3, 0x0
_camlTry_find_miss_rare__black_box_string_8:
	.quad	_camlTry_find_miss_rare__black_box_string_1_8_code
	.quad	108086391056891909              ; 0x180000000000005

	.globl	_header.camlTry_find_miss_rare__black_box_int_7 ; @"\01_header.camlTry_find_miss_rare__black_box_int_7"
	.p2align	3, 0x0
_header.camlTry_find_miss_rare__black_box_int_7:
	.quad	3063                            ; 0xbf7

	.globl	_camlTry_find_miss_rare__black_box_int_7 ; @"\01_camlTry_find_miss_rare__black_box_int_7"
	.p2align	3, 0x0
_camlTry_find_miss_rare__black_box_int_7:
	.quad	_camlTry_find_miss_rare__black_box_int_0_7_code
	.quad	108086391056891909              ; 0x180000000000005

	.globl	_header.camlTry_find_miss_rare__block35 ; @"\01_header.camlTry_find_miss_rare__block35"
	.p2align	3, 0x0
_header.camlTry_find_miss_rare__block35:
	.quad	2816                            ; 0xb00

	.globl	_camlTry_find_miss_rare__block35 ; @"\01_camlTry_find_miss_rare__block35"
	.p2align	3, 0x0
_camlTry_find_miss_rare__block35:
	.quad	_caml_exn_Invalid_argument
	.quad	_camlTry_find_miss_rare__string33

	.globl	_header.camlTry_find_miss_rare__string33 ; @"\01_header.camlTry_find_miss_rare__string33"
	.p2align	3, 0x0
_header.camlTry_find_miss_rare__string33:
	.quad	4092                            ; 0xffc

	.globl	_camlTry_find_miss_rare__string33 ; @"\01_camlTry_find_miss_rare__string33"
	.p2align	3, 0x0
_camlTry_find_miss_rare__string33:
	.ascii	"index out of bounds"
	.space	4
	.byte	4                               ; 0x4

	.globl	_header.camlTry_find_miss_rare__immstring74 ; @"\01_header.camlTry_find_miss_rare__immstring74"
	.p2align	3, 0x0
_header.camlTry_find_miss_rare__immstring74:
	.quad	4092                            ; 0xffc

	.globl	_camlTry_find_miss_rare__immstring74 ; @"\01_camlTry_find_miss_rare__immstring74"
	.p2align	3, 0x0
_camlTry_find_miss_rare__immstring74:
	.ascii	"Try_find_miss_rare.Miss"
	.byte	0                               ; 0x0

	.globl	_header.camlTry_find_miss_rare__const_block66 ; @"\01_header.camlTry_find_miss_rare__const_block66"
	.p2align	3, 0x0
_header.camlTry_find_miss_rare__const_block66:
	.quad	4868                            ; 0x1304

	.globl	_camlTry_find_miss_rare__const_block66 ; @"\01_camlTry_find_miss_rare__const_block66"
	.p2align	3, 0x0
_camlTry_find_miss_rare__const_block66:
	.quad	1                               ; 0x1
	.quad	1                               ; 0x1
	.quad	1                               ; 0x1
	.quad	_camlTry_find_miss_rare__const_block64

	.globl	_header.camlTry_find_miss_rare__const_block64 ; @"\01_header.camlTry_find_miss_rare__const_block64"
	.p2align	3, 0x0
_header.camlTry_find_miss_rare__const_block64:
	.quad	2828                            ; 0xb0c

	.globl	_camlTry_find_miss_rare__const_block64 ; @"\01_camlTry_find_miss_rare__const_block64"
	.p2align	3, 0x0
_camlTry_find_miss_rare__const_block64:
	.quad	21                              ; 0x15
	.quad	_camlTry_find_miss_rare__const_block62

	.globl	_header.camlTry_find_miss_rare__const_block62 ; @"\01_header.camlTry_find_miss_rare__const_block62"
	.p2align	3, 0x0
_header.camlTry_find_miss_rare__const_block62:
	.quad	1802                            ; 0x70a

	.globl	_camlTry_find_miss_rare__const_block62 ; @"\01_camlTry_find_miss_rare__const_block62"
	.p2align	3, 0x0
_camlTry_find_miss_rare__const_block62:
	.quad	1                               ; 0x1

	.quad	0
	.globl	_camlTry_find_miss_rare__data_end
_camlTry_find_miss_rare__data_end:
	.quad	0
	.p2align	3, 0x0
	.globl	_camlTry_find_miss_rare__frametable
_camlTry_find_miss_rare__frametable:
	.quad	19
Ltmp21:
	.long	Ltmp1-Ltmp21
	.short	33
	.short	0
	.p2align	2, 0x0
Ltmp23:
	.long	Ltmp22-Ltmp23
	.p2align	3, 0x0
Ltmp24:
	.long	Ltmp2-Ltmp24
	.short	32
	.short	0
	.p2align	3, 0x0
Ltmp25:
	.long	Ltmp3-Ltmp25
	.short	49
	.short	3
	.short	24
	.short	16
	.short	8
	.p2align	2, 0x0
Ltmp27:
	.long	Ltmp26-Ltmp27
	.p2align	3, 0x0
Ltmp28:
	.long	Ltmp4-Ltmp28
	.short	51
	.short	2
	.short	3
	.short	19
	.byte	1
	.byte	0
	.p2align	2, 0x0
Ltmp30:
	.long	Ltmp29-Ltmp30
	.p2align	3, 0x0
Ltmp31:
	.long	Ltmp5-Ltmp31
	.short	113
	.short	1
	.short	88
	.p2align	2, 0x0
Ltmp33:
	.long	Ltmp32-Ltmp33
	.p2align	3, 0x0
Ltmp34:
	.long	Ltmp6-Ltmp34
	.short	129
	.short	1
	.short	104
	.p2align	2, 0x0
Ltmp36:
	.long	Ltmp35-Ltmp36
	.p2align	3, 0x0
Ltmp37:
	.long	Ltmp8-Ltmp37
	.short	112
	.short	2
	.short	33
	.short	88
	.p2align	3, 0x0
Ltmp38:
	.long	Ltmp9-Ltmp38
	.short	49
	.short	0
	.p2align	2, 0x0
Ltmp40:
	.long	Ltmp39-Ltmp40
	.p2align	3, 0x0
Ltmp41:
	.long	Ltmp10-Ltmp41
	.short	49
	.short	0
	.p2align	2, 0x0
Ltmp43:
	.long	Ltmp42-Ltmp43
	.p2align	3, 0x0
Ltmp44:
	.long	Ltmp11-Ltmp44
	.short	49
	.short	1
	.short	24
	.p2align	2, 0x0
Ltmp46:
	.long	Ltmp45-Ltmp46
	.p2align	3, 0x0
Ltmp47:
	.long	Ltmp12-Ltmp47
	.short	49
	.short	0
	.p2align	2, 0x0
Ltmp49:
	.long	Ltmp48-Ltmp49
	.p2align	3, 0x0
Ltmp50:
	.long	Ltmp13-Ltmp50
	.short	49
	.short	0
	.p2align	2, 0x0
Ltmp52:
	.long	Ltmp51-Ltmp52
	.p2align	3, 0x0
Ltmp53:
	.long	Ltmp14-Ltmp53
	.short	49
	.short	1
	.short	24
	.p2align	2, 0x0
Ltmp55:
	.long	Ltmp54-Ltmp55
	.p2align	3, 0x0
Ltmp56:
	.long	Ltmp15-Ltmp56
	.short	49
	.short	0
	.p2align	2, 0x0
Ltmp58:
	.long	Ltmp57-Ltmp58
	.p2align	3, 0x0
Ltmp59:
	.long	Ltmp16-Ltmp59
	.short	49
	.short	0
	.p2align	2, 0x0
Ltmp61:
	.long	Ltmp60-Ltmp61
	.p2align	3, 0x0
Ltmp62:
	.long	Ltmp17-Ltmp62
	.short	49
	.short	0
	.p2align	2, 0x0
Ltmp64:
	.long	Ltmp63-Ltmp64
	.p2align	3, 0x0
Ltmp65:
	.long	Ltmp18-Ltmp65
	.short	49
	.short	0
	.p2align	2, 0x0
Ltmp67:
	.long	Ltmp66-Ltmp67
	.p2align	3, 0x0
Ltmp68:
	.long	Ltmp19-Ltmp68
	.short	49
	.short	0
	.p2align	2, 0x0
Ltmp70:
	.long	Ltmp69-Ltmp70
	.p2align	3, 0x0
Ltmp71:
	.long	Ltmp20-Ltmp71
	.short	48
	.short	0
	.p2align	3, 0x0
	.p2align	2, 0x0
Ltmp22:
Ltmp80:
	.long	(Ltmp72-Ltmp80)+1
	.long	14158328
Ltmp81:
	.long	(Ltmp74-Ltmp81)+1
	.long	17847640
Ltmp82:
	.long	(Ltmp76-Ltmp82)+1
	.long	19940632
Ltmp83:
	.long	(Ltmp78-Ltmp83)+0
	.long	5789176
	.p2align	2, 0x0
Ltmp72:
	.long	Ltmp73-Ltmp72
	.ascii	"Stdlib__Printf.kfprintf"
	.byte	0
Ltmp73:
	.ascii	"printf.ml"
	.byte	0
	.p2align	2, 0x0
Ltmp74:
	.long	Ltmp75-Ltmp74
	.ascii	"Stdlib__Printf.fprintf"
	.byte	0
Ltmp75:
	.ascii	"printf.ml"
	.byte	0
	.p2align	2, 0x0
Ltmp76:
	.long	Ltmp77-Ltmp76
	.ascii	"Stdlib__Printf.printf"
	.byte	0
Ltmp77:
	.ascii	"printf.ml"
	.byte	0
	.p2align	2, 0x0
Ltmp78:
	.long	Ltmp79-Ltmp78
	.ascii	"Try_find_miss_rare.print_result"
	.byte	0
Ltmp79:
	.ascii	"try_find_miss_rare.ml"
	.byte	0
	.p2align	2, 0x0
Ltmp26:
Ltmp86:
	.long	(Ltmp84-Ltmp86)+0
	.long	9447712
	.p2align	2, 0x0
Ltmp84:
	.long	Ltmp85-Ltmp84
	.ascii	"Try_find_miss_rare.scan"
	.byte	0
Ltmp85:
	.ascii	"try_find_miss_rare.ml"
	.byte	0
	.p2align	2, 0x0
Ltmp29:
Ltmp89:
	.long	(Ltmp87-Ltmp89)+0
	.long	9447664
	.p2align	2, 0x0
Ltmp87:
	.long	Ltmp88-Ltmp87
	.ascii	"Try_find_miss_rare.scan"
	.byte	0
Ltmp88:
	.ascii	"try_find_miss_rare.ml"
	.byte	0
	.p2align	2, 0x0
Ltmp32:
Ltmp94:
	.long	(Ltmp90-Ltmp94)+1
	.long	44578008
Ltmp95:
	.long	(Ltmp92-Ltmp95)+0
	.long	11544896
	.p2align	2, 0x0
Ltmp90:
	.long	Ltmp91-Ltmp90
	.ascii	"Stdlib__Array.init"
	.byte	0
Ltmp91:
	.ascii	"array.ml"
	.byte	0
	.p2align	2, 0x0
Ltmp92:
	.long	Ltmp93-Ltmp92
	.ascii	"Try_find_miss_rare.run"
	.byte	0
Ltmp93:
	.ascii	"try_find_miss_rare.ml"
	.byte	0
	.p2align	2, 0x0
Ltmp35:
Ltmp98:
	.long	(Ltmp96-Ltmp98)+0
	.long	14180640
	.p2align	2, 0x0
Ltmp96:
	.long	Ltmp97-Ltmp96
	.ascii	"Try_find_miss_rare.run"
	.byte	0
Ltmp97:
	.ascii	"try_find_miss_rare.ml"
	.byte	0
	.p2align	2, 0x0
Ltmp39:
Ltmp101:
	.long	(Ltmp99-Ltmp101)+0
	.long	3164368
	.p2align	2, 0x0
Ltmp99:
	.long	Ltmp100-Ltmp99
	.ascii	"Try_find_miss_rare.n"
	.byte	0
Ltmp100:
	.ascii	"try_find_miss_rare.ml"
	.byte	0
	.p2align	2, 0x0
Ltmp42:
Ltmp104:
	.long	(Ltmp102-Ltmp104)+0
	.long	3197392
	.p2align	2, 0x0
Ltmp102:
	.long	Ltmp103-Ltmp102
	.ascii	"Try_find_miss_rare.n"
	.byte	0
Ltmp103:
	.ascii	"try_find_miss_rare.ml"
	.byte	0
	.p2align	2, 0x0
Ltmp45:
Ltmp107:
	.long	(Ltmp105-Ltmp107)+0
	.long	3183088
	.p2align	2, 0x0
Ltmp105:
	.long	Ltmp106-Ltmp105
	.ascii	"Try_find_miss_rare.n"
	.byte	0
Ltmp106:
	.ascii	"try_find_miss_rare.ml"
	.byte	0
	.p2align	2, 0x0
Ltmp48:
Ltmp110:
	.long	(Ltmp108-Ltmp110)+0
	.long	4737232
	.p2align	2, 0x0
Ltmp108:
	.long	Ltmp109-Ltmp108
	.ascii	"Try_find_miss_rare.reps"
	.byte	0
Ltmp109:
	.ascii	"try_find_miss_rare.ml"
	.byte	0
	.p2align	2, 0x0
Ltmp51:
Ltmp113:
	.long	(Ltmp111-Ltmp113)+0
	.long	4770256
	.p2align	2, 0x0
Ltmp111:
	.long	Ltmp112-Ltmp111
	.ascii	"Try_find_miss_rare.reps"
	.byte	0
Ltmp112:
	.ascii	"try_find_miss_rare.ml"
	.byte	0
	.p2align	2, 0x0
Ltmp54:
Ltmp116:
	.long	(Ltmp114-Ltmp116)+0
	.long	4755952
	.p2align	2, 0x0
Ltmp114:
	.long	Ltmp115-Ltmp114
	.ascii	"Try_find_miss_rare.reps"
	.byte	0
Ltmp115:
	.ascii	"try_find_miss_rare.ml"
	.byte	0
	.p2align	2, 0x0
Ltmp57:
Ltmp119:
	.long	(Ltmp117-Ltmp119)+0
	.long	17348104
	.p2align	2, 0x0
Ltmp117:
	.long	Ltmp118-Ltmp117
	.ascii	"Try_find_miss_rare"
	.byte	0
Ltmp118:
	.ascii	"try_find_miss_rare.ml"
	.byte	0
	.p2align	2, 0x0
Ltmp60:
Ltmp122:
	.long	(Ltmp120-Ltmp122)+0
	.long	17329504
	.p2align	2, 0x0
Ltmp120:
	.long	Ltmp121-Ltmp120
	.ascii	"Try_find_miss_rare"
	.byte	0
Ltmp121:
	.ascii	"try_find_miss_rare.ml"
	.byte	0
	.p2align	2, 0x0
Ltmp63:
Ltmp125:
	.long	(Ltmp123-Ltmp125)+0
	.long	17324560
	.p2align	2, 0x0
Ltmp123:
	.long	Ltmp124-Ltmp123
	.ascii	"Try_find_miss_rare"
	.byte	0
Ltmp124:
	.ascii	"try_find_miss_rare.ml"
	.byte	0
	.p2align	2, 0x0
Ltmp66:
Ltmp136:
	.long	(Ltmp126-Ltmp136)+1
	.long	14158328
Ltmp137:
	.long	(Ltmp128-Ltmp137)+1
	.long	17847640
Ltmp138:
	.long	(Ltmp130-Ltmp138)+1
	.long	19940632
Ltmp139:
	.long	(Ltmp132-Ltmp139)+1
	.long	5789176
Ltmp140:
	.long	(Ltmp134-Ltmp140)+0
	.long	17311248
	.p2align	2, 0x0
Ltmp126:
	.long	Ltmp127-Ltmp126
	.ascii	"Stdlib__Printf.kfprintf"
	.byte	0
Ltmp127:
	.ascii	"printf.ml"
	.byte	0
	.p2align	2, 0x0
Ltmp128:
	.long	Ltmp129-Ltmp128
	.ascii	"Stdlib__Printf.fprintf"
	.byte	0
Ltmp129:
	.ascii	"printf.ml"
	.byte	0
	.p2align	2, 0x0
Ltmp130:
	.long	Ltmp131-Ltmp130
	.ascii	"Stdlib__Printf.printf"
	.byte	0
Ltmp131:
	.ascii	"printf.ml"
	.byte	0
	.p2align	2, 0x0
Ltmp132:
	.long	Ltmp133-Ltmp132
	.ascii	"Try_find_miss_rare.print_result"
	.byte	0
Ltmp133:
	.ascii	"try_find_miss_rare.ml"
	.byte	0
	.p2align	2, 0x0
Ltmp134:
	.long	Ltmp135-Ltmp134
	.ascii	"Try_find_miss_rare"
	.byte	0
Ltmp135:
	.ascii	"try_find_miss_rare.ml"
	.byte	0
	.p2align	2, 0x0
Ltmp69:
Ltmp145:
	.long	(Ltmp141-Ltmp145)+1
	.long	5789176
Ltmp146:
	.long	(Ltmp143-Ltmp146)+0
	.long	17311248
	.p2align	2, 0x0
Ltmp141:
	.long	Ltmp142-Ltmp141
	.ascii	"Try_find_miss_rare.print_result"
	.byte	0
Ltmp142:
	.ascii	"try_find_miss_rare.ml"
	.byte	0
	.p2align	2, 0x0
Ltmp143:
	.long	Ltmp144-Ltmp143
	.ascii	"Try_find_miss_rare"
	.byte	0
Ltmp144:
	.ascii	"try_find_miss_rare.ml"
	.byte	0

	.section	__TEXT,__text,regular,pure_instructions
	.globl	_camlTry_find_miss_rare__code_end
_camlTry_find_miss_rare__code_end:
.subsections_via_symbols
