	.section	__TEXT,__text,regular,pure_instructions
	.build_version macos, 16, 0
	.globl	_camlString_tree_first_byte_diff__code_begin
_camlString_tree_first_byte_diff__code_begin:
	.section	__DATA,__data
	.globl	_camlString_tree_first_byte_diff__data_begin
_camlString_tree_first_byte_diff__data_begin:
	.section	__TEXT,__text,regular,pure_instructions
	.globl	_camlString_tree_first_byte_diff__black_box_int_0_8_code ; -- Begin function _camlString_tree_first_byte_diff__black_box_int_0_8_code
	.p2align	2
_camlString_tree_first_byte_diff__black_box_int_0_8_code: ; @"\01_camlString_tree_first_byte_diff__black_box_int_0_8_code"
	.cfi_startproc
; %bb.0:                                ; %L1
	; InlineAsm Start
	; InlineAsm End
	ret
	.cfi_endproc
                                        ; -- End function
	.globl	_camlString_tree_first_byte_diff__black_box_string_1_9_code ; -- Begin function _camlString_tree_first_byte_diff__black_box_string_1_9_code
	.p2align	2
_camlString_tree_first_byte_diff__black_box_string_1_9_code: ; @"\01_camlString_tree_first_byte_diff__black_box_string_1_9_code"
	.cfi_startproc
; %bb.0:                                ; %L1
	; InlineAsm Start
	; InlineAsm End
	ret
	.cfi_endproc
                                        ; -- End function
	.globl	_camlString_tree_first_byte_diff__black_box_2_10_code ; -- Begin function _camlString_tree_first_byte_diff__black_box_2_10_code
	.p2align	2
_camlString_tree_first_byte_diff__black_box_2_10_code: ; @"\01_camlString_tree_first_byte_diff__black_box_2_10_code"
	.cfi_startproc
; %bb.0:                                ; %L1
	; InlineAsm Start
	; InlineAsm End
	ret
	.cfi_endproc
                                        ; -- End function
	.globl	_camlString_tree_first_byte_diff__print_result_3_11_code ; -- Begin function _camlString_tree_first_byte_diff__print_result_3_11_code
	.p2align	2
_camlString_tree_first_byte_diff__print_result_3_11_code: ; @"\01_camlString_tree_first_byte_diff__print_result_3_11_code"
	.cfi_startproc
; %bb.0:                                ; %L1
	sub	sp, sp, #16
	.cfi_def_cfa_offset 16
	str	x30, [sp, #8]                   ; 8-byte Folded Spill
	.cfi_offset w30, -16
	sub	sp, sp, #16
	.cfi_def_cfa_offset 32
	str	x0, [sp, #8]                    ; 8-byte Folded Spill
	ldr	x8, [x28, #40]
	add	x8, x8, #376
	; InlineAsm Start
	mov	x9, sp
	; InlineAsm End
	cmp	x9, x8
	b.lo	LBB3_2
LBB3_1:                                 ; %L117
Lloh0:
	adrp	x0, _camlStdlib__Printf__fn$5b$2fworkspace_root$2fprintf.ml$3a27$2c14$2d$2d48$5d_31@GOTPAGE
Lloh1:
	ldr	x0, [x0, _camlStdlib__Printf__fn$5b$2fworkspace_root$2fprintf.ml$3a27$2c14$2d$2d48$5d_31@GOTPAGEOFF]
Lloh2:
	adrp	x2, _camlString_tree_first_byte_diff__const_block66@PAGE
Lloh3:
	add	x2, x2, _camlString_tree_first_byte_diff__const_block66@PAGEOFF
	mov	w1, #1
	bl	_camlCamlinternalFormat__make_printf_120_401_code
Ltmp0:
	mov	x1, x0
	ldr	x8, [sp, #8]                    ; 8-byte Folded Reload
	and	x0, x8, #0x7fffffff
	ldr	x2, [x1]
	ldr	x30, [sp, #24]                  ; 8-byte Folded Reload
	add	sp, sp, #32
	br	x2
LBB3_2:                                 ; %L116
	mov	w0, #34
	bl	_caml_llvm_call_realloc_stack
Ltmp1:
	b	LBB3_1
	.loh AdrpAdd	Lloh2, Lloh3
	.loh AdrpLdrGot	Lloh0, Lloh1
	.cfi_endproc
                                        ; -- End function
	.globl	_camlString_tree_first_byte_diff__key_4_12_code ; -- Begin function _camlString_tree_first_byte_diff__key_4_12_code
	.p2align	2
_camlString_tree_first_byte_diff__key_4_12_code: ; @"\01_camlString_tree_first_byte_diff__key_4_12_code"
	.cfi_startproc
; %bb.0:                                ; %L1
	sub	sp, sp, #16
	.cfi_def_cfa_offset 16
	str	x30, [sp, #8]                   ; 8-byte Folded Spill
	.cfi_offset w30, -16
	sub	sp, sp, #32
	.cfi_def_cfa_offset 48
	mov	x20, x0
	str	x0, [sp, #24]
Lloh4:
	adrp	x8, _caml_format_int@GOTPAGE
Lloh5:
	ldr	x8, [x8, _caml_format_int@GOTPAGEOFF]
Lloh6:
	adrp	x0, _camlStdlib__immstring191@GOTPAGE
Lloh7:
	ldr	x0, [x0, _camlStdlib__immstring191@GOTPAGEOFF]
	mov	x1, x20
	bl	_caml_c_call
Ltmp2:
	ldur	x8, [x0, #-8]
	lsr	x8, x8, #7
	and	x8, x8, #0x1fffffffffff8
	sub	x8, x8, #1
	ldrb	w9, [x0, x8]
	sub	x8, x8, x9
	lsl	x9, x8, #1
	mov	w24, #1
	mov	w21, #1
	bfi	x21, x8, #1, #63
	add	x9, x9, #29
	str	x0, [sp, #24]
	str	x9, [sp, #16]
Lloh8:
	adrp	x19, _caml_create_bytes@GOTPAGE
Lloh9:
	ldr	x19, [x19, _caml_create_bytes@GOTPAGEOFF]
	mov	x8, x19
	mov	x0, x9
	bl	_caml_c_call
Ltmp3:
	mov	x22, x0
	ldr	x23, [sp, #24]
Lloh10:
	adrp	x0, _camlString_tree_first_byte_diff__immstring83@PAGE
Lloh11:
	add	x0, x0, _camlString_tree_first_byte_diff__immstring83@PAGEOFF
	mov	w1, #1
	mov	x2, x22
	mov	w3, #1
	mov	w4, #29
	mov	x29, sp
	.cfi_remember_state
	.cfi_def_cfa_register w29
	ldr	x16, [x28, #104]
	mov	sp, x16
	bl	_caml_blit_string
	mov	sp, x29
	.cfi_restore_state
	mov	x0, x23
	mov	w1, #1
	mov	x2, x22
	mov	w3, #29
	mov	x4, x21
	mov	x29, sp
	.cfi_remember_state
	.cfi_def_cfa_register w29
	ldr	x16, [x28, #104]
	mov	sp, x16
	bl	_caml_blit_string
	mov	sp, x29
	.cfi_restore_state
	mov	w8, #51
	and	x8, x20, x8
	add	x20, x8, #130
	str	x22, [sp, #24]
	mov	x8, x19
	mov	w0, #3
	bl	_caml_c_call
Ltmp4:
	mov	x21, x0
	ldr	x22, [sp, #24]
	mov	w1, #1
	mov	w2, #3
	mov	x3, x20
	mov	x29, sp
	.cfi_remember_state
	.cfi_def_cfa_register w29
	ldr	x16, [x28, #104]
	mov	sp, x16
	bl	_caml_fill_bytes
	mov	sp, x29
	.cfi_restore_state
	ldur	x8, [x21, #-8]
	lsr	x8, x8, #7
	and	x8, x8, #0x1fffffffffff8
	sub	x8, x8, #1
	ldrb	w9, [x21, x8]
	sub	x8, x8, x9
	mov	w20, #1
	bfi	x20, x8, #1, #63
	ldur	x9, [x22, #-8]
	lsr	x9, x9, #7
	and	x9, x9, #0x1fffffffffff8
	sub	x9, x9, #1
	ldrb	w10, [x22, x9]
	lsl	x8, x8, #1
	sub	x9, x9, x10
	orr	x22, x24, x9, lsl #1
	add	x0, x8, x22
	str	x21, [sp, #16]
	str	x0, [sp, #8]
	mov	x8, x19
	bl	_caml_c_call
Ltmp5:
	mov	x19, x0
	ldr	x21, [sp, #24]
	ldr	x0, [sp, #16]
	mov	w1, #1
	mov	x2, x19
	mov	w3, #1
	mov	x4, x20
	mov	x29, sp
	.cfi_remember_state
	.cfi_def_cfa_register w29
	ldr	x16, [x28, #104]
	mov	sp, x16
	bl	_caml_blit_string
	mov	sp, x29
	.cfi_restore_state
	mov	x0, x21
	mov	w1, #1
	mov	x2, x19
	mov	x3, x20
	mov	x4, x22
	mov	x29, sp
	.cfi_remember_state
	.cfi_def_cfa_register w29
	ldr	x16, [x28, #104]
	mov	sp, x16
	bl	_caml_blit_string
	mov	sp, x29
	.cfi_restore_state
	mov	x0, x19
	ldr	x30, [sp, #40]                  ; 8-byte Folded Reload
	add	sp, sp, #48
	ret
	.loh AdrpAdd	Lloh10, Lloh11
	.loh AdrpLdrGot	Lloh8, Lloh9
	.loh AdrpLdrGot	Lloh6, Lloh7
	.loh AdrpLdrGot	Lloh4, Lloh5
	.cfi_endproc
                                        ; -- End function
	.globl	_camlString_tree_first_byte_diff__build_5_13_code ; -- Begin function _camlString_tree_first_byte_diff__build_5_13_code
	.p2align	2
_camlString_tree_first_byte_diff__build_5_13_code: ; @"\01_camlString_tree_first_byte_diff__build_5_13_code"
	.cfi_startproc
; %bb.0:                                ; %L1
	cmp	x0, x1
	b.le	LBB5_2
; %bb.1:
	mov	w8, #1
	mov	x0, x8
	ret
LBB5_2:                                 ; %L182
	sub	sp, sp, #16
	.cfi_def_cfa_offset 16
	str	x30, [sp, #8]                   ; 8-byte Folded Spill
	.cfi_offset w30, -16
	sub	sp, sp, #32
	.cfi_def_cfa_offset 48
	mov	x10, x0
	ldr	x8, [x28, #40]
	add	x8, x8, #376
	; InlineAsm Start
	mov	x9, sp
	; InlineAsm End
	cmp	x9, x8
	b.lo	LBB5_5
LBB5_3:                                 ; %L200
	add	x8, x10, x1
	sub	x8, x8, #1
	lsr	x9, x8, #63
	add	x8, x9, x8, asr #1
	orr	x8, x8, #0x1
	str	x8, [sp, #8]                    ; 8-byte Folded Spill
	add	x0, x8, #2
	str	x10, [sp]                       ; 8-byte Folded Spill
	bl	_camlString_tree_first_byte_diff__build_5_13_code
Ltmp6:
	str	x0, [sp, #24]
	ldr	x0, [sp, #8]                    ; 8-byte Folded Reload
	bl	_camlString_tree_first_byte_diff__key_4_12_code
Ltmp7:
	ldr	x8, [sp, #8]                    ; 8-byte Folded Reload
	sub	x1, x8, #2
	str	x0, [sp, #16]
	ldr	x0, [sp]                        ; 8-byte Folded Reload
	bl	_camlString_tree_first_byte_diff__build_5_13_code
Ltmp8:
	ldr	x9, [sp, #24]
	ldr	x10, [sp, #16]
	sub	x27, x27, #40
	ldr	x8, [x28]
	cmp	x8, x27
	b.hi	LBB5_6
LBB5_4:                                 ; %L202
	mov	x8, x27
	str	x0, [x8, #8]!
	mov	w11, #4096
	str	x11, [x27]
	str	x10, [x27, #16]
	ldr	x10, [sp, #8]                   ; 8-byte Folded Reload
	str	x10, [x27, #24]
	str	x9, [x27, #32]
	ldr	x30, [sp, #40]                  ; 8-byte Folded Reload
	add	sp, sp, #48
	mov	x0, x8
	ret
LBB5_5:                                 ; %L199
	mov	w0, #34
	bl	_caml_llvm_call_realloc_stack
Ltmp9:
	b	LBB5_3
LBB5_6:                                 ; %L201
	bl	_caml_call_gc
Ltmp10:
	b	LBB5_4
	.cfi_endproc
                                        ; -- End function
	.globl	_camlString_tree_first_byte_diff__find_6_14_code ; -- Begin function _camlString_tree_first_byte_diff__find_6_14_code
	.p2align	2
_camlString_tree_first_byte_diff__find_6_14_code: ; @"\01_camlString_tree_first_byte_diff__find_6_14_code"
	.cfi_startproc
; %bb.0:                                ; %L1
	sub	sp, sp, #16
	.cfi_def_cfa_offset 16
	str	x30, [sp, #8]                   ; 8-byte Folded Spill
	.cfi_offset w30, -16
	mov	x19, x1
	tbnz	w19, #0, LBB6_15
; %bb.1:                                ; %L213.preheader
	mov	x20, x0
	ldr	x1, [x19, #8]
	cmp	x1, x0
	b.eq	LBB6_16
; %bb.2:
	mov	w21, #3
	mov	w22, #8
	mov	x23, #-1
	b	LBB6_5
LBB6_3:                                 ; %L227
                                        ;   in Loop: Header=BB6_5 Depth=1
	ldr	x19, [x19, #24]
	tbnz	w19, #0, LBB6_15
LBB6_4:                                 ; %L213.backedge
                                        ;   in Loop: Header=BB6_5 Depth=1
	ldr	x1, [x19, #8]
	cmp	x1, x20
	b.eq	LBB6_16
LBB6_5:                                 ; %L237
                                        ; =>This Inner Loop Header: Depth=1
	ldur	x8, [x20, #-8]
	lsr	x8, x8, #7
	and	x8, x8, #0x1fffffffffff8
	sub	x8, x8, #1
	ldrb	w9, [x20, x8]
	sub	x8, x8, x9
	ldur	x9, [x1, #-8]
	lsr	x9, x9, #7
	and	x9, x9, #0x1fffffffffff8
	sub	x9, x9, #1
	ldrb	w10, [x1, x9]
	sub	x9, x9, x10
	cmp	x8, x9
	csel	x10, x8, x9, lo
	cmp	x10, #16
	b.lo	LBB6_7
; %bb.6:                                ; %L238
                                        ;   in Loop: Header=BB6_5 Depth=1
	mov	x0, x20
	mov	x29, sp
	.cfi_remember_state
	.cfi_def_cfa_register w29
	ldr	x16, [x28, #104]
	mov	sp, x16
	bl	_caml_string_compare
	mov	sp, x29
	.cfi_restore_state
	cmp	x0, #1
	b.ne	LBB6_13
	b	LBB6_16
LBB6_7:                                 ; %L239
                                        ;   in Loop: Header=BB6_5 Depth=1
	cbz	x10, LBB6_11
; %bb.8:                                ; %L241
                                        ;   in Loop: Header=BB6_5 Depth=1
	subs	x11, x22, x10
	csel	x11, xzr, x11, lo
	lsl	x11, x11, #3
	lsl	x11, x23, x11
	ldr	x12, [x20]
	rev	x12, x12
	ldr	x13, [x1]
	rev	x13, x13
	and	x12, x12, x11
	and	x11, x13, x11
	cmp	x12, x11
	b.ne	LBB6_12
; %bb.9:                                ; %L243
                                        ;   in Loop: Header=BB6_5 Depth=1
	cmp	x10, #9
	b.lo	LBB6_11
; %bb.10:                               ; %L244
                                        ;   in Loop: Header=BB6_5 Depth=1
	lsl	x10, x10, #3
	neg	x10, x10
	lsl	x10, x23, x10
	ldr	x11, [x20, #8]
	rev	x11, x11
	ldr	x12, [x1, #8]
	rev	x12, x12
	and	x11, x11, x10
	and	x10, x12, x10
	cmp	x11, x10
	b.ne	LBB6_12
LBB6_11:                                ; %L240
                                        ;   in Loop: Header=BB6_5 Depth=1
	cmp	x8, x9
	csinc	x8, x21, xzr, hi
	csinv	x0, x8, xzr, hs
	cmp	x0, #1
	b.ne	LBB6_13
	b	LBB6_16
LBB6_12:                                ; %L245
                                        ;   in Loop: Header=BB6_5 Depth=1
	csinv	x0, x21, xzr, hs
	cmp	x0, #1
	b.eq	LBB6_16
LBB6_13:                                ; %L222
                                        ;   in Loop: Header=BB6_5 Depth=1
	cmp	x0, #0
	b.gt	LBB6_3
; %bb.14:                               ; %L224
                                        ;   in Loop: Header=BB6_5 Depth=1
	ldr	x19, [x19]
	tbz	w19, #0, LBB6_4
LBB6_15:
	mov	x0, #-1
	ldr	x30, [sp, #8]                   ; 8-byte Folded Reload
	add	sp, sp, #16
	ret
LBB6_16:                                ; %L218
	ldr	x0, [x19, #16]
	ldr	x30, [sp, #8]                   ; 8-byte Folded Reload
	add	sp, sp, #16
	ret
	.cfi_endproc
                                        ; -- End function
	.globl	_camlString_tree_first_byte_diff__run_7_15_code ; -- Begin function _camlString_tree_first_byte_diff__run_7_15_code
	.p2align	2
_camlString_tree_first_byte_diff__run_7_15_code: ; @"\01_camlString_tree_first_byte_diff__run_7_15_code"
	.cfi_startproc
; %bb.0:                                ; %L1
	sub	sp, sp, #16
	.cfi_def_cfa_offset 16
	str	x30, [sp, #8]                   ; 8-byte Folded Spill
	.cfi_offset w30, -16
	sub	sp, sp, #112
	.cfi_def_cfa_offset 128
	str	x0, [sp, #24]                   ; 8-byte Folded Spill
	ldr	x8, [x28, #40]
	add	x8, x8, #376
	; InlineAsm Start
	mov	x9, sp
	; InlineAsm End
	cmp	x9, x8
	str	x1, [sp, #16]                   ; 8-byte Folded Spill
	b.lo	LBB7_15
LBB7_1:                                 ; %L390
	mov	w0, #1
	mov	w1, #127
	bl	_camlString_tree_first_byte_diff__build_5_13_code
Ltmp11:
	str	x0, [sp, #104]
Lloh12:
	adrp	x8, _caml_format_int@GOTPAGE
Lloh13:
	ldr	x8, [x8, _caml_format_int@GOTPAGEOFF]
Lloh14:
	adrp	x0, _camlStdlib__immstring191@GOTPAGE
Lloh15:
	ldr	x0, [x0, _camlStdlib__immstring191@GOTPAGEOFF]
	mov	w1, #1
	bl	_caml_c_call
Ltmp12:
	ldur	x8, [x0, #-8]
	lsr	x8, x8, #7
	and	x8, x8, #0x1fffffffffff8
	sub	x8, x8, #1
	ldrb	w9, [x0, x8]
	sub	x8, x8, x9
	lsl	x9, x8, #1
	mov	w20, #1
	bfi	x20, x8, #1, #63
	add	x9, x9, #29
	str	x0, [sp, #96]
	str	x9, [sp, #88]
Lloh16:
	adrp	x19, _caml_create_bytes@GOTPAGE
Lloh17:
	ldr	x19, [x19, _caml_create_bytes@GOTPAGEOFF]
	mov	x8, x19
	mov	x0, x9
	bl	_caml_c_call
Ltmp13:
	mov	x21, x0
	ldr	x22, [sp, #96]
Lloh18:
	adrp	x0, _camlString_tree_first_byte_diff__immstring83@PAGE
Lloh19:
	add	x0, x0, _camlString_tree_first_byte_diff__immstring83@PAGEOFF
	mov	w1, #1
	mov	x2, x21
	mov	w3, #1
	mov	w4, #29
	mov	x29, sp
	.cfi_remember_state
	.cfi_def_cfa_register w29
	ldr	x16, [x28, #104]
	mov	sp, x16
	bl	_caml_blit_string
	mov	sp, x29
	.cfi_restore_state
	mov	x0, x22
	mov	w1, #1
	mov	x2, x21
	mov	w3, #29
	mov	x4, x20
	mov	x29, sp
	.cfi_remember_state
	.cfi_def_cfa_register w29
	ldr	x16, [x28, #104]
	mov	sp, x16
	bl	_caml_blit_string
	mov	sp, x29
	.cfi_restore_state
	str	x21, [sp, #96]
	mov	x8, x19
	mov	w0, #3
	bl	_caml_c_call
Ltmp14:
	mov	x20, x0
	ldr	x22, [sp, #96]
	mov	w1, #1
	mov	w2, #3
	mov	w3, #131
	mov	x29, sp
	.cfi_remember_state
	.cfi_def_cfa_register w29
	ldr	x16, [x28, #104]
	mov	sp, x16
	bl	_caml_fill_bytes
	mov	sp, x29
	.cfi_restore_state
	ldur	x8, [x20, #-8]
	lsr	x8, x8, #7
	and	x8, x8, #0x1fffffffffff8
	sub	x8, x8, #1
	ldrb	w9, [x20, x8]
	sub	x8, x8, x9
	mov	w21, #1
	bfi	x21, x8, #1, #63
	ldur	x9, [x22, #-8]
	lsr	x9, x9, #7
	and	x9, x9, #0x1fffffffffff8
	sub	x9, x9, #1
	ldrb	w10, [x22, x9]
	lsl	x8, x8, #1
	sub	x9, x9, x10
	mov	w10, #1
	orr	x22, x10, x9, lsl #1
	add	x0, x8, x22
	str	x20, [sp, #88]
	str	x0, [sp, #80]
	mov	x8, x19
	bl	_caml_c_call
Ltmp15:
	mov	x19, x0
	ldr	x20, [sp, #96]
	ldr	x0, [sp, #88]
	mov	w1, #1
	mov	x2, x19
	mov	w3, #1
	mov	x4, x21
	mov	x29, sp
	.cfi_remember_state
	.cfi_def_cfa_register w29
	ldr	x16, [x28, #104]
	mov	sp, x16
	bl	_caml_blit_string
	mov	sp, x29
	.cfi_restore_state
	mov	x0, x20
	mov	w1, #1
	mov	x2, x19
	mov	x3, x21
	mov	x4, x22
	mov	x29, sp
	.cfi_remember_state
	.cfi_def_cfa_register w29
	ldr	x16, [x28, #104]
	mov	sp, x16
	bl	_caml_blit_string
	mov	sp, x29
	.cfi_restore_state
	str	x19, [sp, #96]
Lloh20:
	adrp	x8, _caml_array_make@GOTPAGE
Lloh21:
	ldr	x8, [x8, _caml_array_make@GOTPAGEOFF]
	mov	w0, #129
	mov	x1, x19
	bl	_caml_c_call
Ltmp16:
	ldr	x8, [sp, #104]
	str	x0, [sp, #72]
	str	x8, [sp, #64]
	mov	w9, #1
	b	LBB7_3
LBB7_2:                                 ; %L317
                                        ;   in Loop: Header=BB7_3 Depth=1
	add	x0, x9, x8
	mov	x29, sp
	.cfi_remember_state
	.cfi_def_cfa_register w29
	ldr	x16, [x28, #104]
	mov	sp, x16
	bl	_caml_modify
	mov	sp, x29
	.cfi_restore_state
	ldr	x9, [sp, #40]                   ; 8-byte Folded Reload
	add	x9, x9, #1
	cmp	x9, #64
	b.eq	LBB7_5
LBB7_3:                                 ; %L301
                                        ; =>This Inner Loop Header: Depth=1
	mov	w8, #1
	str	x9, [sp, #40]                   ; 8-byte Folded Spill
	orr	x0, x8, x9, lsl #1
	str	x0, [sp, #32]                   ; 8-byte Folded Spill
	bl	_camlString_tree_first_byte_diff__key_4_12_code
Ltmp17:
	mov	x1, x0
	ldr	x20, [sp, #72]
	ldr	x19, [sp, #64]
	ldurb	w10, [x20, #-8]
	ldr	x8, [sp, #32]                   ; 8-byte Folded Reload
	lsl	x8, x8, #2
	sub	x9, x20, #4
	cmp	w10, #254
	b.ne	LBB7_2
; %bb.4:                                ; %L310
                                        ;   in Loop: Header=BB7_3 Depth=1
	ldr	d0, [x1]
	str	d0, [x9, x8]
	ldr	x9, [sp, #40]                   ; 8-byte Folded Reload
	add	x9, x9, #1
	cmp	x9, #64
	b.ne	LBB7_3
LBB7_5:                                 ; %L329
	ldr	x9, [sp, #16]                   ; 8-byte Folded Reload
	cmp	x9, #3
	ldr	x8, [sp, #24]                   ; 8-byte Folded Reload
	b.ge	LBB7_7
; %bb.6:
	mov	w0, #1
	b	LBB7_14
LBB7_7:                                 ; %L336
	lsr	x9, x9, #1
	cmp	x8, #3
	b.ge	LBB7_10
; %bb.8:                                ; %L342.us.preheader
	mov	w0, #1
	mov	w8, #1
LBB7_9:                                 ; %L342.us
                                        ; =>This Inner Loop Header: Depth=1
	add	x8, x8, #1
	cmp	x8, x9
	b.le	LBB7_9
	b	LBB7_14
LBB7_10:                                ; %L342.preheader
	lsr	x8, x8, #1
	mov	w0, #1
	mov	w10, #1
	str	x9, [sp]                        ; 8-byte Folded Spill
	str	x8, [sp, #16]                   ; 8-byte Folded Spill
LBB7_11:                                ; %L342
                                        ; =>This Loop Header: Depth=1
                                        ;     Child Loop BB7_12 Depth 2
	str	x19, [sp, #48]
	str	x20, [sp, #56]
	mov	w9, #1
	str	x10, [sp, #8]                   ; 8-byte Folded Spill
	orr	x9, x9, x10, lsl #1
	str	x9, [sp, #24]                   ; 8-byte Folded Spill
	mov	w9, #1
LBB7_12:                                ; %L354
                                        ;   Parent Loop BB7_11 Depth=1
                                        ; =>  This Inner Loop Header: Depth=2
	str	x0, [sp, #32]                   ; 8-byte Folded Spill
	str	x9, [sp, #40]                   ; 8-byte Folded Spill
	ldr	x8, [sp, #24]                   ; 8-byte Folded Reload
	add	w8, w8, w9, lsl #1
	ubfiz	x8, x8, #2, #7
	add	x8, x20, x8
	ldur	x0, [x8, #-4]
	mov	x1, x19
	bl	_camlString_tree_first_byte_diff__find_6_14_code
Ltmp18:
	ldr	x9, [sp, #40]                   ; 8-byte Folded Reload
	ldr	x19, [sp, #48]
	ldr	x20, [sp, #56]
	ldr	x8, [sp, #32]                   ; 8-byte Folded Reload
	add	x8, x8, x0
	sub	x0, x8, #1
	ldr	x8, [sp, #16]                   ; 8-byte Folded Reload
	add	x9, x9, #1
	cmp	x9, x8
	b.le	LBB7_12
; %bb.13:                               ; %L375.loopexit
                                        ;   in Loop: Header=BB7_11 Depth=1
	ldr	x10, [sp, #8]                   ; 8-byte Folded Reload
	add	x10, x10, #1
	ldr	x9, [sp]                        ; 8-byte Folded Reload
	cmp	x10, x9
	b.le	LBB7_11
LBB7_14:                                ; %common.ret
	ldr	x30, [sp, #120]                 ; 8-byte Folded Reload
	add	sp, sp, #128
	ret
LBB7_15:                                ; %L389
	mov	w0, #34
	bl	_caml_llvm_call_realloc_stack
Ltmp19:
	b	LBB7_1
	.loh AdrpLdrGot	Lloh20, Lloh21
	.loh AdrpAdd	Lloh18, Lloh19
	.loh AdrpLdrGot	Lloh16, Lloh17
	.loh AdrpLdrGot	Lloh14, Lloh15
	.loh AdrpLdrGot	Lloh12, Lloh13
	.cfi_endproc
                                        ; -- End function
	.globl	_camlString_tree_first_byte_diff__entry ; -- Begin function _camlString_tree_first_byte_diff__entry
	.p2align	2
_camlString_tree_first_byte_diff__entry: ; @"\01_camlString_tree_first_byte_diff__entry"
	.cfi_startproc
; %bb.0:                                ; %L1
	sub	sp, sp, #16
	.cfi_def_cfa_offset 16
	str	x30, [sp, #8]                   ; 8-byte Folded Spill
	.cfi_offset w30, -16
	sub	sp, sp, #32
	.cfi_def_cfa_offset 48
Lloh22:
	adrp	x8, _caml_sys_argv@GOTPAGE
Lloh23:
	ldr	x8, [x8, _caml_sys_argv@GOTPAGEOFF]
	mov	w0, #1
	bl	_caml_c_call
Ltmp20:
	ldur	x8, [x0, #-8]
	tst	x8, #0xfffffffffff800
	b.eq	LBB8_3
; %bb.1:                                ; %L411
Lloh24:
	adrp	x8, _caml_sys_argv@GOTPAGE
Lloh25:
	ldr	x8, [x8, _caml_sys_argv@GOTPAGEOFF]
	mov	w0, #1
	bl	_caml_c_call
Ltmp21:
	ldur	x8, [x0, #-8]
	tst	x8, #0xfffffffffff800
	b.eq	LBB8_11
; %bb.2:                                ; %L421
	ldr	x0, [x0, #8]
	str	x0, [sp, #24]
Lloh26:
	adrp	x8, _caml_int_of_string@GOTPAGE
Lloh27:
	ldr	x8, [x8, _caml_int_of_string@GOTPAGEOFF]
	bl	_caml_c_call
Ltmp22:
	mov	x20, x0
	b	LBB8_4
LBB8_3:
	mov	w20, #3393
	movk	w20, #3, lsl #16
LBB8_4:                                 ; %L435
Lloh28:
	adrp	x0, _camlString_tree_first_byte_diff@PAGE+24
Lloh29:
	add	x0, x0, _camlString_tree_first_byte_diff@PAGEOFF+24
	mov	x1, x20
	mov	x29, sp
	.cfi_remember_state
	.cfi_def_cfa_register w29
	ldr	x16, [x28, #104]
	mov	sp, x16
	bl	_caml_initialize
	mov	sp, x29
	.cfi_restore_state
Lloh30:
	adrp	x8, _caml_sys_argv@GOTPAGE
Lloh31:
	ldr	x8, [x8, _caml_sys_argv@GOTPAGEOFF]
	mov	w0, #1
	bl	_caml_c_call
Ltmp23:
	ldur	x8, [x0, #-8]
	and	x8, x8, #0xfffffffffffc00
	cmp	x8, #2561
	b.lo	LBB8_7
; %bb.5:                                ; %L447
Lloh32:
	adrp	x8, _caml_sys_argv@GOTPAGE
Lloh33:
	ldr	x8, [x8, _caml_sys_argv@GOTPAGEOFF]
	mov	w0, #1
	bl	_caml_c_call
Ltmp24:
	ldur	x8, [x0, #-8]
	and	x8, x8, #0xfffffffffffc00
	cmp	x8, #2561
	b.lo	LBB8_11
; %bb.6:                                ; %L457
	ldr	x0, [x0, #16]
	str	x0, [sp, #24]
Lloh34:
	adrp	x8, _caml_int_of_string@GOTPAGE
Lloh35:
	ldr	x8, [x8, _caml_int_of_string@GOTPAGEOFF]
	bl	_caml_c_call
Ltmp25:
	mov	x19, x0
	b	LBB8_8
LBB8_7:
	mov	w19, #21
LBB8_8:                                 ; %L471
Lloh36:
	adrp	x0, _camlString_tree_first_byte_diff@PAGE+32
Lloh37:
	add	x0, x0, _camlString_tree_first_byte_diff@PAGEOFF+32
	mov	x1, x19
	mov	x29, sp
	.cfi_remember_state
	.cfi_def_cfa_register w29
	ldr	x16, [x28, #104]
	mov	sp, x16
	bl	_caml_initialize
	mov	sp, x29
	.cfi_restore_state
	ldr	x8, [x28, #40]
	add	x8, x8, #376
	; InlineAsm Start
	mov	x9, sp
	; InlineAsm End
	cmp	x9, x8
	str	x20, [sp, #16]                  ; 8-byte Folded Spill
	b.lo	LBB8_10
LBB8_9:                                 ; %L492
	mov	x0, x19
	bl	_camlString_tree_first_byte_diff__black_box_int_0_8_code
Ltmp26:
	str	x0, [sp, #8]                    ; 8-byte Folded Spill
	ldr	x0, [sp, #16]                   ; 8-byte Folded Reload
	bl	_camlString_tree_first_byte_diff__black_box_int_0_8_code
Ltmp27:
	ldr	x1, [sp, #8]                    ; 8-byte Folded Reload
	bl	_camlString_tree_first_byte_diff__run_7_15_code
Ltmp28:
	str	x0, [sp, #16]                   ; 8-byte Folded Spill
Lloh38:
	adrp	x0, _camlStdlib__Printf__fn$5b$2fworkspace_root$2fprintf.ml$3a27$2c14$2d$2d48$5d_31@GOTPAGE
Lloh39:
	ldr	x0, [x0, _camlStdlib__Printf__fn$5b$2fworkspace_root$2fprintf.ml$3a27$2c14$2d$2d48$5d_31@GOTPAGEOFF]
Lloh40:
	adrp	x2, _camlString_tree_first_byte_diff__const_block66@PAGE
Lloh41:
	add	x2, x2, _camlString_tree_first_byte_diff__const_block66@PAGEOFF
	mov	w1, #1
	bl	_camlCamlinternalFormat__make_printf_120_401_code
Ltmp29:
	mov	x1, x0
	ldr	x8, [sp, #16]                   ; 8-byte Folded Reload
	and	x0, x8, #0x7fffffff
	ldr	x8, [x1]
	blr	x8
Ltmp30:
	mov	w0, #1
	ldr	x30, [sp, #40]                  ; 8-byte Folded Reload
	add	sp, sp, #48
	ret
LBB8_10:                                ; %L491
	mov	w0, #34
	bl	_caml_llvm_call_realloc_stack
Ltmp31:
	b	LBB8_9
LBB8_11:                                ; %L465
Lloh42:
	adrp	x8, _camlString_tree_first_byte_diff__block35@PAGE
Lloh43:
	add	x8, x8, _camlString_tree_first_byte_diff__block35@PAGEOFF
	mov	x0, x8
	mov	sp, x26
	ldp	x26, x16, [sp], #16
	br	x16
	.loh AdrpLdrGot	Lloh22, Lloh23
	.loh AdrpLdrGot	Lloh24, Lloh25
	.loh AdrpLdrGot	Lloh26, Lloh27
	.loh AdrpLdrGot	Lloh30, Lloh31
	.loh AdrpAdd	Lloh28, Lloh29
	.loh AdrpLdrGot	Lloh32, Lloh33
	.loh AdrpLdrGot	Lloh34, Lloh35
	.loh AdrpAdd	Lloh36, Lloh37
	.loh AdrpAdd	Lloh40, Lloh41
	.loh AdrpLdrGot	Lloh38, Lloh39
	.loh AdrpAdd	Lloh42, Lloh43
	.cfi_endproc
                                        ; -- End function
	.section	__DATA,__data
	.globl	_camlString_tree_first_byte_diff__gc_roots ; @"\01_camlString_tree_first_byte_diff__gc_roots"
	.p2align	3, 0x0
_camlString_tree_first_byte_diff__gc_roots:
	.quad	_camlString_tree_first_byte_diff
	.quad	0                               ; 0x0

	.globl	_header.camlString_tree_first_byte_diff ; @"\01_header.camlString_tree_first_byte_diff"
	.p2align	3, 0x0
_header.camlString_tree_first_byte_diff:
	.quad	11008                           ; 0x2b00

	.globl	_camlString_tree_first_byte_diff ; @"\01_camlString_tree_first_byte_diff"
	.p2align	3, 0x0
_camlString_tree_first_byte_diff:
	.quad	_camlString_tree_first_byte_diff__black_box_int_8
	.quad	_camlString_tree_first_byte_diff__black_box_string_9
	.quad	_camlString_tree_first_byte_diff__black_box_10
	.quad	1                               ; 0x1
	.quad	1                               ; 0x1
	.quad	_camlString_tree_first_byte_diff__print_result_11
	.quad	_camlString_tree_first_byte_diff__key_12
	.quad	_camlString_tree_first_byte_diff__build_13
	.quad	_camlString_tree_first_byte_diff__find_14
	.quad	_camlString_tree_first_byte_diff__run_15

	.globl	_header.camlString_tree_first_byte_diff__run_15 ; @"\01_header.camlString_tree_first_byte_diff__run_15"
	.p2align	3, 0x0
_header.camlString_tree_first_byte_diff__run_15:
	.quad	4087                            ; 0xff7

	.globl	_camlString_tree_first_byte_diff__run_15 ; @"\01_camlString_tree_first_byte_diff__run_15"
	.p2align	3, 0x0
_camlString_tree_first_byte_diff__run_15:
	.quad	_caml_curry2
	.quad	180143985094819847              ; 0x280000000000007
	.quad	_camlString_tree_first_byte_diff__run_7_15_code

	.globl	_header.camlString_tree_first_byte_diff__find_14 ; @"\01_header.camlString_tree_first_byte_diff__find_14"
	.p2align	3, 0x0
_header.camlString_tree_first_byte_diff__find_14:
	.quad	4087                            ; 0xff7

	.globl	_camlString_tree_first_byte_diff__find_14 ; @"\01_camlString_tree_first_byte_diff__find_14"
	.p2align	3, 0x0
_camlString_tree_first_byte_diff__find_14:
	.quad	_caml_curry2
	.quad	180143985094819847              ; 0x280000000000007
	.quad	_camlString_tree_first_byte_diff__find_6_14_code

	.globl	_header.camlString_tree_first_byte_diff__build_13 ; @"\01_header.camlString_tree_first_byte_diff__build_13"
	.p2align	3, 0x0
_header.camlString_tree_first_byte_diff__build_13:
	.quad	4087                            ; 0xff7

	.globl	_camlString_tree_first_byte_diff__build_13 ; @"\01_camlString_tree_first_byte_diff__build_13"
	.p2align	3, 0x0
_camlString_tree_first_byte_diff__build_13:
	.quad	_caml_curry2
	.quad	180143985094819847              ; 0x280000000000007
	.quad	_camlString_tree_first_byte_diff__build_5_13_code

	.globl	_header.camlString_tree_first_byte_diff__key_12 ; @"\01_header.camlString_tree_first_byte_diff__key_12"
	.p2align	3, 0x0
_header.camlString_tree_first_byte_diff__key_12:
	.quad	3063                            ; 0xbf7

	.globl	_camlString_tree_first_byte_diff__key_12 ; @"\01_camlString_tree_first_byte_diff__key_12"
	.p2align	3, 0x0
_camlString_tree_first_byte_diff__key_12:
	.quad	_camlString_tree_first_byte_diff__key_4_12_code
	.quad	108086391056891909              ; 0x180000000000005

	.globl	_header.camlString_tree_first_byte_diff__print_result_11 ; @"\01_header.camlString_tree_first_byte_diff__print_result_11"
	.p2align	3, 0x0
_header.camlString_tree_first_byte_diff__print_result_11:
	.quad	3063                            ; 0xbf7

	.globl	_camlString_tree_first_byte_diff__print_result_11 ; @"\01_camlString_tree_first_byte_diff__print_result_11"
	.p2align	3, 0x0
_camlString_tree_first_byte_diff__print_result_11:
	.quad	_camlString_tree_first_byte_diff__print_result_3_11_code
	.quad	108086391056891909              ; 0x180000000000005

	.globl	_header.camlString_tree_first_byte_diff__black_box_10 ; @"\01_header.camlString_tree_first_byte_diff__black_box_10"
	.p2align	3, 0x0
_header.camlString_tree_first_byte_diff__black_box_10:
	.quad	3063                            ; 0xbf7

	.globl	_camlString_tree_first_byte_diff__black_box_10 ; @"\01_camlString_tree_first_byte_diff__black_box_10"
	.p2align	3, 0x0
_camlString_tree_first_byte_diff__black_box_10:
	.quad	_camlString_tree_first_byte_diff__black_box_2_10_code
	.quad	108086391056891909              ; 0x180000000000005

	.globl	_header.camlString_tree_first_byte_diff__black_box_string_9 ; @"\01_header.camlString_tree_first_byte_diff__black_box_string_9"
	.p2align	3, 0x0
_header.camlString_tree_first_byte_diff__black_box_string_9:
	.quad	3063                            ; 0xbf7

	.globl	_camlString_tree_first_byte_diff__black_box_string_9 ; @"\01_camlString_tree_first_byte_diff__black_box_string_9"
	.p2align	3, 0x0
_camlString_tree_first_byte_diff__black_box_string_9:
	.quad	_camlString_tree_first_byte_diff__black_box_string_1_9_code
	.quad	108086391056891909              ; 0x180000000000005

	.globl	_header.camlString_tree_first_byte_diff__black_box_int_8 ; @"\01_header.camlString_tree_first_byte_diff__black_box_int_8"
	.p2align	3, 0x0
_header.camlString_tree_first_byte_diff__black_box_int_8:
	.quad	3063                            ; 0xbf7

	.globl	_camlString_tree_first_byte_diff__black_box_int_8 ; @"\01_camlString_tree_first_byte_diff__black_box_int_8"
	.p2align	3, 0x0
_camlString_tree_first_byte_diff__black_box_int_8:
	.quad	_camlString_tree_first_byte_diff__black_box_int_0_8_code
	.quad	108086391056891909              ; 0x180000000000005

	.globl	_header.camlString_tree_first_byte_diff__block35 ; @"\01_header.camlString_tree_first_byte_diff__block35"
	.p2align	3, 0x0
_header.camlString_tree_first_byte_diff__block35:
	.quad	2816                            ; 0xb00

	.globl	_camlString_tree_first_byte_diff__block35 ; @"\01_camlString_tree_first_byte_diff__block35"
	.p2align	3, 0x0
_camlString_tree_first_byte_diff__block35:
	.quad	_caml_exn_Invalid_argument
	.quad	_camlString_tree_first_byte_diff__string33

	.globl	_header.camlString_tree_first_byte_diff__string33 ; @"\01_header.camlString_tree_first_byte_diff__string33"
	.p2align	3, 0x0
_header.camlString_tree_first_byte_diff__string33:
	.quad	4092                            ; 0xffc

	.globl	_camlString_tree_first_byte_diff__string33 ; @"\01_camlString_tree_first_byte_diff__string33"
	.p2align	3, 0x0
_camlString_tree_first_byte_diff__string33:
	.ascii	"index out of bounds"
	.space	4
	.byte	4                               ; 0x4

	.globl	_header.camlString_tree_first_byte_diff__immstring83 ; @"\01_header.camlString_tree_first_byte_diff__immstring83"
	.p2align	3, 0x0
_header.camlString_tree_first_byte_diff__immstring83:
	.quad	3068                            ; 0xbfc

	.globl	_camlString_tree_first_byte_diff__immstring83 ; @"\01_camlString_tree_first_byte_diff__immstring83"
	.p2align	3, 0x0
_camlString_tree_first_byte_diff__immstring83:
	.ascii	"_compiler_key_"
	.space	1
	.byte	1                               ; 0x1

	.globl	_header.camlString_tree_first_byte_diff__const_block66 ; @"\01_header.camlString_tree_first_byte_diff__const_block66"
	.p2align	3, 0x0
_header.camlString_tree_first_byte_diff__const_block66:
	.quad	4868                            ; 0x1304

	.globl	_camlString_tree_first_byte_diff__const_block66 ; @"\01_camlString_tree_first_byte_diff__const_block66"
	.p2align	3, 0x0
_camlString_tree_first_byte_diff__const_block66:
	.quad	1                               ; 0x1
	.quad	1                               ; 0x1
	.quad	1                               ; 0x1
	.quad	_camlString_tree_first_byte_diff__const_block64

	.globl	_header.camlString_tree_first_byte_diff__const_block64 ; @"\01_header.camlString_tree_first_byte_diff__const_block64"
	.p2align	3, 0x0
_header.camlString_tree_first_byte_diff__const_block64:
	.quad	2828                            ; 0xb0c

	.globl	_camlString_tree_first_byte_diff__const_block64 ; @"\01_camlString_tree_first_byte_diff__const_block64"
	.p2align	3, 0x0
_camlString_tree_first_byte_diff__const_block64:
	.quad	21                              ; 0x15
	.quad	_camlString_tree_first_byte_diff__const_block62

	.globl	_header.camlString_tree_first_byte_diff__const_block62 ; @"\01_header.camlString_tree_first_byte_diff__const_block62"
	.p2align	3, 0x0
_header.camlString_tree_first_byte_diff__const_block62:
	.quad	1802                            ; 0x70a

	.globl	_camlString_tree_first_byte_diff__const_block62 ; @"\01_camlString_tree_first_byte_diff__const_block62"
	.p2align	3, 0x0
_camlString_tree_first_byte_diff__const_block62:
	.quad	1                               ; 0x1

	.quad	0
	.globl	_camlString_tree_first_byte_diff__data_end
_camlString_tree_first_byte_diff__data_end:
	.quad	0
	.p2align	3, 0x0
	.globl	_camlString_tree_first_byte_diff__frametable
_camlString_tree_first_byte_diff__frametable:
	.quad	32
Ltmp32:
	.long	Ltmp0-Ltmp32
	.short	33
	.short	0
	.p2align	2, 0x0
Ltmp34:
	.long	Ltmp33-Ltmp34
	.p2align	3, 0x0
Ltmp35:
	.long	Ltmp1-Ltmp35
	.short	32
	.short	0
	.p2align	3, 0x0
Ltmp36:
	.long	Ltmp2-Ltmp36
	.short	49
	.short	1
	.short	24
	.p2align	2, 0x0
Ltmp38:
	.long	Ltmp37-Ltmp38
	.p2align	3, 0x0
Ltmp39:
	.long	Ltmp3-Ltmp39
	.short	49
	.short	2
	.short	24
	.short	16
	.p2align	2, 0x0
Ltmp41:
	.long	Ltmp40-Ltmp41
	.p2align	3, 0x0
Ltmp42:
	.long	Ltmp4-Ltmp42
	.short	49
	.short	1
	.short	24
	.p2align	2, 0x0
Ltmp44:
	.long	Ltmp43-Ltmp44
	.p2align	3, 0x0
Ltmp45:
	.long	Ltmp5-Ltmp45
	.short	49
	.short	3
	.short	16
	.short	24
	.short	8
	.p2align	2, 0x0
Ltmp47:
	.long	Ltmp46-Ltmp47
	.p2align	3, 0x0
Ltmp48:
	.long	Ltmp6-Ltmp48
	.short	49
	.short	0
	.p2align	2, 0x0
Ltmp50:
	.long	Ltmp49-Ltmp50
	.p2align	3, 0x0
Ltmp51:
	.long	Ltmp7-Ltmp51
	.short	49
	.short	1
	.short	24
	.p2align	2, 0x0
Ltmp53:
	.long	Ltmp52-Ltmp53
	.p2align	3, 0x0
Ltmp54:
	.long	Ltmp8-Ltmp54
	.short	49
	.short	2
	.short	16
	.short	24
	.p2align	2, 0x0
Ltmp56:
	.long	Ltmp55-Ltmp56
	.p2align	3, 0x0
Ltmp57:
	.long	Ltmp9-Ltmp57
	.short	48
	.short	0
	.p2align	3, 0x0
Ltmp58:
	.long	Ltmp10-Ltmp58
	.short	51
	.short	3
	.short	1
	.short	21
	.short	19
	.byte	1
	.byte	3
	.p2align	2, 0x0
Ltmp60:
	.long	Ltmp59-Ltmp60
	.p2align	3, 0x0
Ltmp61:
	.long	Ltmp11-Ltmp61
	.short	129
	.short	0
	.p2align	2, 0x0
Ltmp63:
	.long	Ltmp62-Ltmp63
	.p2align	3, 0x0
Ltmp64:
	.long	Ltmp12-Ltmp64
	.short	129
	.short	1
	.short	104
	.p2align	2, 0x0
Ltmp66:
	.long	Ltmp65-Ltmp66
	.p2align	3, 0x0
Ltmp67:
	.long	Ltmp13-Ltmp67
	.short	129
	.short	3
	.short	96
	.short	104
	.short	88
	.p2align	2, 0x0
Ltmp69:
	.long	Ltmp68-Ltmp69
	.p2align	3, 0x0
Ltmp70:
	.long	Ltmp14-Ltmp70
	.short	129
	.short	2
	.short	96
	.short	104
	.p2align	2, 0x0
Ltmp72:
	.long	Ltmp71-Ltmp72
	.p2align	3, 0x0
Ltmp73:
	.long	Ltmp15-Ltmp73
	.short	129
	.short	4
	.short	88
	.short	96
	.short	104
	.short	80
	.p2align	2, 0x0
Ltmp75:
	.long	Ltmp74-Ltmp75
	.p2align	3, 0x0
Ltmp76:
	.long	Ltmp16-Ltmp76
	.short	129
	.short	2
	.short	104
	.short	96
	.p2align	2, 0x0
Ltmp78:
	.long	Ltmp77-Ltmp78
	.p2align	3, 0x0
Ltmp79:
	.long	Ltmp17-Ltmp79
	.short	129
	.short	2
	.short	64
	.short	72
	.p2align	2, 0x0
Ltmp81:
	.long	Ltmp80-Ltmp81
	.p2align	3, 0x0
Ltmp82:
	.long	Ltmp18-Ltmp82
	.short	129
	.short	2
	.short	56
	.short	48
	.p2align	2, 0x0
Ltmp84:
	.long	Ltmp83-Ltmp84
	.p2align	3, 0x0
Ltmp85:
	.long	Ltmp19-Ltmp85
	.short	128
	.short	0
	.p2align	3, 0x0
Ltmp86:
	.long	Ltmp20-Ltmp86
	.short	49
	.short	0
	.p2align	2, 0x0
Ltmp88:
	.long	Ltmp87-Ltmp88
	.p2align	3, 0x0
Ltmp89:
	.long	Ltmp21-Ltmp89
	.short	49
	.short	0
	.p2align	2, 0x0
Ltmp91:
	.long	Ltmp90-Ltmp91
	.p2align	3, 0x0
Ltmp92:
	.long	Ltmp22-Ltmp92
	.short	49
	.short	1
	.short	24
	.p2align	2, 0x0
Ltmp94:
	.long	Ltmp93-Ltmp94
	.p2align	3, 0x0
Ltmp95:
	.long	Ltmp23-Ltmp95
	.short	49
	.short	0
	.p2align	2, 0x0
Ltmp97:
	.long	Ltmp96-Ltmp97
	.p2align	3, 0x0
Ltmp98:
	.long	Ltmp24-Ltmp98
	.short	49
	.short	0
	.p2align	2, 0x0
Ltmp100:
	.long	Ltmp99-Ltmp100
	.p2align	3, 0x0
Ltmp101:
	.long	Ltmp25-Ltmp101
	.short	49
	.short	1
	.short	24
	.p2align	2, 0x0
Ltmp103:
	.long	Ltmp102-Ltmp103
	.p2align	3, 0x0
Ltmp104:
	.long	Ltmp26-Ltmp104
	.short	49
	.short	0
	.p2align	2, 0x0
Ltmp106:
	.long	Ltmp105-Ltmp106
	.p2align	3, 0x0
Ltmp107:
	.long	Ltmp27-Ltmp107
	.short	49
	.short	0
	.p2align	2, 0x0
Ltmp109:
	.long	Ltmp108-Ltmp109
	.p2align	3, 0x0
Ltmp110:
	.long	Ltmp28-Ltmp110
	.short	49
	.short	0
	.p2align	2, 0x0
Ltmp112:
	.long	Ltmp111-Ltmp112
	.p2align	3, 0x0
Ltmp113:
	.long	Ltmp29-Ltmp113
	.short	49
	.short	0
	.p2align	2, 0x0
Ltmp115:
	.long	Ltmp114-Ltmp115
	.p2align	3, 0x0
Ltmp116:
	.long	Ltmp30-Ltmp116
	.short	49
	.short	0
	.p2align	2, 0x0
Ltmp118:
	.long	Ltmp117-Ltmp118
	.p2align	3, 0x0
Ltmp119:
	.long	Ltmp31-Ltmp119
	.short	48
	.short	0
	.p2align	3, 0x0
	.p2align	2, 0x0
Ltmp33:
Ltmp128:
	.long	(Ltmp120-Ltmp128)+1
	.long	14158328
Ltmp129:
	.long	(Ltmp122-Ltmp129)+1
	.long	17847640
Ltmp130:
	.long	(Ltmp124-Ltmp130)+1
	.long	19940632
Ltmp131:
	.long	(Ltmp126-Ltmp131)+0
	.long	5789176
	.p2align	2, 0x0
Ltmp120:
	.long	Ltmp121-Ltmp120
	.ascii	"Stdlib__Printf.kfprintf"
	.byte	0
Ltmp121:
	.ascii	"printf.ml"
	.byte	0
	.p2align	2, 0x0
Ltmp122:
	.long	Ltmp123-Ltmp122
	.ascii	"Stdlib__Printf.fprintf"
	.byte	0
Ltmp123:
	.ascii	"printf.ml"
	.byte	0
	.p2align	2, 0x0
Ltmp124:
	.long	Ltmp125-Ltmp124
	.ascii	"Stdlib__Printf.printf"
	.byte	0
Ltmp125:
	.ascii	"printf.ml"
	.byte	0
	.p2align	2, 0x0
Ltmp126:
	.long	Ltmp127-Ltmp126
	.ascii	"String_tree_first_byte_diff.print_result"
	.byte	0
Ltmp127:
	.ascii	"string_tree_first_byte_diff.ml"
	.byte	0
	.p2align	2, 0x0
Ltmp37:
Ltmp136:
	.long	(Ltmp132-Ltmp136)+1
	.long	146802840
Ltmp137:
	.long	(Ltmp134-Ltmp137)+0
	.long	2147553280
	.p2align	2, 0x0
Ltmp132:
	.long	Ltmp133-Ltmp132
	.ascii	"Stdlib.string_of_int"
	.byte	0
Ltmp133:
	.ascii	"stdlib.ml"
	.byte	0
	.p2align	2, 0x0
Ltmp134:
	.long	Ltmp135-Ltmp134
	.short	67
	.short	82
	.long	82
	.ascii	"String_tree_first_byte_diff.key"
	.byte	0
Ltmp135:
	.ascii	"string_tree_first_byte_diff.ml"
	.byte	0
	.p2align	2, 0x0
Ltmp40:
Ltmp142:
	.long	(Ltmp138-Ltmp142)+1
	.long	118499584
Ltmp143:
	.long	(Ltmp140-Ltmp143)+0
	.long	8962704
	.p2align	2, 0x0
Ltmp138:
	.long	Ltmp139-Ltmp138
	.ascii	"Stdlib.(^)"
	.byte	0
Ltmp139:
	.ascii	"stdlib.ml"
	.byte	0
	.p2align	2, 0x0
Ltmp140:
	.long	Ltmp141-Ltmp140
	.ascii	"String_tree_first_byte_diff.key"
	.byte	0
Ltmp141:
	.ascii	"string_tree_first_byte_diff.ml"
	.byte	0
	.p2align	2, 0x0
Ltmp43:
Ltmp150:
	.long	(Ltmp144-Ltmp150)+1
	.long	31467664
Ltmp151:
	.long	(Ltmp146-Ltmp151)+1
	.long	23070816
Ltmp152:
	.long	(Ltmp148-Ltmp152)+0
	.long	8915304
	.p2align	2, 0x0
Ltmp144:
	.long	Ltmp145-Ltmp144
	.ascii	"Stdlib__Bytes.make"
	.byte	0
Ltmp145:
	.ascii	"bytes.ml"
	.byte	0
	.p2align	2, 0x0
Ltmp146:
	.long	Ltmp147-Ltmp146
	.ascii	"Stdlib__String.make"
	.byte	0
Ltmp147:
	.ascii	"string.ml"
	.byte	0
	.p2align	2, 0x0
Ltmp148:
	.long	Ltmp149-Ltmp148
	.ascii	"String_tree_first_byte_diff.key"
	.byte	0
Ltmp149:
	.ascii	"string_tree_first_byte_diff.ml"
	.byte	0
	.p2align	2, 0x0
Ltmp46:
Ltmp157:
	.long	(Ltmp153-Ltmp157)+1
	.long	118499584
Ltmp158:
	.long	(Ltmp155-Ltmp158)+0
	.long	8915600
	.p2align	2, 0x0
Ltmp153:
	.long	Ltmp154-Ltmp153
	.ascii	"Stdlib.(^)"
	.byte	0
Ltmp154:
	.ascii	"stdlib.ml"
	.byte	0
	.p2align	2, 0x0
Ltmp155:
	.long	Ltmp156-Ltmp155
	.ascii	"String_tree_first_byte_diff.key"
	.byte	0
Ltmp156:
	.ascii	"string_tree_first_byte_diff.ml"
	.byte	0
	.p2align	2, 0x0
Ltmp49:
Ltmp161:
	.long	(Ltmp159-Ltmp161)+0
	.long	12104176
	.p2align	2, 0x0
Ltmp159:
	.long	Ltmp160-Ltmp159
	.ascii	"String_tree_first_byte_diff.build"
	.byte	0
Ltmp160:
	.ascii	"string_tree_first_byte_diff.ml"
	.byte	0
	.p2align	2, 0x0
Ltmp52:
Ltmp164:
	.long	(Ltmp162-Ltmp164)+0
	.long	12089640
	.p2align	2, 0x0
Ltmp162:
	.long	Ltmp163-Ltmp162
	.ascii	"String_tree_first_byte_diff.build"
	.byte	0
Ltmp163:
	.ascii	"string_tree_first_byte_diff.ml"
	.byte	0
	.p2align	2, 0x0
Ltmp55:
Ltmp167:
	.long	(Ltmp165-Ltmp167)+0
	.long	12069088
	.p2align	2, 0x0
Ltmp165:
	.long	Ltmp166-Ltmp165
	.ascii	"String_tree_first_byte_diff.build"
	.byte	0
Ltmp166:
	.ascii	"string_tree_first_byte_diff.ml"
	.byte	0
	.p2align	2, 0x0
Ltmp59:
Ltmp170:
	.long	(Ltmp168-Ltmp170)+0
	.long	12063224
	.p2align	2, 0x0
Ltmp168:
	.long	Ltmp169-Ltmp168
	.ascii	"String_tree_first_byte_diff.build"
	.byte	0
Ltmp169:
	.ascii	"string_tree_first_byte_diff.ml"
	.byte	0
	.p2align	2, 0x0
Ltmp62:
Ltmp173:
	.long	(Ltmp171-Ltmp173)+0
	.long	16790712
	.p2align	2, 0x0
Ltmp171:
	.long	Ltmp172-Ltmp171
	.ascii	"String_tree_first_byte_diff.run"
	.byte	0
Ltmp172:
	.ascii	"string_tree_first_byte_diff.ml"
	.byte	0
	.p2align	2, 0x0
Ltmp65:
Ltmp182:
	.long	(Ltmp174-Ltmp182)+1
	.long	146802840
Ltmp183:
	.long	(Ltmp176-Ltmp183)+1
	.long	2147553280
Ltmp184:
	.long	(Ltmp178-Ltmp184)+1
	.long	44587224
Ltmp185:
	.long	(Ltmp180-Ltmp185)+0
	.long	17315056
	.p2align	2, 0x0
Ltmp174:
	.long	Ltmp175-Ltmp174
	.ascii	"Stdlib.string_of_int"
	.byte	0
Ltmp175:
	.ascii	"stdlib.ml"
	.byte	0
	.p2align	2, 0x0
Ltmp176:
	.long	Ltmp177-Ltmp176
	.short	67
	.short	82
	.long	82
	.ascii	"String_tree_first_byte_diff.key"
	.byte	0
Ltmp177:
	.ascii	"string_tree_first_byte_diff.ml"
	.byte	0
	.p2align	2, 0x0
Ltmp178:
	.long	Ltmp179-Ltmp178
	.ascii	"Stdlib__Array.init"
	.byte	0
Ltmp179:
	.ascii	"array.ml"
	.byte	0
	.p2align	2, 0x0
Ltmp180:
	.long	Ltmp181-Ltmp180
	.ascii	"String_tree_first_byte_diff.run"
	.byte	0
Ltmp181:
	.ascii	"string_tree_first_byte_diff.ml"
	.byte	0
	.p2align	2, 0x0
Ltmp68:
Ltmp194:
	.long	(Ltmp186-Ltmp194)+1
	.long	118499584
Ltmp195:
	.long	(Ltmp188-Ltmp195)+1
	.long	8962704
Ltmp196:
	.long	(Ltmp190-Ltmp196)+1
	.long	44587224
Ltmp197:
	.long	(Ltmp192-Ltmp197)+0
	.long	17315056
	.p2align	2, 0x0
Ltmp186:
	.long	Ltmp187-Ltmp186
	.ascii	"Stdlib.(^)"
	.byte	0
Ltmp187:
	.ascii	"stdlib.ml"
	.byte	0
	.p2align	2, 0x0
Ltmp188:
	.long	Ltmp189-Ltmp188
	.ascii	"String_tree_first_byte_diff.key"
	.byte	0
Ltmp189:
	.ascii	"string_tree_first_byte_diff.ml"
	.byte	0
	.p2align	2, 0x0
Ltmp190:
	.long	Ltmp191-Ltmp190
	.ascii	"Stdlib__Array.init"
	.byte	0
Ltmp191:
	.ascii	"array.ml"
	.byte	0
	.p2align	2, 0x0
Ltmp192:
	.long	Ltmp193-Ltmp192
	.ascii	"String_tree_first_byte_diff.run"
	.byte	0
Ltmp193:
	.ascii	"string_tree_first_byte_diff.ml"
	.byte	0
	.p2align	2, 0x0
Ltmp71:
Ltmp208:
	.long	(Ltmp198-Ltmp208)+1
	.long	31467664
Ltmp209:
	.long	(Ltmp200-Ltmp209)+1
	.long	23070816
Ltmp210:
	.long	(Ltmp202-Ltmp210)+1
	.long	8915304
Ltmp211:
	.long	(Ltmp204-Ltmp211)+1
	.long	44587224
Ltmp212:
	.long	(Ltmp206-Ltmp212)+0
	.long	17315056
	.p2align	2, 0x0
Ltmp198:
	.long	Ltmp199-Ltmp198
	.ascii	"Stdlib__Bytes.make"
	.byte	0
Ltmp199:
	.ascii	"bytes.ml"
	.byte	0
	.p2align	2, 0x0
Ltmp200:
	.long	Ltmp201-Ltmp200
	.ascii	"Stdlib__String.make"
	.byte	0
Ltmp201:
	.ascii	"string.ml"
	.byte	0
	.p2align	2, 0x0
Ltmp202:
	.long	Ltmp203-Ltmp202
	.ascii	"String_tree_first_byte_diff.key"
	.byte	0
Ltmp203:
	.ascii	"string_tree_first_byte_diff.ml"
	.byte	0
	.p2align	2, 0x0
Ltmp204:
	.long	Ltmp205-Ltmp204
	.ascii	"Stdlib__Array.init"
	.byte	0
Ltmp205:
	.ascii	"array.ml"
	.byte	0
	.p2align	2, 0x0
Ltmp206:
	.long	Ltmp207-Ltmp206
	.ascii	"String_tree_first_byte_diff.run"
	.byte	0
Ltmp207:
	.ascii	"string_tree_first_byte_diff.ml"
	.byte	0
	.p2align	2, 0x0
Ltmp74:
Ltmp221:
	.long	(Ltmp213-Ltmp221)+1
	.long	118499584
Ltmp222:
	.long	(Ltmp215-Ltmp222)+1
	.long	8915600
Ltmp223:
	.long	(Ltmp217-Ltmp223)+1
	.long	44587224
Ltmp224:
	.long	(Ltmp219-Ltmp224)+0
	.long	17315056
	.p2align	2, 0x0
Ltmp213:
	.long	Ltmp214-Ltmp213
	.ascii	"Stdlib.(^)"
	.byte	0
Ltmp214:
	.ascii	"stdlib.ml"
	.byte	0
	.p2align	2, 0x0
Ltmp215:
	.long	Ltmp216-Ltmp215
	.ascii	"String_tree_first_byte_diff.key"
	.byte	0
Ltmp216:
	.ascii	"string_tree_first_byte_diff.ml"
	.byte	0
	.p2align	2, 0x0
Ltmp217:
	.long	Ltmp218-Ltmp217
	.ascii	"Stdlib__Array.init"
	.byte	0
Ltmp218:
	.ascii	"array.ml"
	.byte	0
	.p2align	2, 0x0
Ltmp219:
	.long	Ltmp220-Ltmp219
	.ascii	"String_tree_first_byte_diff.run"
	.byte	0
Ltmp220:
	.ascii	"string_tree_first_byte_diff.ml"
	.byte	0
	.p2align	2, 0x0
Ltmp77:
Ltmp229:
	.long	(Ltmp225-Ltmp229)+1
	.long	44578008
Ltmp230:
	.long	(Ltmp227-Ltmp230)+0
	.long	17315056
	.p2align	2, 0x0
Ltmp225:
	.long	Ltmp226-Ltmp225
	.ascii	"Stdlib__Array.init"
	.byte	0
Ltmp226:
	.ascii	"array.ml"
	.byte	0
	.p2align	2, 0x0
Ltmp227:
	.long	Ltmp228-Ltmp227
	.ascii	"String_tree_first_byte_diff.run"
	.byte	0
Ltmp228:
	.ascii	"string_tree_first_byte_diff.ml"
	.byte	0
	.p2align	2, 0x0
Ltmp80:
Ltmp235:
	.long	(Ltmp231-Ltmp235)+1
	.long	45635800
Ltmp236:
	.long	(Ltmp233-Ltmp236)+0
	.long	17315056
	.p2align	2, 0x0
Ltmp231:
	.long	Ltmp232-Ltmp231
	.ascii	"Stdlib__Array.init"
	.byte	0
Ltmp232:
	.ascii	"array.ml"
	.byte	0
	.p2align	2, 0x0
Ltmp233:
	.long	Ltmp234-Ltmp233
	.ascii	"String_tree_first_byte_diff.run"
	.byte	0
Ltmp234:
	.ascii	"string_tree_first_byte_diff.ml"
	.byte	0
	.p2align	2, 0x0
Ltmp83:
Ltmp239:
	.long	(Ltmp237-Ltmp239)+0
	.long	19419704
	.p2align	2, 0x0
Ltmp237:
	.long	Ltmp238-Ltmp237
	.ascii	"String_tree_first_byte_diff.run"
	.byte	0
Ltmp238:
	.ascii	"string_tree_first_byte_diff.ml"
	.byte	0
	.p2align	2, 0x0
Ltmp87:
Ltmp242:
	.long	(Ltmp240-Ltmp242)+0
	.long	3164368
	.p2align	2, 0x0
Ltmp240:
	.long	Ltmp241-Ltmp240
	.ascii	"String_tree_first_byte_diff.n"
	.byte	0
Ltmp241:
	.ascii	"string_tree_first_byte_diff.ml"
	.byte	0
	.p2align	2, 0x0
Ltmp90:
Ltmp245:
	.long	(Ltmp243-Ltmp245)+0
	.long	3197392
	.p2align	2, 0x0
Ltmp243:
	.long	Ltmp244-Ltmp243
	.ascii	"String_tree_first_byte_diff.n"
	.byte	0
Ltmp244:
	.ascii	"string_tree_first_byte_diff.ml"
	.byte	0
	.p2align	2, 0x0
Ltmp93:
Ltmp248:
	.long	(Ltmp246-Ltmp248)+0
	.long	3183088
	.p2align	2, 0x0
Ltmp246:
	.long	Ltmp247-Ltmp246
	.ascii	"String_tree_first_byte_diff.n"
	.byte	0
Ltmp247:
	.ascii	"string_tree_first_byte_diff.ml"
	.byte	0
	.p2align	2, 0x0
Ltmp96:
Ltmp251:
	.long	(Ltmp249-Ltmp251)+0
	.long	4737232
	.p2align	2, 0x0
Ltmp249:
	.long	Ltmp250-Ltmp249
	.ascii	"String_tree_first_byte_diff.reps"
	.byte	0
Ltmp250:
	.ascii	"string_tree_first_byte_diff.ml"
	.byte	0
	.p2align	2, 0x0
Ltmp99:
Ltmp254:
	.long	(Ltmp252-Ltmp254)+0
	.long	4770256
	.p2align	2, 0x0
Ltmp252:
	.long	Ltmp253-Ltmp252
	.ascii	"String_tree_first_byte_diff.reps"
	.byte	0
Ltmp253:
	.ascii	"string_tree_first_byte_diff.ml"
	.byte	0
	.p2align	2, 0x0
Ltmp102:
Ltmp257:
	.long	(Ltmp255-Ltmp257)+0
	.long	4755952
	.p2align	2, 0x0
Ltmp255:
	.long	Ltmp256-Ltmp255
	.ascii	"String_tree_first_byte_diff.reps"
	.byte	0
Ltmp256:
	.ascii	"string_tree_first_byte_diff.ml"
	.byte	0
	.p2align	2, 0x0
Ltmp105:
Ltmp260:
	.long	(Ltmp258-Ltmp260)+0
	.long	22066696
	.p2align	2, 0x0
Ltmp258:
	.long	Ltmp259-Ltmp258
	.ascii	"String_tree_first_byte_diff"
	.byte	0
Ltmp259:
	.ascii	"string_tree_first_byte_diff.ml"
	.byte	0
	.p2align	2, 0x0
Ltmp108:
Ltmp263:
	.long	(Ltmp261-Ltmp263)+0
	.long	22048096
	.p2align	2, 0x0
Ltmp261:
	.long	Ltmp262-Ltmp261
	.ascii	"String_tree_first_byte_diff"
	.byte	0
Ltmp262:
	.ascii	"string_tree_first_byte_diff.ml"
	.byte	0
	.p2align	2, 0x0
Ltmp111:
Ltmp266:
	.long	(Ltmp264-Ltmp266)+0
	.long	22043152
	.p2align	2, 0x0
Ltmp264:
	.long	Ltmp265-Ltmp264
	.ascii	"String_tree_first_byte_diff"
	.byte	0
Ltmp265:
	.ascii	"string_tree_first_byte_diff.ml"
	.byte	0
	.p2align	2, 0x0
Ltmp114:
Ltmp277:
	.long	(Ltmp267-Ltmp277)+1
	.long	14158328
Ltmp278:
	.long	(Ltmp269-Ltmp278)+1
	.long	17847640
Ltmp279:
	.long	(Ltmp271-Ltmp279)+1
	.long	19940632
Ltmp280:
	.long	(Ltmp273-Ltmp280)+1
	.long	5789176
Ltmp281:
	.long	(Ltmp275-Ltmp281)+0
	.long	22029840
	.p2align	2, 0x0
Ltmp267:
	.long	Ltmp268-Ltmp267
	.ascii	"Stdlib__Printf.kfprintf"
	.byte	0
Ltmp268:
	.ascii	"printf.ml"
	.byte	0
	.p2align	2, 0x0
Ltmp269:
	.long	Ltmp270-Ltmp269
	.ascii	"Stdlib__Printf.fprintf"
	.byte	0
Ltmp270:
	.ascii	"printf.ml"
	.byte	0
	.p2align	2, 0x0
Ltmp271:
	.long	Ltmp272-Ltmp271
	.ascii	"Stdlib__Printf.printf"
	.byte	0
Ltmp272:
	.ascii	"printf.ml"
	.byte	0
	.p2align	2, 0x0
Ltmp273:
	.long	Ltmp274-Ltmp273
	.ascii	"String_tree_first_byte_diff.print_result"
	.byte	0
Ltmp274:
	.ascii	"string_tree_first_byte_diff.ml"
	.byte	0
	.p2align	2, 0x0
Ltmp275:
	.long	Ltmp276-Ltmp275
	.ascii	"String_tree_first_byte_diff"
	.byte	0
Ltmp276:
	.ascii	"string_tree_first_byte_diff.ml"
	.byte	0
	.p2align	2, 0x0
Ltmp117:
Ltmp286:
	.long	(Ltmp282-Ltmp286)+1
	.long	5789176
Ltmp287:
	.long	(Ltmp284-Ltmp287)+0
	.long	22029840
	.p2align	2, 0x0
Ltmp282:
	.long	Ltmp283-Ltmp282
	.ascii	"String_tree_first_byte_diff.print_result"
	.byte	0
Ltmp283:
	.ascii	"string_tree_first_byte_diff.ml"
	.byte	0
	.p2align	2, 0x0
Ltmp284:
	.long	Ltmp285-Ltmp284
	.ascii	"String_tree_first_byte_diff"
	.byte	0
Ltmp285:
	.ascii	"string_tree_first_byte_diff.ml"
	.byte	0

	.section	__TEXT,__text,regular,pure_instructions
	.globl	_camlString_tree_first_byte_diff__code_end
_camlString_tree_first_byte_diff__code_end:
.subsections_via_symbols
