	.file	""
	.data
	.globl	_camlString_tree_first_byte_diff__data_begin
_camlString_tree_first_byte_diff__data_begin:
	.text
	.globl	_camlString_tree_first_byte_diff__code_begin
_camlString_tree_first_byte_diff__code_begin:
	nop
	.align	3
	.data
	.align	3
	.globl	_camlString_tree_first_byte_diff__gc_roots
_camlString_tree_first_byte_diff__gc_roots:
L_camlString_tree_first_byte_diff__gc_roots:
	.8byte	_camlString_tree_first_byte_diff
	.8byte	0
	.data
	.align	3
	.8byte	11008
	.globl	_camlString_tree_first_byte_diff
_camlString_tree_first_byte_diff:
L_camlString_tree_first_byte_diff:
	.8byte	_camlString_tree_first_byte_diff__black_box_int_8
	.8byte	_camlString_tree_first_byte_diff__black_box_string_9
	.8byte	_camlString_tree_first_byte_diff__black_box_10
	.8byte	1
	.8byte	1
	.8byte	_camlString_tree_first_byte_diff__print_result_11
	.8byte	_camlString_tree_first_byte_diff__key_12
	.8byte	_camlString_tree_first_byte_diff__build_13
	.8byte	_camlString_tree_first_byte_diff__find_14
	.8byte	_camlString_tree_first_byte_diff__run_15
	.data
	.align	3
	.8byte	4087
	.globl	_camlString_tree_first_byte_diff__run_15
_camlString_tree_first_byte_diff__run_15:
L_camlString_tree_first_byte_diff__run_15:
	.8byte	_caml_curry2
	.8byte	0x280000000000007
	.8byte	_camlString_tree_first_byte_diff__run_7_15_code
	.data
	.align	3
	.8byte	4087
	.globl	_camlString_tree_first_byte_diff__find_14
_camlString_tree_first_byte_diff__find_14:
L_camlString_tree_first_byte_diff__find_14:
	.8byte	_caml_curry2
	.8byte	0x280000000000007
	.8byte	_camlString_tree_first_byte_diff__find_6_14_code
	.data
	.align	3
	.8byte	4087
	.globl	_camlString_tree_first_byte_diff__build_13
_camlString_tree_first_byte_diff__build_13:
L_camlString_tree_first_byte_diff__build_13:
	.8byte	_caml_curry2
	.8byte	0x280000000000007
	.8byte	_camlString_tree_first_byte_diff__build_5_13_code
	.data
	.align	3
	.8byte	3063
	.globl	_camlString_tree_first_byte_diff__key_12
_camlString_tree_first_byte_diff__key_12:
L_camlString_tree_first_byte_diff__key_12:
	.8byte	_camlString_tree_first_byte_diff__key_4_12_code
	.8byte	0x180000000000005
	.data
	.align	3
	.8byte	3063
	.globl	_camlString_tree_first_byte_diff__print_result_11
_camlString_tree_first_byte_diff__print_result_11:
L_camlString_tree_first_byte_diff__print_result_11:
	.8byte	_camlString_tree_first_byte_diff__print_result_3_11_code
	.8byte	0x180000000000005
	.data
	.align	3
	.8byte	3063
	.globl	_camlString_tree_first_byte_diff__black_box_10
_camlString_tree_first_byte_diff__black_box_10:
L_camlString_tree_first_byte_diff__black_box_10:
	.8byte	_camlString_tree_first_byte_diff__black_box_2_10_code
	.8byte	0x180000000000005
	.data
	.align	3
	.8byte	3063
	.globl	_camlString_tree_first_byte_diff__black_box_string_9
_camlString_tree_first_byte_diff__black_box_string_9:
L_camlString_tree_first_byte_diff__black_box_string_9:
	.8byte	_camlString_tree_first_byte_diff__black_box_string_1_9_code
	.8byte	0x180000000000005
	.data
	.align	3
	.8byte	3063
	.globl	_camlString_tree_first_byte_diff__black_box_int_8
_camlString_tree_first_byte_diff__black_box_int_8:
L_camlString_tree_first_byte_diff__black_box_int_8:
	.8byte	_camlString_tree_first_byte_diff__black_box_int_0_8_code
	.8byte	0x180000000000005
	.data
	.align	3
	.8byte	2816
L_camlString_tree_first_byte_diff__block35:
	.8byte	_caml_exn_Invalid_argument
	.8byte	L_camlString_tree_first_byte_diff__string33
	.data
	.align	3
	.8byte	4092
L_camlString_tree_first_byte_diff__string33:
	.ascii	"index out of bounds"
	.space	4
	.byte	4
	.data
	.align	3
	.8byte	3068
	.globl	_camlString_tree_first_byte_diff__immstring83
_camlString_tree_first_byte_diff__immstring83:
L_camlString_tree_first_byte_diff__immstring83:
	.ascii	"_compiler_key_"
	.space	1
	.byte	1
	.data
	.align	3
	.8byte	4868
	.globl	_camlString_tree_first_byte_diff__const_block66
_camlString_tree_first_byte_diff__const_block66:
L_camlString_tree_first_byte_diff__const_block66:
	.8byte	1
	.8byte	1
	.8byte	1
	.8byte	_camlString_tree_first_byte_diff__const_block64
	.data
	.align	3
	.8byte	2828
	.globl	_camlString_tree_first_byte_diff__const_block64
_camlString_tree_first_byte_diff__const_block64:
L_camlString_tree_first_byte_diff__const_block64:
	.8byte	21
	.8byte	_camlString_tree_first_byte_diff__const_block62
	.data
	.align	3
	.8byte	1802
	.globl	_camlString_tree_first_byte_diff__const_block62
_camlString_tree_first_byte_diff__const_block62:
L_camlString_tree_first_byte_diff__const_block62:
	.8byte	1
	.text
	.align	3
	.globl	_camlString_tree_first_byte_diff__black_box_int_0_8_code
_camlString_tree_first_byte_diff__black_box_int_0_8_code:
L_camlString_tree_first_byte_diff__black_box_int_0_8_code:
	.file	1	"string_tree_first_byte_diff.ml"
	.loc	1	1	33
	.cfi_startproc
	.loc	1	1	45
	ret
	.cfi_endproc
	.text
	.align	3
	.globl	_camlString_tree_first_byte_diff__black_box_string_1_9_code
_camlString_tree_first_byte_diff__black_box_string_1_9_code:
L_camlString_tree_first_byte_diff__black_box_string_1_9_code:
	.loc	1	2	36
	.cfi_startproc
	.loc	1	2	51
	ret
	.cfi_endproc
	.text
	.align	3
	.globl	_camlString_tree_first_byte_diff__black_box_2_10_code
_camlString_tree_first_byte_diff__black_box_2_10_code:
L_camlString_tree_first_byte_diff__black_box_2_10_code:
	.loc	1	3	29
	.cfi_startproc
	.loc	1	3	33
	ret
	.cfi_endproc
	.text
	.align	3
	.globl	_camlString_tree_first_byte_diff__print_result_3_11_code
_camlString_tree_first_byte_diff__print_result_3_11_code:
L_camlString_tree_first_byte_diff__print_result_3_11_code:
	.loc	1	11	17
	.cfi_startproc
	sub	sp, sp, #16
	.cfi_adjust_cfa_offset 16
	.cfi_offset 30, -8
	str	lr, [sp, #8]
	ldr	x16, [x28, #40]
	add	x16, x16, #376
	subs	xzr, sp, x16
	b.cc	L120
L121:
	str	x0, [sp, #0]
	adrp	x2, _camlString_tree_first_byte_diff__const_block66@GOTPAGE
	ldr	x2, [x2, _camlString_tree_first_byte_diff__const_block66@GOTPAGEOFF]
	orr	x1, xzr, #1
	adrp	x0, _camlStdlib__Printf__fn$5b$2fworkspace_root$2fprintf.ml$3a27$2c14$2d$2d48$5d_31@GOTPAGE
	ldr	x0, [x0, _camlStdlib__Printf__fn$5b$2fworkspace_root$2fprintf.ml$3a27$2c14$2d$2d48$5d_31@GOTPAGEOFF]
	.file	2	"printf.ml"
	.loc	2	27	2
	bl	_camlCamlinternalFormat__make_printf_120_401_code
L122:
	orr	x1, xzr, x0
	.loc	1	11	44
	ldr	x0, [sp, #0]
	.loc	1	11	44
	and	x0, x0, #2147483647
	.loc	1	11	21
	ldr	x2, [x1, #0]
	.loc	1	11	21
	ldr	lr, [sp, #8]
	add	sp, sp, #16
	.cfi_adjust_cfa_offset -16
	br	x2
	.cfi_adjust_cfa_offset 16
L120:
	movz	x16, #16
	stp	x16, lr, [sp, #-16]!
	bl	_caml_call_realloc_stack
	ldp	x16, lr, [sp], #16
	b	L121
	.cfi_endproc
	.text
	.align	3
	.globl	_camlString_tree_first_byte_diff__key_4_12_code
_camlString_tree_first_byte_diff__key_4_12_code:
L_camlString_tree_first_byte_diff__key_4_12_code:
	.loc	1	16	8
	.cfi_startproc
	sub	sp, sp, #48
	.cfi_adjust_cfa_offset 48
	.cfi_offset 30, -8
	str	lr, [sp, #40]
	orr	x1, xzr, x0
	adrp	x0, _camlStdlib__immstring191@GOTPAGE
	ldr	x0, [x0, _camlStdlib__immstring191@GOTPAGEOFF]
	str	x1, [sp, #16]
	.file	3	"stdlib.ml"
	.loc	3	280	2
	adrp	x8, _caml_format_int@GOTPAGE
	ldr	x8, [x8, _caml_format_int@GOTPAGEOFF]
	bl	_caml_c_call
L185:
	.loc	3	225	37
	ldr	x1, [x0, #-8]
	.loc	3	225	37
	ubfm	x1, x1, #56, #55
	.loc	3	225	37
	ubfm	x1, x1, #18, #63
	.loc	3	225	37
	ubfm	x1, x1, #61, #60
	.loc	3	225	37
	sub	x1, x1, #1
	.loc	3	225	37
	add	x2, x0, x1
	.loc	3	225	37
	str	x0, [sp, #0]
	.loc	3	225	37
	ldrb	w0, [x2, #0]
	.loc	3	225	37
	sub	x0, x1, x0
	orr	x1, xzr, #1
	.loc	3	225	37
	add	x1, x1, x0, lsl #1
	.loc	3	226	23
	add	x0, x1, #28
	.loc	3	226	23
	str	x1, [sp, #8]
	.loc	3	226	10
	adrp	x8, _caml_create_bytes@GOTPAGE
	ldr	x8, [x8, _caml_create_bytes@GOTPAGEOFF]
	bl	_caml_c_call
L186:
	orr	x19, xzr, x0
	movz	x4, #29, lsl #0
	orr	x3, xzr, #1
	orr	x1, xzr, #1
	adrp	x0, _camlString_tree_first_byte_diff__immstring83@GOTPAGE
	ldr	x0, [x0, _camlString_tree_first_byte_diff__immstring83@GOTPAGEOFF]
	orr	x2, xzr, x19
	.loc	3	227	2
	add	fp, sp, #0
	.cfi_remember_state
	.cfi_def_cfa_register %29
	ldr	x16, [x28, #104]
	add	sp, x16, #0
	bl	_caml_blit_string
	add	sp, fp, #0
	.cfi_restore_state
	movz	x3, #29, lsl #0
	orr	x1, xzr, #1
	ldr	x0, [sp, #0]
	orr	x2, xzr, x19
	ldr	x4, [sp, #8]
	.loc	3	228	2
	add	fp, sp, #0
	.cfi_remember_state
	.cfi_def_cfa_register %29
	ldr	x16, [x28, #104]
	add	sp, x16, #0
	bl	_caml_blit_string
	add	sp, fp, #0
	.cfi_restore_state
	movz	x0, #51, lsl #0
	.loc	1	17	32
	ldr	x1, [sp, #16]
	.loc	1	17	32
	and	x0, x1, x0
	.loc	1	17	26
	add	x0, x0, #130
	subs	xzr, x0, #1
	b.ge	L144
	adrp	x0, _camlStdlib__Char__Pmakeblock168@GOTPAGE
	ldr	x0, [x0, _camlStdlib__Char__Pmakeblock168@GOTPAGEOFF]
	.loc	3	40	20
	add	sp, x26, #0
	ldp	x26, x16, [sp], #16
	br	x16
L144:
	subs	xzr, x0, #511
	b.le	L148
	adrp	x0, _camlStdlib__Char__Pmakeblock168@GOTPAGE
	ldr	x0, [x0, _camlStdlib__Char__Pmakeblock168@GOTPAGEOFF]
	.loc	3	40	20
	add	sp, x26, #0
	ldp	x26, x16, [sp], #16
	br	x16
L148:
	str	x0, [sp, #0]
	str	x19, [sp, #8]
	orr	x0, xzr, #3
	.file	4	"bytes.ml"
	.loc	4	60	10
	adrp	x8, _caml_create_bytes@GOTPAGE
	ldr	x8, [x8, _caml_create_bytes@GOTPAGEOFF]
	bl	_caml_c_call
L187:
	orr	x19, xzr, x0
	orr	x2, xzr, #3
	orr	x1, xzr, #1
	orr	x0, xzr, x19
	ldr	x3, [sp, #0]
	.loc	4	61	2
	add	fp, sp, #0
	.cfi_remember_state
	.cfi_def_cfa_register %29
	ldr	x16, [x28, #104]
	add	sp, x16, #0
	bl	_caml_fill_bytes
	add	sp, fp, #0
	.cfi_restore_state
	.loc	3	225	11
	ldr	x0, [x19, #-8]
	.loc	3	225	11
	ubfm	x0, x0, #56, #55
	.loc	3	225	11
	ubfm	x0, x0, #18, #63
	.loc	3	225	11
	ubfm	x0, x0, #61, #60
	.loc	3	225	11
	sub	x0, x0, #1
	.loc	3	225	11
	add	x1, x19, x0
	.loc	3	225	11
	str	x19, [sp, #0]
	.loc	3	225	11
	ldrb	w1, [x1, #0]
	.loc	3	225	11
	sub	x0, x0, x1
	orr	x1, xzr, #1
	.loc	3	225	11
	add	x0, x1, x0, lsl #1
	.loc	3	225	37
	ldr	x2, [sp, #8]
	.loc	3	225	37
	ldr	x1, [x2, #-8]
	.loc	3	225	37
	ubfm	x1, x1, #56, #55
	.loc	3	225	37
	ubfm	x1, x1, #18, #63
	.loc	3	225	37
	ubfm	x1, x1, #61, #60
	.loc	3	225	37
	sub	x1, x1, #1
	.loc	3	225	37
	add	x2, x2, x1
	.loc	3	225	37
	ldrb	w2, [x2, #0]
	.loc	3	225	37
	sub	x1, x1, x2
	orr	x2, xzr, #1
	.loc	3	225	37
	add	x1, x2, x1, lsl #1
	.loc	3	226	23
	add	x2, x0, x1
	.loc	3	226	23
	str	x1, [sp, #24]
	.loc	3	226	23
	str	x0, [sp, #16]
	.loc	3	226	23
	sub	x0, x2, #1
	.loc	3	226	10
	adrp	x8, _caml_create_bytes@GOTPAGE
	ldr	x8, [x8, _caml_create_bytes@GOTPAGEOFF]
	bl	_caml_c_call
L188:
	orr	x19, xzr, x0
	orr	x3, xzr, #1
	orr	x1, xzr, #1
	ldr	x0, [sp, #0]
	orr	x2, xzr, x19
	ldr	x20, [sp, #16]
	orr	x4, xzr, x20
	.loc	3	227	2
	add	fp, sp, #0
	.cfi_remember_state
	.cfi_def_cfa_register %29
	ldr	x16, [x28, #104]
	add	sp, x16, #0
	bl	_caml_blit_string
	add	sp, fp, #0
	.cfi_restore_state
	orr	x1, xzr, #1
	ldr	x0, [sp, #8]
	orr	x2, xzr, x19
	orr	x3, xzr, x20
	ldr	x4, [sp, #24]
	.loc	3	228	2
	add	fp, sp, #0
	.cfi_remember_state
	.cfi_def_cfa_register %29
	ldr	x16, [x28, #104]
	add	sp, x16, #0
	bl	_caml_blit_string
	add	sp, fp, #0
	.cfi_restore_state
	orr	x0, xzr, x19
	ldr	lr, [sp, #40]
	add	sp, sp, #48
	.cfi_adjust_cfa_offset -48
	ret
	.cfi_adjust_cfa_offset 48
	.cfi_endproc
	.text
	.align	3
	.globl	_camlString_tree_first_byte_diff__build_5_13_code
_camlString_tree_first_byte_diff__build_5_13_code:
L_camlString_tree_first_byte_diff__build_5_13_code:
	.loc	1	19	14
	.cfi_startproc
	sub	sp, sp, #48
	.cfi_adjust_cfa_offset 48
	.cfi_offset 30, -8
	str	lr, [sp, #40]
	subs	xzr, x0, x1
	b.le	L194
	orr	x0, xzr, #1
	ldr	lr, [sp, #40]
	add	sp, sp, #48
	.cfi_adjust_cfa_offset -48
	ret
	.cfi_adjust_cfa_offset 48
L194:
	ldr	x16, [x28, #40]
	add	x16, x16, #408
	subs	xzr, sp, x16
	b.cc	L221
L222:
	.loc	1	22	14
	add	x2, x0, x1
	.loc	1	22	14
	str	x0, [sp, #8]
	.loc	1	22	14
	sub	x0, x2, #1
	.loc	1	22	14
	sbfm	x0, x0, #1, #63
	.loc	1	22	14
	ubfm	x2, x0, #63, #63
	.loc	1	22	14
	add	x0, x0, x2
	.loc	1	22	14
	sbfm	x0, x0, #1, #63
	orr	x2, xzr, #1
	.loc	1	22	14
	add	x2, x2, x0, lsl #1
	.loc	1	23	50
	add	x0, x2, #2
	.loc	1	23	50
	str	x2, [sp, #0]
	.loc	1	23	44
	bl	_camlString_tree_first_byte_diff__build_5_13_code
L223:
	str	x0, [sp, #16]
	ldr	x0, [sp, #0]
	.loc	1	23	30
	bl	_camlString_tree_first_byte_diff__key_4_12_code
L224:
	str	x0, [sp, #24]
	.loc	1	23	19
	ldr	x0, [sp, #0]
	.loc	1	23	19
	sub	x1, x0, #2
	ldr	x0, [sp, #8]
	.loc	1	23	10
	bl	_camlString_tree_first_byte_diff__build_5_13_code
L225:
	orr	x1, xzr, x0
	.loc	1	23	4
	ldr	x16, [x28, #0]
	sub	x27, x27, #40
	subs	xzr, x27, x16
	b.cc	L228
L227:
	add	x0, x27, #8
	orr	x2, xzr, #4096
	.loc	1	23	4
	str	x2, [x0, #-8]
	.loc	1	23	4
	str	x1, [x0, #0]
	.loc	1	23	4
	ldr	x1, [sp, #24]
	.loc	1	23	4
	str	x1, [x0, #8]
	.loc	1	23	4
	ldr	x1, [sp, #0]
	.loc	1	23	4
	str	x1, [x0, #16]
	.loc	1	23	4
	ldr	x1, [sp, #16]
	.loc	1	23	4
	str	x1, [x0, #24]
	ldr	lr, [sp, #40]
	add	sp, sp, #48
	.cfi_adjust_cfa_offset -48
	ret
	.cfi_adjust_cfa_offset 48
L228:
	bl	_caml_call_gc
L226:
	b	L227
L221:
	movz	x16, #48
	stp	x16, lr, [sp, #-16]!
	bl	_caml_call_realloc_stack
	ldp	x16, lr, [sp], #16
	b	L222
	.cfi_endproc
	.text
	.align	3
	.globl	_camlString_tree_first_byte_diff__find_6_14_code
_camlString_tree_first_byte_diff__find_6_14_code:
L_camlString_tree_first_byte_diff__find_6_14_code:
	.loc	1	25	28
	.cfi_startproc
	sub	sp, sp, #16
	.cfi_adjust_cfa_offset 16
	.cfi_offset 30, -8
	str	lr, [sp, #8]
	orr	x19, xzr, x0
	orr	x20, xzr, x1
	tbz	x20, #0, L239
L237:
	movn	x0, #0
	ldr	lr, [sp, #8]
	add	sp, sp, #16
	.cfi_adjust_cfa_offset -16
	ret
	.cfi_adjust_cfa_offset 16
L239:
	.loc	1	27	4
	ldr	x1, [x20, #8]
	orr	x0, xzr, x19
	.loc	1	28	12
	add	fp, sp, #0
	.cfi_remember_state
	.cfi_def_cfa_register %29
	ldr	x16, [x28, #104]
	add	sp, x16, #0
	bl	_caml_string_compare
	add	sp, fp, #0
	.cfi_restore_state
	subs	xzr, x0, #1
	b.ne	L246
	.loc	1	27	4
	ldr	x0, [x20, #16]
	ldr	lr, [sp, #8]
	add	sp, sp, #16
	.cfi_adjust_cfa_offset -16
	ret
	.cfi_adjust_cfa_offset 16
L246:
	subs	xzr, x0, #1
	b.ge	L251
	.loc	1	27	4
	ldr	x20, [x20, #0]
	tbz	x20, #0, L239
	b	L237
L251:
	.loc	1	27	4
	ldr	x20, [x20, #24]
	tbz	x20, #0, L239
	b	L237
	.cfi_endproc
	.text
	.align	3
	.globl	_camlString_tree_first_byte_diff__run_7_15_code
_camlString_tree_first_byte_diff__run_7_15_code:
L_camlString_tree_first_byte_diff__run_7_15_code:
	.loc	1	31	23
	.cfi_startproc
	sub	sp, sp, #80
	.cfi_adjust_cfa_offset 80
	.cfi_offset 30, -8
	str	lr, [sp, #72]
	ldr	x16, [x28, #40]
	add	x16, x16, #440
	subs	xzr, sp, x16
	b.cc	L408
L409:
	orr	x2, xzr, x0
	str	x2, [sp, #32]
	str	x1, [sp, #40]
	orr	x1, xzr, #127
	orr	x0, xzr, #1
	.loc	1	32	13
	bl	_camlString_tree_first_byte_diff__build_5_13_code
L410:
	orr	x1, xzr, x0
	str	x1, [sp, #48]
	orr	x1, xzr, #1
	adrp	x0, _camlStdlib__immstring191@GOTPAGE
	ldr	x0, [x0, _camlStdlib__immstring191@GOTPAGEOFF]
	.loc	3	280	2
	adrp	x8, _caml_format_int@GOTPAGE
	ldr	x8, [x8, _caml_format_int@GOTPAGEOFF]
	bl	_caml_c_call
L411:
	.loc	3	225	37
	ldr	x1, [x0, #-8]
	.loc	3	225	37
	ubfm	x1, x1, #56, #55
	.loc	3	225	37
	ubfm	x1, x1, #18, #63
	.loc	3	225	37
	ubfm	x1, x1, #61, #60
	.loc	3	225	37
	sub	x1, x1, #1
	.loc	3	225	37
	add	x2, x0, x1
	.loc	3	225	37
	str	x0, [sp, #0]
	.loc	3	225	37
	ldrb	w0, [x2, #0]
	.loc	3	225	37
	sub	x0, x1, x0
	orr	x1, xzr, #1
	.loc	3	225	37
	add	x1, x1, x0, lsl #1
	.loc	3	226	23
	add	x0, x1, #28
	.loc	3	226	23
	str	x1, [sp, #8]
	.loc	3	226	10
	adrp	x8, _caml_create_bytes@GOTPAGE
	ldr	x8, [x8, _caml_create_bytes@GOTPAGEOFF]
	bl	_caml_c_call
L412:
	orr	x19, xzr, x0
	movz	x4, #29, lsl #0
	orr	x3, xzr, #1
	orr	x1, xzr, #1
	adrp	x0, _camlString_tree_first_byte_diff__immstring83@GOTPAGE
	ldr	x0, [x0, _camlString_tree_first_byte_diff__immstring83@GOTPAGEOFF]
	orr	x2, xzr, x19
	.loc	3	227	2
	add	fp, sp, #0
	.cfi_remember_state
	.cfi_def_cfa_register %29
	ldr	x16, [x28, #104]
	add	sp, x16, #0
	bl	_caml_blit_string
	add	sp, fp, #0
	.cfi_restore_state
	movz	x3, #29, lsl #0
	orr	x1, xzr, #1
	ldr	x0, [sp, #0]
	orr	x2, xzr, x19
	str	x19, [sp, #0]
	ldr	x4, [sp, #8]
	.loc	3	228	2
	add	fp, sp, #0
	.cfi_remember_state
	.cfi_def_cfa_register %29
	ldr	x16, [x28, #104]
	add	sp, x16, #0
	bl	_caml_blit_string
	add	sp, fp, #0
	.cfi_restore_state
	orr	x0, xzr, #3
	.loc	4	60	10
	adrp	x8, _caml_create_bytes@GOTPAGE
	ldr	x8, [x8, _caml_create_bytes@GOTPAGEOFF]
	bl	_caml_c_call
L413:
	orr	x19, xzr, x0
	movz	x3, #131, lsl #0
	orr	x2, xzr, #3
	orr	x1, xzr, #1
	orr	x0, xzr, x19
	.loc	4	61	2
	add	fp, sp, #0
	.cfi_remember_state
	.cfi_def_cfa_register %29
	ldr	x16, [x28, #104]
	add	sp, x16, #0
	bl	_caml_fill_bytes
	add	sp, fp, #0
	.cfi_restore_state
	.loc	3	225	11
	ldr	x0, [x19, #-8]
	.loc	3	225	11
	ubfm	x0, x0, #56, #55
	.loc	3	225	11
	ubfm	x0, x0, #18, #63
	.loc	3	225	11
	ubfm	x0, x0, #61, #60
	.loc	3	225	11
	sub	x0, x0, #1
	.loc	3	225	11
	add	x1, x19, x0
	.loc	3	225	11
	str	x19, [sp, #8]
	.loc	3	225	11
	ldrb	w1, [x1, #0]
	.loc	3	225	11
	sub	x0, x0, x1
	orr	x1, xzr, #1
	.loc	3	225	11
	add	x0, x1, x0, lsl #1
	.loc	3	225	37
	ldr	x2, [sp, #0]
	.loc	3	225	37
	ldr	x1, [x2, #-8]
	.loc	3	225	37
	ubfm	x1, x1, #56, #55
	.loc	3	225	37
	ubfm	x1, x1, #18, #63
	.loc	3	225	37
	ubfm	x1, x1, #61, #60
	.loc	3	225	37
	sub	x1, x1, #1
	.loc	3	225	37
	add	x2, x2, x1
	.loc	3	225	37
	ldrb	w2, [x2, #0]
	.loc	3	225	37
	sub	x1, x1, x2
	orr	x2, xzr, #1
	.loc	3	225	37
	add	x1, x2, x1, lsl #1
	.loc	3	226	23
	add	x2, x0, x1
	.loc	3	226	23
	str	x1, [sp, #24]
	.loc	3	226	23
	str	x0, [sp, #16]
	.loc	3	226	23
	sub	x0, x2, #1
	.loc	3	226	10
	adrp	x8, _caml_create_bytes@GOTPAGE
	ldr	x8, [x8, _caml_create_bytes@GOTPAGEOFF]
	bl	_caml_c_call
L414:
	orr	x19, xzr, x0
	orr	x3, xzr, #1
	orr	x1, xzr, #1
	ldr	x0, [sp, #8]
	orr	x2, xzr, x19
	ldr	x20, [sp, #16]
	orr	x4, xzr, x20
	.loc	3	227	2
	add	fp, sp, #0
	.cfi_remember_state
	.cfi_def_cfa_register %29
	ldr	x16, [x28, #104]
	add	sp, x16, #0
	bl	_caml_blit_string
	add	sp, fp, #0
	.cfi_restore_state
	orr	x1, xzr, #1
	ldr	x0, [sp, #0]
	orr	x2, xzr, x19
	orr	x3, xzr, x20
	ldr	x4, [sp, #24]
	.loc	3	228	2
	add	fp, sp, #0
	.cfi_remember_state
	.cfi_def_cfa_register %29
	ldr	x16, [x28, #104]
	add	sp, x16, #0
	bl	_caml_blit_string
	add	sp, fp, #0
	.cfi_restore_state
	movz	x0, #129, lsl #0
	orr	x1, xzr, x19
	.file	5	"array.ml"
	.loc	5	85	13
	adrp	x8, _caml_array_make@GOTPAGE
	ldr	x8, [x8, _caml_array_make@GOTPAGEOFF]
	bl	_caml_c_call
L415:
	str	x0, [sp, #0]
	orr	x19, xzr, #1
L308:
	orr	x0, xzr, #1
	.loc	5	86	3
	add	x0, x0, x19, lsl #1
	.loc	5	86	3
	str	x19, [sp, #8]
	str	x0, [sp, #16]
	.loc	5	87	22
	bl	_camlString_tree_first_byte_diff__key_4_12_code
L416:
	orr	x1, xzr, x0
	.loc	5	87	5
	ldr	x20, [sp, #0]
	.loc	5	87	5
	ldrb	w0, [x20, #-8]
	ldr	x19, [sp, #8]
	ldr	x2, [sp, #16]
	subs	xzr, x0, #254
	b.ne	L321
	.loc	5	87	5
	add	x0, x20, x2, lsl #2
	.loc	5	87	5
	ldr	d0, [x1, #0]
	.loc	5	87	5
	str	d0, [x0, #-4]
	b	L327
L321:
	.loc	5	87	5
	add	x0, x20, x2, lsl #2
	.loc	5	87	5
	sub	x0, x0, #4
	.loc	5	87	5
	add	fp, sp, #0
	.cfi_remember_state
	.cfi_def_cfa_register %29
	ldr	x16, [x28, #104]
	add	sp, x16, #0
	bl	_caml_modify
	add	sp, fp, #0
	.cfi_restore_state
L327:
	.loc	5	86	3
	add	x19, x19, #1
	subs	xzr, x19, #63
	b.le	L308
	ldr	x2, [sp, #32]
	ldr	x0, [sp, #40]
	ldr	x1, [sp, #48]
	subs	xzr, x0, #3
	b.lt	L386
	.loc	1	35	2
	str	x20, [sp, #0]
	.loc	1	35	2
	sbfm	x3, x0, #1, #63
	str	x3, [sp, #8]
	orr	x0, xzr, #1
	orr	x4, xzr, #1
L345:
	orr	x5, xzr, #1
	.loc	1	35	2
	add	x5, x5, x4, lsl #1
	subs	xzr, x2, #3
	b.lt	L376
	.loc	1	36	4
	str	x5, [sp, #16]
	.loc	1	36	4
	str	x4, [sp, #64]
	.loc	1	36	4
	sbfm	x2, x2, #1, #63
	str	x2, [sp, #24]
	orr	x4, xzr, #1
L357:
	.loc	1	37	49
	str	x0, [sp, #56]
	.loc	1	37	49
	add	x0, x5, x4, lsl #1
	.loc	1	37	49
	str	x4, [sp, #40]
	.loc	1	37	48
	and	x0, x0, #127
	.loc	1	37	25
	add	x0, x20, x0, lsl #2
	.loc	1	37	25
	ldr	x0, [x0, #-4]
	.loc	1	37	20
	bl	_camlString_tree_first_byte_diff__find_6_14_code
L417:
	orr	x1, xzr, x0
	.loc	1	37	13
	ldr	x0, [sp, #56]
	.loc	1	37	13
	add	x0, x0, x1
	.loc	1	37	13
	sub	x0, x0, #1
	.loc	1	36	4
	ldr	x4, [sp, #40]
	.loc	1	36	4
	add	x4, x4, #1
	ldr	x2, [sp, #32]
	ldr	x1, [sp, #48]
	ldr	x20, [sp, #0]
	ldr	x3, [sp, #8]
	ldr	x5, [sp, #16]
	ldr	x6, [sp, #24]
	subs	xzr, x4, x6
	b.le	L357
	ldr	x4, [sp, #64]
L376:
	.loc	1	35	2
	add	x4, x4, #1
	subs	xzr, x4, x3
	b.le	L345
	ldr	lr, [sp, #72]
	add	sp, sp, #80
	.cfi_adjust_cfa_offset -80
	ret
	.cfi_adjust_cfa_offset 80
L386:
	orr	x0, xzr, #1
	ldr	lr, [sp, #72]
	add	sp, sp, #80
	.cfi_adjust_cfa_offset -80
	ret
	.cfi_adjust_cfa_offset 80
L408:
	movz	x16, #80
	stp	x16, lr, [sp, #-16]!
	bl	_caml_call_realloc_stack
	ldp	x16, lr, [sp], #16
	b	L409
	.cfi_endproc
	.text
	.align	3
	.globl	_camlString_tree_first_byte_diff__entry
_camlString_tree_first_byte_diff__entry:
L_camlString_tree_first_byte_diff__entry:
	.cfi_startproc
	sub	sp, sp, #32
	.cfi_adjust_cfa_offset 32
	.cfi_offset 30, -8
	str	lr, [sp, #24]
	orr	x0, xzr, #1
	.loc	1	6	18
	adrp	x8, _caml_sys_argv@GOTPAGE
	ldr	x8, [x8, _caml_sys_argv@GOTPAGEOFF]
	bl	_caml_c_call
L526:
	.loc	1	6	5
	ldr	x0, [x0, #-8]
	.loc	1	6	5
	ubfm	x0, x0, #56, #55
	.loc	1	6	5
	ubfm	x0, x0, #17, #63
	subs	xzr, x0, #3
	b.le	L450
	orr	x0, xzr, #1
	.loc	1	6	50
	adrp	x8, _caml_sys_argv@GOTPAGE
	ldr	x8, [x8, _caml_sys_argv@GOTPAGEOFF]
	bl	_caml_c_call
L527:
	.loc	1	6	50
	ldr	x1, [x0, #-8]
	.loc	1	6	50
	ubfm	x1, x1, #56, #55
	.loc	1	6	50
	ubfm	x1, x1, #17, #63
	subs	xzr, x1, #3
	b.ls	L447
	.loc	1	6	50
	ldr	x0, [x0, #8]
	.loc	1	6	36
	adrp	x8, _caml_int_of_string@GOTPAGE
	ldr	x8, [x8, _caml_int_of_string@GOTPAGEOFF]
	bl	_caml_c_call
L528:
	orr	x2, xzr, x0
	b	L453
L447:
	adrp	x0, L_camlString_tree_first_byte_diff__block35@PAGE
	add	x0, x0, L_camlString_tree_first_byte_diff__block35@PAGEOFF
	.loc	1	6	50
	add	sp, x26, #0
	ldp	x26, x16, [sp], #16
	br	x16
L450:
	movz	x0, #3393, lsl #0
	movk	x0, #3, lsl #16
	orr	x2, xzr, x0
L453:
	adrp	x0, _camlString_tree_first_byte_diff@GOTPAGE
	ldr	x0, [x0, _camlString_tree_first_byte_diff@GOTPAGEOFF]
	add	x0, x0, #24
	orr	x1, xzr, x2
	str	x2, [sp, #0]
	add	fp, sp, #0
	.cfi_remember_state
	.cfi_def_cfa_register %29
	ldr	x16, [x28, #104]
	add	sp, x16, #0
	bl	_caml_initialize
	add	sp, fp, #0
	.cfi_restore_state
	orr	x0, xzr, #1
	.loc	1	9	18
	adrp	x8, _caml_sys_argv@GOTPAGE
	ldr	x8, [x8, _caml_sys_argv@GOTPAGEOFF]
	bl	_caml_c_call
L529:
	.loc	1	9	5
	ldr	x0, [x0, #-8]
	.loc	1	9	5
	ubfm	x0, x0, #56, #55
	.loc	1	9	5
	ubfm	x0, x0, #17, #63
	ldr	x1, [sp, #0]
	subs	xzr, x0, #5
	b.le	L483
	str	x1, [sp, #0]
	orr	x0, xzr, #1
	.loc	1	9	50
	adrp	x8, _caml_sys_argv@GOTPAGE
	ldr	x8, [x8, _caml_sys_argv@GOTPAGEOFF]
	bl	_caml_c_call
L530:
	.loc	1	9	50
	ldr	x1, [x0, #-8]
	.loc	1	9	50
	ubfm	x1, x1, #56, #55
	.loc	1	9	50
	ubfm	x1, x1, #17, #63
	ldr	x2, [sp, #0]
	subs	xzr, x1, #5
	b.ls	L480
	.loc	1	9	50
	str	x2, [sp, #0]
	.loc	1	9	50
	ldr	x0, [x0, #16]
	.loc	1	9	36
	adrp	x8, _caml_int_of_string@GOTPAGE
	ldr	x8, [x8, _caml_int_of_string@GOTPAGEOFF]
	bl	_caml_c_call
L531:
	orr	x19, xzr, x0
	ldr	x0, [sp, #0]
	orr	x2, xzr, x0
	b	L486
L480:
	adrp	x0, L_camlString_tree_first_byte_diff__block35@PAGE
	add	x0, x0, L_camlString_tree_first_byte_diff__block35@PAGEOFF
	.loc	1	9	50
	add	sp, x26, #0
	ldp	x26, x16, [sp], #16
	br	x16
L483:
	movz	x0, #21, lsl #0
	orr	x19, xzr, x0
	orr	x2, xzr, x1
L486:
	str	x2, [sp, #0]
	adrp	x0, _camlString_tree_first_byte_diff@GOTPAGE
	ldr	x0, [x0, _camlString_tree_first_byte_diff@GOTPAGEOFF]
	add	x0, x0, #32
	orr	x1, xzr, x19
	add	fp, sp, #0
	.cfi_remember_state
	.cfi_def_cfa_register %29
	ldr	x16, [x28, #104]
	add	sp, x16, #0
	bl	_caml_initialize
	add	sp, fp, #0
	.cfi_restore_state
	ldr	x16, [x28, #40]
	add	x16, x16, #392
	subs	xzr, sp, x16
	b.cc	L532
L533:
	orr	x0, xzr, x19
	.loc	1	42	45
	bl	_camlString_tree_first_byte_diff__black_box_int_0_8_code
L534:
	str	x0, [sp, #8]
	ldr	x0, [sp, #0]
	.loc	1	42	27
	bl	_camlString_tree_first_byte_diff__black_box_int_0_8_code
L535:
	ldr	x1, [sp, #8]
	.loc	1	42	22
	bl	_camlString_tree_first_byte_diff__run_7_15_code
L536:
	str	x0, [sp, #0]
	adrp	x2, _camlString_tree_first_byte_diff__const_block66@GOTPAGE
	ldr	x2, [x2, _camlString_tree_first_byte_diff__const_block66@GOTPAGEOFF]
	orr	x1, xzr, #1
	adrp	x0, _camlStdlib__Printf__fn$5b$2fworkspace_root$2fprintf.ml$3a27$2c14$2d$2d48$5d_31@GOTPAGE
	ldr	x0, [x0, _camlStdlib__Printf__fn$5b$2fworkspace_root$2fprintf.ml$3a27$2c14$2d$2d48$5d_31@GOTPAGEOFF]
	.loc	2	27	2
	bl	_camlCamlinternalFormat__make_printf_120_401_code
L537:
	orr	x1, xzr, x0
	.loc	1	11	44
	ldr	x0, [sp, #0]
	.loc	1	11	44
	and	x0, x0, #2147483647
	.loc	1	11	21
	ldr	x2, [x1, #0]
	.loc	1	11	21
	blr	x2
L538:
	orr	x0, xzr, #1
	ldr	lr, [sp, #24]
	add	sp, sp, #32
	.cfi_adjust_cfa_offset -32
	ret
	.cfi_adjust_cfa_offset 32
L532:
	movz	x16, #32
	stp	x16, lr, [sp, #-16]!
	bl	_caml_call_realloc_stack
	ldp	x16, lr, [sp], #16
	b	L533
	.cfi_endproc
	.data
	.align	3
	.text
	.globl	_camlString_tree_first_byte_diff__code_end
_camlString_tree_first_byte_diff__code_end:
	.data
	.8byte	0
	.globl	_camlString_tree_first_byte_diff__data_end
_camlString_tree_first_byte_diff__data_end:
	.8byte	0
	.align	3
	.globl	_camlString_tree_first_byte_diff__frametable
_camlString_tree_first_byte_diff__frametable:
	.8byte	28
	.4byte	(L538 - .) + 0
	.2byte	33
	.2byte	0
	.align	2
	.4byte	(L539 - .) + 0
	.align	3
	.4byte	(L537 - .) + 0
	.2byte	33
	.2byte	0
	.align	2
	.4byte	(L540 - .) + 0
	.align	3
	.4byte	(L536 - .) + 0
	.2byte	33
	.2byte	0
	.align	2
	.4byte	(L541 - .) + 0
	.align	3
	.4byte	(L535 - .) + 0
	.2byte	33
	.2byte	0
	.align	2
	.4byte	(L542 - .) + 0
	.align	3
	.4byte	(L534 - .) + 0
	.2byte	33
	.2byte	0
	.align	2
	.4byte	(L543 - .) + 0
	.align	3
	.4byte	(L531 - .) + 0
	.2byte	33
	.2byte	0
	.align	2
	.4byte	(L544 - .) + 0
	.align	3
	.4byte	(L530 - .) + 0
	.2byte	33
	.2byte	0
	.align	2
	.4byte	(L545 - .) + 0
	.align	3
	.4byte	(L529 - .) + 0
	.2byte	33
	.2byte	0
	.align	2
	.4byte	(L546 - .) + 0
	.align	3
	.4byte	(L528 - .) + 0
	.2byte	33
	.2byte	0
	.align	2
	.4byte	(L547 - .) + 0
	.align	3
	.4byte	(L527 - .) + 0
	.2byte	33
	.2byte	0
	.align	2
	.4byte	(L548 - .) + 0
	.align	3
	.4byte	(L526 - .) + 0
	.2byte	33
	.2byte	0
	.align	2
	.4byte	(L549 - .) + 0
	.align	3
	.4byte	(L417 - .) + 0
	.2byte	81
	.2byte	2
	.2byte	0
	.2byte	48
	.align	2
	.4byte	(L550 - .) + 0
	.align	3
	.4byte	(L416 - .) + 0
	.2byte	81
	.2byte	2
	.2byte	0
	.2byte	48
	.align	2
	.4byte	(L551 - .) + 0
	.align	3
	.4byte	(L415 - .) + 0
	.2byte	81
	.2byte	1
	.2byte	48
	.align	2
	.4byte	(L552 - .) + 0
	.align	3
	.4byte	(L414 - .) + 0
	.2byte	81
	.2byte	3
	.2byte	0
	.2byte	8
	.2byte	48
	.align	2
	.4byte	(L553 - .) + 0
	.align	3
	.4byte	(L413 - .) + 0
	.2byte	81
	.2byte	2
	.2byte	0
	.2byte	48
	.align	2
	.4byte	(L554 - .) + 0
	.align	3
	.4byte	(L412 - .) + 0
	.2byte	81
	.2byte	2
	.2byte	0
	.2byte	48
	.align	2
	.4byte	(L555 - .) + 0
	.align	3
	.4byte	(L411 - .) + 0
	.2byte	81
	.2byte	1
	.2byte	48
	.align	2
	.4byte	(L556 - .) + 0
	.align	3
	.4byte	(L410 - .) + 0
	.2byte	81
	.2byte	0
	.align	2
	.4byte	(L557 - .) + 0
	.align	3
	.4byte	(L226 - .) + 0
	.2byte	50
	.2byte	3
	.2byte	3
	.2byte	16
	.2byte	24
	.byte	1
	.byte	3
	.align	3
	.4byte	(L225 - .) + 0
	.2byte	49
	.2byte	2
	.2byte	16
	.2byte	24
	.align	2
	.4byte	(L558 - .) + 0
	.align	3
	.4byte	(L224 - .) + 0
	.2byte	49
	.2byte	1
	.2byte	16
	.align	2
	.4byte	(L559 - .) + 0
	.align	3
	.4byte	(L223 - .) + 0
	.2byte	49
	.2byte	0
	.align	2
	.4byte	(L560 - .) + 0
	.align	3
	.4byte	(L188 - .) + 0
	.2byte	49
	.2byte	2
	.2byte	0
	.2byte	8
	.align	2
	.4byte	(L561 - .) + 0
	.align	3
	.4byte	(L187 - .) + 0
	.2byte	49
	.2byte	1
	.2byte	8
	.align	2
	.4byte	(L562 - .) + 0
	.align	3
	.4byte	(L186 - .) + 0
	.2byte	49
	.2byte	1
	.2byte	0
	.align	2
	.4byte	(L563 - .) + 0
	.align	3
	.4byte	(L185 - .) + 0
	.2byte	49
	.2byte	0
	.align	2
	.4byte	(L564 - .) + 0
	.align	3
	.4byte	(L122 - .) + 0
	.2byte	17
	.2byte	0
	.align	2
	.4byte	(L565 - .) + 0
	.align	3
	.align	2
L552:
	.4byte	(L567 - .) + 1
	.4byte	44578008
	.4byte	(L569 - .) + 0
	.4byte	17315056
	.align	2
L550:
	.4byte	(L569 - .) + 0
	.4byte	19419704
	.align	2
L543:
	.4byte	(L570 - .) + 0
	.4byte	22066696
	.align	2
L562:
	.4byte	(L572 - .) + 1
	.4byte	31467664
	.4byte	(L574 - .) + 1
	.4byte	23070816
	.4byte	(L575 - .) + 0
	.4byte	8915304
	.align	2
L561:
	.4byte	(L577 - .) + 1
	.4byte	118499584
	.4byte	(L575 - .) + 0
	.4byte	8915600
	.align	2
L559:
	.4byte	(L578 - .) + 0
	.4byte	12089640
	.align	2
L557:
	.4byte	(L569 - .) + 0
	.4byte	16790712
	.align	2
L545:
	.4byte	(L579 - .) + 0
	.4byte	4770256
	.align	2
L540:
	.4byte	(L581 - .) + 1
	.4byte	14158328
	.4byte	(L582 - .) + 1
	.4byte	17847640
	.4byte	(L583 - .) + 1
	.4byte	19940632
	.4byte	(L584 - .) + 1
	.4byte	5789176
	.4byte	(L570 - .) + 0
	.4byte	22029840
	.align	2
L553:
	.4byte	(L577 - .) + 1
	.4byte	118499584
	.4byte	(L575 - .) + 1
	.4byte	8915600
	.4byte	(L567 - .) + 1
	.4byte	44587224
	.4byte	(L569 - .) + 0
	.4byte	17315056
	.align	2
L548:
	.4byte	(L585 - .) + 0
	.4byte	3197392
	.align	2
L541:
	.4byte	(L570 - .) + 0
	.4byte	22043152
	.align	2
L564:
	.4byte	(L586 - .) + 1
	.4byte	146802840
	.4byte	(L587 - .) + 0
	.4byte	-2147414016
	.align	2
L556:
	.4byte	(L586 - .) + 1
	.4byte	146802840
	.4byte	(L587 - .) + 1
	.4byte	-2147414016
	.4byte	(L567 - .) + 1
	.4byte	44587224
	.4byte	(L569 - .) + 0
	.4byte	17315056
	.align	2
L560:
	.4byte	(L578 - .) + 0
	.4byte	12104176
	.align	2
L555:
	.4byte	(L577 - .) + 1
	.4byte	118499584
	.4byte	(L575 - .) + 1
	.4byte	8962704
	.4byte	(L567 - .) + 1
	.4byte	44587224
	.4byte	(L569 - .) + 0
	.4byte	17315056
	.align	2
L539:
	.4byte	(L584 - .) + 1
	.4byte	5789176
	.4byte	(L570 - .) + 0
	.4byte	22029840
	.align	2
L565:
	.4byte	(L581 - .) + 1
	.4byte	14158328
	.4byte	(L582 - .) + 1
	.4byte	17847640
	.4byte	(L583 - .) + 1
	.4byte	19940632
	.4byte	(L584 - .) + 0
	.4byte	5789176
	.align	2
L547:
	.4byte	(L585 - .) + 0
	.4byte	3183088
	.align	2
L563:
	.4byte	(L577 - .) + 1
	.4byte	118499584
	.4byte	(L575 - .) + 0
	.4byte	8962704
	.align	2
L558:
	.4byte	(L578 - .) + 0
	.4byte	12069088
	.align	2
L554:
	.4byte	(L572 - .) + 1
	.4byte	31467664
	.4byte	(L574 - .) + 1
	.4byte	23070816
	.4byte	(L575 - .) + 1
	.4byte	8915304
	.4byte	(L567 - .) + 1
	.4byte	44587224
	.4byte	(L569 - .) + 0
	.4byte	17315056
	.align	2
L544:
	.4byte	(L579 - .) + 0
	.4byte	4755952
	.align	2
L546:
	.4byte	(L579 - .) + 0
	.4byte	4737232
	.align	2
L542:
	.4byte	(L570 - .) + 0
	.4byte	22048096
	.align	2
L551:
	.4byte	(L567 - .) + 1
	.4byte	45635800
	.4byte	(L569 - .) + 0
	.4byte	17315056
	.align	2
L549:
	.4byte	(L585 - .) + 0
	.4byte	3164368
L576:
	.ascii	"stdlib.ml\0"
L568:
	.ascii	"string_tree_first_byte_diff.ml\0"
L580:
	.ascii	"printf.ml\0"
L571:
	.ascii	"bytes.ml\0"
L573:
	.ascii	"string.ml\0"
L566:
	.ascii	"array.ml\0"
	.align	2
L578:
	.4byte	(L568 - .) + 0
	.ascii	"String_tree_first_byte_diff.build\0"
	.align	2
L577:
	.4byte	(L576 - .) + 0
	.ascii	"Stdlib.(^)\0"
	.align	2
L579:
	.4byte	(L568 - .) + 0
	.ascii	"String_tree_first_byte_diff.reps\0"
	.align	2
L572:
	.4byte	(L571 - .) + 0
	.ascii	"Stdlib__Bytes.make\0"
	.align	2
L567:
	.4byte	(L566 - .) + 0
	.ascii	"Stdlib__Array.init\0"
	.align	2
L584:
	.4byte	(L568 - .) + 0
	.ascii	"String_tree_first_byte_diff.print_result\0"
	.align	2
L585:
	.4byte	(L568 - .) + 0
	.ascii	"String_tree_first_byte_diff.n\0"
	.align	2
L583:
	.4byte	(L580 - .) + 0
	.ascii	"Stdlib__Printf.printf\0"
	.align	2
L582:
	.4byte	(L580 - .) + 0
	.ascii	"Stdlib__Printf.fprintf\0"
	.align	2
L575:
	.4byte	(L568 - .) + 0
	.ascii	"String_tree_first_byte_diff.key\0"
	.align	2
L587:
	.4byte	(L568 - .) + 0
	.2byte	67
	.2byte	82
	.4byte	82
	.ascii	"String_tree_first_byte_diff.key\0"
	.align	2
L586:
	.4byte	(L576 - .) + 0
	.ascii	"Stdlib.string_of_int\0"
	.align	2
L581:
	.4byte	(L580 - .) + 0
	.ascii	"Stdlib__Printf.kfprintf\0"
	.align	2
L570:
	.4byte	(L568 - .) + 0
	.ascii	"String_tree_first_byte_diff\0"
	.align	2
L569:
	.4byte	(L568 - .) + 0
	.ascii	"String_tree_first_byte_diff.run\0"
	.align	2
L574:
	.4byte	(L573 - .) + 0
	.ascii	"Stdlib__String.make\0"
	.align	3
