	.section	__TEXT,__text,regular,pure_instructions
	.build_version macos, 16, 0
	.globl	_camlLayered_try_raise_hit_only__code_begin
_camlLayered_try_raise_hit_only__code_begin:
	.section	__DATA,__data
	.globl	_camlLayered_try_raise_hit_only__data_begin
_camlLayered_try_raise_hit_only__data_begin:
	.section	__TEXT,__text,regular,pure_instructions
	.globl	_camlLayered_try_raise_hit_only__black_box_int_0_8_code ; -- Begin function _camlLayered_try_raise_hit_only__black_box_int_0_8_code
	.p2align	2
_camlLayered_try_raise_hit_only__black_box_int_0_8_code: ; @"\01_camlLayered_try_raise_hit_only__black_box_int_0_8_code"
	.cfi_startproc
; %bb.0:                                ; %L1
	; InlineAsm Start
	; InlineAsm End
	ret
	.cfi_endproc
                                        ; -- End function
	.globl	_camlLayered_try_raise_hit_only__black_box_string_1_9_code ; -- Begin function _camlLayered_try_raise_hit_only__black_box_string_1_9_code
	.p2align	2
_camlLayered_try_raise_hit_only__black_box_string_1_9_code: ; @"\01_camlLayered_try_raise_hit_only__black_box_string_1_9_code"
	.cfi_startproc
; %bb.0:                                ; %L1
	; InlineAsm Start
	; InlineAsm End
	ret
	.cfi_endproc
                                        ; -- End function
	.globl	_camlLayered_try_raise_hit_only__black_box_2_10_code ; -- Begin function _camlLayered_try_raise_hit_only__black_box_2_10_code
	.p2align	2
_camlLayered_try_raise_hit_only__black_box_2_10_code: ; @"\01_camlLayered_try_raise_hit_only__black_box_2_10_code"
	.cfi_startproc
; %bb.0:                                ; %L1
	; InlineAsm Start
	; InlineAsm End
	ret
	.cfi_endproc
                                        ; -- End function
	.globl	_camlLayered_try_raise_hit_only__print_result_3_11_code ; -- Begin function _camlLayered_try_raise_hit_only__print_result_3_11_code
	.p2align	2
_camlLayered_try_raise_hit_only__print_result_3_11_code: ; @"\01_camlLayered_try_raise_hit_only__print_result_3_11_code"
	.cfi_startproc
; %bb.0:                                ; %L1
	sub	sp, sp, #16
	.cfi_def_cfa_offset 16
	str	x30, [sp, #8]                   ; 8-byte Folded Spill
	.cfi_offset w30, -16
	sub	sp, sp, #16
	.cfi_def_cfa_offset 32
	str	x0, [sp, #8]                    ; 8-byte Folded Spill
	ldr	x8, [x28, #40]
	add	x8, x8, #376
	; InlineAsm Start
	mov	x9, sp
	; InlineAsm End
	cmp	x9, x8
	b.lo	LBB3_2
LBB3_1:                                 ; %L117
Lloh0:
	adrp	x0, _camlStdlib__Printf__fn$5b$2fworkspace_root$2fprintf.ml$3a27$2c14$2d$2d48$5d_31@GOTPAGE
Lloh1:
	ldr	x0, [x0, _camlStdlib__Printf__fn$5b$2fworkspace_root$2fprintf.ml$3a27$2c14$2d$2d48$5d_31@GOTPAGEOFF]
Lloh2:
	adrp	x2, _camlLayered_try_raise_hit_only__const_block66@PAGE
Lloh3:
	add	x2, x2, _camlLayered_try_raise_hit_only__const_block66@PAGEOFF
	mov	w1, #1
	bl	_camlCamlinternalFormat__make_printf_120_401_code
Ltmp1:
	mov	x1, x0
	ldr	x8, [sp, #8]                    ; 8-byte Folded Reload
	and	x0, x8, #0x7fffffff
	ldr	x2, [x1]
	ldr	x30, [sp, #24]                  ; 8-byte Folded Reload
	add	sp, sp, #32
	br	x2
LBB3_2:                                 ; %L116
	mov	w0, #34
	bl	_caml_llvm_call_realloc_stack
Ltmp2:
	b	LBB3_1
	.loh AdrpAdd	Lloh2, Lloh3
	.loh AdrpLdrGot	Lloh0, Lloh1
	.cfi_endproc
                                        ; -- End function
	.globl	_camlLayered_try_raise_hit_only__probe_4_12_code ; -- Begin function _camlLayered_try_raise_hit_only__probe_4_12_code
	.p2align	2
_camlLayered_try_raise_hit_only__probe_4_12_code: ; @"\01_camlLayered_try_raise_hit_only__probe_4_12_code"
	.cfi_startproc
; %bb.0:                                ; %L1
	ldr	x8, [x0]
	cmp	x8, #1
	b.eq	LBB4_2
; %bb.1:                                ; %L124
	mov	w0, #3
	ret
LBB4_2:                                 ; %L122
Lloh4:
	adrp	x8, _camlLayered_try_raise_hit_only__Not_found_same275@PAGE
Lloh5:
	add	x8, x8, _camlLayered_try_raise_hit_only__Not_found_same275@PAGEOFF
	mov	x0, x8
	mov	sp, x26
	ldp	x26, x16, [sp], #16
	br	x16
	.loh AdrpAdd	Lloh4, Lloh5
	.cfi_endproc
                                        ; -- End function
	.globl	_camlLayered_try_raise_hit_only__find_5_13_code ; -- Begin function _camlLayered_try_raise_hit_only__find_5_13_code
	.p2align	2
_camlLayered_try_raise_hit_only__find_5_13_code: ; @"\01_camlLayered_try_raise_hit_only__find_5_13_code"
Lfunc_begin0:
	.cfi_startproc
	.cfi_personality 155, _caml_llvm_eh_personality
	.cfi_lsda 16, Lexception0
; %bb.0:                                ; %L1
	sub	sp, sp, #16
	.cfi_def_cfa_offset 16
	str	x30, [sp, #8]                   ; 8-byte Folded Spill
	.cfi_offset w30, -16
	sub	sp, sp, #16
	.cfi_def_cfa_offset 32
	mov	x9, x0
	mov	w8, #1
	str	x8, [sp, #8]
	ldr	x8, [x28, #40]
	add	x8, x8, #408
	; InlineAsm Start
	mov	x10, sp
	; InlineAsm End
	cmp	x10, x8
	b.lo	LBB5_6
LBB5_1:                                 ; %L136
                                        ; =>This Inner Loop Header: Depth=1
	ldr	x8, [x9, #8]
	ldr	x10, [x28, #64]
	str	x10, [sp]                       ; 8-byte Folded Spill
	adr	x16, LBB5_2
	sub	sp, sp, #16
	str	x26, [sp]
	str	x16, [sp, #8]
	mov	x26, sp
	str	x8, [sp, #24]
	mov	x0, x9
	bl	_camlLayered_try_raise_hit_only__probe_4_12_code
Ltmp3:
	b	LBB5_5
Ltmp4:                                  ; Block address taken
LBB5_2:                                 ; %L170
                                        ;   in Loop: Header=BB5_1 Depth=1
                                        ; Label of block must be emitted
                                        ; implicit-def: $q0
                                        ; implicit-def: $q1
                                        ; implicit-def: $q2
                                        ; implicit-def: $q3
                                        ; implicit-def: $q4
                                        ; implicit-def: $q5
                                        ; implicit-def: $q6
                                        ; implicit-def: $q7
                                        ; implicit-def: $q8
                                        ; implicit-def: $q9
                                        ; implicit-def: $q10
                                        ; implicit-def: $q11
                                        ; implicit-def: $q12
                                        ; implicit-def: $q13
                                        ; implicit-def: $q14
                                        ; implicit-def: $q15
                                        ; implicit-def: $q16
                                        ; implicit-def: $q17
                                        ; implicit-def: $q18
                                        ; implicit-def: $q19
                                        ; implicit-def: $q20
                                        ; implicit-def: $q21
                                        ; implicit-def: $q22
                                        ; implicit-def: $q23
                                        ; implicit-def: $q24
                                        ; implicit-def: $q25
                                        ; implicit-def: $q26
                                        ; implicit-def: $q27
                                        ; implicit-def: $q28
                                        ; implicit-def: $q29
                                        ; implicit-def: $q30
                                        ; implicit-def: $q31
                                        ; implicit-def: $x1
                                        ; implicit-def: $x2
                                        ; implicit-def: $x3
                                        ; implicit-def: $x4
                                        ; implicit-def: $x5
                                        ; implicit-def: $x6
                                        ; implicit-def: $x7
                                        ; implicit-def: $x8
                                        ; implicit-def: $x9
                                        ; implicit-def: $x10
                                        ; implicit-def: $x11
                                        ; implicit-def: $x12
                                        ; implicit-def: $x13
                                        ; implicit-def: $x14
                                        ; implicit-def: $x19
                                        ; implicit-def: $x20
                                        ; implicit-def: $x21
                                        ; implicit-def: $x22
                                        ; implicit-def: $x23
                                        ; implicit-def: $x24
                                        ; implicit-def: $x25
Ltmp0:
	ldr	x8, [sp, #8]
	ldr	x9, [sp]                        ; 8-byte Folded Reload
	str	x9, [x28, #64]
Lloh6:
	adrp	x9, _camlLayered_try_raise_hit_only__Not_found_same275@PAGE
Lloh7:
	add	x9, x9, _camlLayered_try_raise_hit_only__Not_found_same275@PAGEOFF
	cmp	x0, x9
	b.ne	LBB5_7
; %bb.3:                                ; %L152
                                        ;   in Loop: Header=BB5_1 Depth=1
	tbnz	w8, #0, LBB5_8
; %bb.4:                                ; %L156
                                        ;   in Loop: Header=BB5_1 Depth=1
	ldr	x9, [x8]
	b	LBB5_1
LBB5_5:                                 ; %L171
	ldr	x26, [sp], #16
	ldr	x30, [sp, #24]                  ; 8-byte Folded Reload
	add	sp, sp, #32
	ret
LBB5_6:                                 ; %L167
	mov	w0, #38
	bl	_caml_llvm_call_realloc_stack
Ltmp5:
	b	LBB5_1
LBB5_7:                                 ; %L162
	mov	sp, x26
	ldp	x26, x16, [sp], #16
	br	x16
LBB5_8:                                 ; %L154
Lloh8:
	adrp	x8, _camlLayered_try_raise_hit_only__Not_found_same275@PAGE
Lloh9:
	add	x8, x8, _camlLayered_try_raise_hit_only__Not_found_same275@PAGEOFF
	mov	x0, x8
	mov	sp, x26
	ldp	x26, x16, [sp], #16
	br	x16
	.loh AdrpAdd	Lloh6, Lloh7
	.loh AdrpAdd	Lloh8, Lloh9
Lfunc_end0:
	.cfi_endproc
	.section	__TEXT,__gcc_except_tab
	.p2align	2, 0x0
GCC_except_table5:
Lexception0:
	.byte	255                             ; @LPStart Encoding = omit
	.byte	255                             ; @TType Encoding = omit
	.byte	1                               ; Call site Encoding = uleb128
	.uleb128 Lcst_end0-Lcst_begin0
Lcst_begin0:
	.uleb128 Lfunc_begin0-Lfunc_begin0      ; >> Call Site 1 <<
	.uleb128 Lfunc_end0-Lfunc_begin0        ;   Call between Lfunc_begin0 and Lfunc_end0
	.byte	0                               ;     has no landing pad
	.byte	0                               ;   On action: cleanup
Lcst_end0:
	.p2align	2, 0x0
                                        ; -- End function
	.section	__TEXT,__text,regular,pure_instructions
	.globl	_camlLayered_try_raise_hit_only__open_layers_6_14_code ; -- Begin function _camlLayered_try_raise_hit_only__open_layers_6_14_code
	.p2align	2
_camlLayered_try_raise_hit_only__open_layers_6_14_code: ; @"\01_camlLayered_try_raise_hit_only__open_layers_6_14_code"
	.cfi_startproc
; %bb.0:                                ; %L1
	cmp	x0, #1
	b.eq	LBB6_10
; %bb.1:                                ; %L181
	sub	sp, sp, #16
	.cfi_def_cfa_offset 16
	str	x30, [sp, #8]                   ; 8-byte Folded Spill
	.cfi_offset w30, -16
	mov	x9, x0
	ldr	x8, [x28, #40]
	add	x8, x8, #376
	; InlineAsm Start
	mov	x10, sp
	; InlineAsm End
	cmp	x10, x8
	b.lo	LBB6_5
; %bb.2:                                ; %L202
	and	x8, x9, #0x3
	sub	x0, x9, #2
	cmp	x8, #1
	b.ne	LBB6_6
LBB6_3:                                 ; %L184
	bl	_camlLayered_try_raise_hit_only__open_layers_6_14_code
Ltmp6:
	sub	x27, x27, #16
	ldr	x8, [x28]
	cmp	x8, x27
	b.hi	LBB6_12
LBB6_4:                                 ; %L205
	mov	x9, x27
	str	x0, [x9, #8]!
	mov	w8, #1024
	b	LBB6_8
LBB6_5:                                 ; %L201
	mov	w0, #34
	bl	_caml_llvm_call_realloc_stack
Ltmp7:
	and	x8, x9, #0x3
	sub	x0, x9, #2
	cmp	x8, #1
	b.eq	LBB6_3
LBB6_6:                                 ; %L189
	bl	_camlLayered_try_raise_hit_only__open_layers_6_14_code
Ltmp8:
	sub	x27, x27, #16
	ldr	x8, [x28]
	cmp	x8, x27
	b.hi	LBB6_13
LBB6_7:                                 ; %L207
	mov	x9, x27
	str	x0, [x9, #8]!
	mov	w8, #1025
LBB6_8:                                 ; %L195
	str	x8, [x27], #-24
	ldr	x8, [x28]
	cmp	x8, x27
	b.hi	LBB6_11
LBB6_9:                                 ; %L209
	mov	w8, #2048
	str	x8, [x27]
	mov	w8, #1
	mov	x1, x27
	str	x8, [x1, #8]!
	str	x9, [x1, #8]
	ldr	x30, [sp, #8]                   ; 8-byte Folded Reload
	add	sp, sp, #16
LBB6_10:                                ; %common.ret
	.cfi_def_cfa wsp, 0
	.cfi_same_value w30
	mov	x0, x1
	ret
LBB6_11:                                ; %L208
	bl	_caml_call_gc
Ltmp9:
	b	LBB6_9
LBB6_12:                                ; %L204
	bl	_caml_call_gc
Ltmp10:
	b	LBB6_4
LBB6_13:                                ; %L206
	bl	_caml_call_gc
Ltmp11:
	b	LBB6_7
	.cfi_endproc
                                        ; -- End function
	.globl	_camlLayered_try_raise_hit_only__run_7_15_code ; -- Begin function _camlLayered_try_raise_hit_only__run_7_15_code
	.p2align	2
_camlLayered_try_raise_hit_only__run_7_15_code: ; @"\01_camlLayered_try_raise_hit_only__run_7_15_code"
	.cfi_startproc
; %bb.0:                                ; %L1
	sub	sp, sp, #16
	.cfi_def_cfa_offset 16
	str	x30, [sp, #8]                   ; 8-byte Folded Spill
	.cfi_offset w30, -16
	sub	sp, sp, #64
	.cfi_def_cfa_offset 80
	str	x0, [sp, #24]                   ; 8-byte Folded Spill
	ldr	x8, [x28, #40]
	add	x8, x8, #376
	; InlineAsm Start
	mov	x9, sp
	; InlineAsm End
	cmp	x9, x8
	str	x1, [sp, #48]                   ; 8-byte Folded Spill
	b.lo	LBB7_10
LBB7_1:                                 ; %L260
Lloh10:
	adrp	x1, _camlLayered_try_raise_hit_only__const_block139@PAGE
Lloh11:
	add	x1, x1, _camlLayered_try_raise_hit_only__const_block139@PAGEOFF
	mov	w0, #13
	bl	_camlLayered_try_raise_hit_only__open_layers_6_14_code
Ltmp12:
	ldr	x8, [sp, #48]                   ; 8-byte Folded Reload
	cmp	x8, #3
	b.ge	LBB7_4
; %bb.2:
	mov	w9, #1
LBB7_3:                                 ; %common.ret
	mov	x0, x9
	ldr	x30, [sp, #72]                  ; 8-byte Folded Reload
	add	sp, sp, #80
	ret
LBB7_4:                                 ; %L214
	lsr	x10, x8, #1
	mov	w9, #1
	mov	w11, #1
	ldr	x8, [sp, #24]                   ; 8-byte Folded Reload
	cmp	x8, #3
	str	x10, [sp, #8]                   ; 8-byte Folded Spill
	b.ge	LBB7_7
LBB7_5:                                 ; %L246
	add	x11, x11, #1
	cmp	x11, x10
	b.gt	LBB7_3
LBB7_6:                                 ; %L249
	cmp	x8, #3
	b.lt	LBB7_5
LBB7_7:                                 ; %L225
	str	x11, [sp, #16]                  ; 8-byte Folded Spill
	str	x0, [sp, #56]
	lsr	x8, x8, #1
	str	x8, [sp, #32]                   ; 8-byte Folded Spill
	mov	w10, #1
LBB7_8:                                 ; %L231
                                        ; =>This Inner Loop Header: Depth=1
	str	x9, [sp, #40]                   ; 8-byte Folded Spill
	str	x10, [sp, #48]                  ; 8-byte Folded Spill
	bl	_camlLayered_try_raise_hit_only__find_5_13_code
Ltmp13:
	ldr	x10, [sp, #48]                  ; 8-byte Folded Reload
	mov	x8, x0
	ldr	x0, [sp, #56]
	ldr	x9, [sp, #40]                   ; 8-byte Folded Reload
	add	x8, x9, x8
	sub	x9, x8, #1
	add	x10, x10, #1
	ldr	x8, [sp, #32]                   ; 8-byte Folded Reload
	cmp	x10, x8
	b.le	LBB7_8
; %bb.9:                                ; %L246.loopexit
	ldr	x8, [sp, #24]                   ; 8-byte Folded Reload
	ldr	x10, [sp, #8]                   ; 8-byte Folded Reload
	ldr	x11, [sp, #16]                  ; 8-byte Folded Reload
	add	x11, x11, #1
	cmp	x11, x10
	b.le	LBB7_6
	b	LBB7_3
LBB7_10:                                ; %L259
	mov	w0, #34
	bl	_caml_llvm_call_realloc_stack
Ltmp14:
	b	LBB7_1
	.loh AdrpAdd	Lloh10, Lloh11
	.cfi_endproc
                                        ; -- End function
	.globl	_camlLayered_try_raise_hit_only__entry ; -- Begin function _camlLayered_try_raise_hit_only__entry
	.p2align	2
_camlLayered_try_raise_hit_only__entry: ; @"\01_camlLayered_try_raise_hit_only__entry"
	.cfi_startproc
; %bb.0:                                ; %L1
	sub	sp, sp, #16
	.cfi_def_cfa_offset 16
	str	x30, [sp, #8]                   ; 8-byte Folded Spill
	.cfi_offset w30, -16
	sub	sp, sp, #32
	.cfi_def_cfa_offset 48
Lloh12:
	adrp	x8, _caml_sys_argv@GOTPAGE
Lloh13:
	ldr	x8, [x8, _caml_sys_argv@GOTPAGEOFF]
	mov	w0, #1
	bl	_caml_c_call
Ltmp15:
	ldur	x8, [x0, #-8]
	tst	x8, #0xfffffffffff800
	b.eq	LBB8_3
; %bb.1:                                ; %L280
Lloh14:
	adrp	x8, _caml_sys_argv@GOTPAGE
Lloh15:
	ldr	x8, [x8, _caml_sys_argv@GOTPAGEOFF]
	mov	w0, #1
	bl	_caml_c_call
Ltmp16:
	ldur	x8, [x0, #-8]
	tst	x8, #0xfffffffffff800
	b.eq	LBB8_11
; %bb.2:                                ; %L290
	ldr	x0, [x0, #8]
	str	x0, [sp, #24]
Lloh16:
	adrp	x8, _caml_int_of_string@GOTPAGE
Lloh17:
	ldr	x8, [x8, _caml_int_of_string@GOTPAGEOFF]
	bl	_caml_c_call
Ltmp17:
	mov	x20, x0
	b	LBB8_4
LBB8_3:
	mov	w20, #3393
	movk	w20, #3, lsl #16
LBB8_4:                                 ; %L304
Lloh18:
	adrp	x0, _camlLayered_try_raise_hit_only@PAGE+24
Lloh19:
	add	x0, x0, _camlLayered_try_raise_hit_only@PAGEOFF+24
	mov	x1, x20
	mov	x29, sp
	.cfi_remember_state
	.cfi_def_cfa_register w29
	ldr	x16, [x28, #104]
	mov	sp, x16
	bl	_caml_initialize
	mov	sp, x29
	.cfi_restore_state
Lloh20:
	adrp	x8, _caml_sys_argv@GOTPAGE
Lloh21:
	ldr	x8, [x8, _caml_sys_argv@GOTPAGEOFF]
	mov	w0, #1
	bl	_caml_c_call
Ltmp18:
	ldur	x8, [x0, #-8]
	and	x8, x8, #0xfffffffffffc00
	cmp	x8, #2561
	b.lo	LBB8_7
; %bb.5:                                ; %L316
Lloh22:
	adrp	x8, _caml_sys_argv@GOTPAGE
Lloh23:
	ldr	x8, [x8, _caml_sys_argv@GOTPAGEOFF]
	mov	w0, #1
	bl	_caml_c_call
Ltmp19:
	ldur	x8, [x0, #-8]
	and	x8, x8, #0xfffffffffffc00
	cmp	x8, #2561
	b.lo	LBB8_11
; %bb.6:                                ; %L326
	ldr	x0, [x0, #16]
	str	x0, [sp, #24]
Lloh24:
	adrp	x8, _caml_int_of_string@GOTPAGE
Lloh25:
	ldr	x8, [x8, _caml_int_of_string@GOTPAGEOFF]
	bl	_caml_c_call
Ltmp20:
	mov	x19, x0
	b	LBB8_8
LBB8_7:
	mov	w19, #21
LBB8_8:                                 ; %L340
Lloh26:
	adrp	x0, _camlLayered_try_raise_hit_only@PAGE+32
Lloh27:
	add	x0, x0, _camlLayered_try_raise_hit_only@PAGEOFF+32
	mov	x1, x19
	mov	x29, sp
	.cfi_remember_state
	.cfi_def_cfa_register w29
	ldr	x16, [x28, #104]
	mov	sp, x16
	bl	_caml_initialize
	mov	sp, x29
	.cfi_restore_state
	mov	w0, #1
	mov	x29, sp
	.cfi_remember_state
	.cfi_def_cfa_register w29
	ldr	x16, [x28, #104]
	mov	sp, x16
	bl	_caml_fresh_oo_id
	mov	sp, x29
	.cfi_restore_state
	mov	x1, x0
Lloh28:
	adrp	x0, _camlLayered_try_raise_hit_only__Not_found_same275@PAGE+8
Lloh29:
	add	x0, x0, _camlLayered_try_raise_hit_only__Not_found_same275@PAGEOFF+8
	mov	x29, sp
	.cfi_remember_state
	.cfi_def_cfa_register w29
	ldr	x16, [x28, #104]
	mov	sp, x16
	bl	_caml_initialize
	mov	sp, x29
	.cfi_restore_state
	ldr	x8, [x28, #40]
	add	x8, x8, #376
	; InlineAsm Start
	mov	x9, sp
	; InlineAsm End
	cmp	x9, x8
	str	x20, [sp, #16]                  ; 8-byte Folded Spill
	b.lo	LBB8_10
LBB8_9:                                 ; %L364
	mov	x0, x19
	bl	_camlLayered_try_raise_hit_only__black_box_int_0_8_code
Ltmp21:
	str	x0, [sp, #8]                    ; 8-byte Folded Spill
	ldr	x0, [sp, #16]                   ; 8-byte Folded Reload
	bl	_camlLayered_try_raise_hit_only__black_box_int_0_8_code
Ltmp22:
	ldr	x1, [sp, #8]                    ; 8-byte Folded Reload
	bl	_camlLayered_try_raise_hit_only__run_7_15_code
Ltmp23:
	str	x0, [sp, #16]                   ; 8-byte Folded Spill
Lloh30:
	adrp	x0, _camlStdlib__Printf__fn$5b$2fworkspace_root$2fprintf.ml$3a27$2c14$2d$2d48$5d_31@GOTPAGE
Lloh31:
	ldr	x0, [x0, _camlStdlib__Printf__fn$5b$2fworkspace_root$2fprintf.ml$3a27$2c14$2d$2d48$5d_31@GOTPAGEOFF]
Lloh32:
	adrp	x2, _camlLayered_try_raise_hit_only__const_block66@PAGE
Lloh33:
	add	x2, x2, _camlLayered_try_raise_hit_only__const_block66@PAGEOFF
	mov	w1, #1
	bl	_camlCamlinternalFormat__make_printf_120_401_code
Ltmp24:
	mov	x1, x0
	ldr	x8, [sp, #16]                   ; 8-byte Folded Reload
	and	x0, x8, #0x7fffffff
	ldr	x8, [x1]
	blr	x8
Ltmp25:
	mov	w0, #1
	ldr	x30, [sp, #40]                  ; 8-byte Folded Reload
	add	sp, sp, #48
	ret
LBB8_10:                                ; %L363
	mov	w0, #34
	bl	_caml_llvm_call_realloc_stack
Ltmp26:
	b	LBB8_9
LBB8_11:                                ; %L334
Lloh34:
	adrp	x8, _camlLayered_try_raise_hit_only__block35@PAGE
Lloh35:
	add	x8, x8, _camlLayered_try_raise_hit_only__block35@PAGEOFF
	mov	x0, x8
	mov	sp, x26
	ldp	x26, x16, [sp], #16
	br	x16
	.loh AdrpLdrGot	Lloh12, Lloh13
	.loh AdrpLdrGot	Lloh14, Lloh15
	.loh AdrpLdrGot	Lloh16, Lloh17
	.loh AdrpLdrGot	Lloh20, Lloh21
	.loh AdrpAdd	Lloh18, Lloh19
	.loh AdrpLdrGot	Lloh22, Lloh23
	.loh AdrpLdrGot	Lloh24, Lloh25
	.loh AdrpAdd	Lloh28, Lloh29
	.loh AdrpAdd	Lloh26, Lloh27
	.loh AdrpAdd	Lloh32, Lloh33
	.loh AdrpLdrGot	Lloh30, Lloh31
	.loh AdrpAdd	Lloh34, Lloh35
	.cfi_endproc
                                        ; -- End function
	.section	__DATA,__data
	.globl	_camlLayered_try_raise_hit_only__gc_roots ; @"\01_camlLayered_try_raise_hit_only__gc_roots"
	.p2align	3, 0x0
_camlLayered_try_raise_hit_only__gc_roots:
	.quad	_camlLayered_try_raise_hit_only
	.quad	_camlLayered_try_raise_hit_only__Not_found_same275
	.quad	0                               ; 0x0

	.globl	_header.camlLayered_try_raise_hit_only ; @"\01_header.camlLayered_try_raise_hit_only"
	.p2align	3, 0x0
_header.camlLayered_try_raise_hit_only:
	.quad	12032                           ; 0x2f00

	.globl	_camlLayered_try_raise_hit_only ; @"\01_camlLayered_try_raise_hit_only"
	.p2align	3, 0x0
_camlLayered_try_raise_hit_only:
	.quad	_camlLayered_try_raise_hit_only__black_box_int_8
	.quad	_camlLayered_try_raise_hit_only__black_box_string_9
	.quad	_camlLayered_try_raise_hit_only__black_box_10
	.quad	1                               ; 0x1
	.quad	1                               ; 0x1
	.quad	_camlLayered_try_raise_hit_only__print_result_11
	.quad	_camlLayered_try_raise_hit_only__Not_found_same275
	.quad	_camlLayered_try_raise_hit_only__probe_12
	.quad	_camlLayered_try_raise_hit_only__find_13
	.quad	_camlLayered_try_raise_hit_only__open_layers_14
	.quad	_camlLayered_try_raise_hit_only__run_15

	.globl	_header.camlLayered_try_raise_hit_only__run_15 ; @"\01_header.camlLayered_try_raise_hit_only__run_15"
	.p2align	3, 0x0
_header.camlLayered_try_raise_hit_only__run_15:
	.quad	4087                            ; 0xff7

	.globl	_camlLayered_try_raise_hit_only__run_15 ; @"\01_camlLayered_try_raise_hit_only__run_15"
	.p2align	3, 0x0
_camlLayered_try_raise_hit_only__run_15:
	.quad	_caml_curry2
	.quad	180143985094819847              ; 0x280000000000007
	.quad	_camlLayered_try_raise_hit_only__run_7_15_code

	.globl	_header.camlLayered_try_raise_hit_only__open_layers_14 ; @"\01_header.camlLayered_try_raise_hit_only__open_layers_14"
	.p2align	3, 0x0
_header.camlLayered_try_raise_hit_only__open_layers_14:
	.quad	4087                            ; 0xff7

	.globl	_camlLayered_try_raise_hit_only__open_layers_14 ; @"\01_camlLayered_try_raise_hit_only__open_layers_14"
	.p2align	3, 0x0
_camlLayered_try_raise_hit_only__open_layers_14:
	.quad	_caml_curry2
	.quad	180143985094819847              ; 0x280000000000007
	.quad	_camlLayered_try_raise_hit_only__open_layers_6_14_code

	.globl	_header.camlLayered_try_raise_hit_only__find_13 ; @"\01_header.camlLayered_try_raise_hit_only__find_13"
	.p2align	3, 0x0
_header.camlLayered_try_raise_hit_only__find_13:
	.quad	3063                            ; 0xbf7

	.globl	_camlLayered_try_raise_hit_only__find_13 ; @"\01_camlLayered_try_raise_hit_only__find_13"
	.p2align	3, 0x0
_camlLayered_try_raise_hit_only__find_13:
	.quad	_camlLayered_try_raise_hit_only__find_5_13_code
	.quad	108086391056891909              ; 0x180000000000005

	.globl	_header.camlLayered_try_raise_hit_only__probe_12 ; @"\01_header.camlLayered_try_raise_hit_only__probe_12"
	.p2align	3, 0x0
_header.camlLayered_try_raise_hit_only__probe_12:
	.quad	3063                            ; 0xbf7

	.globl	_camlLayered_try_raise_hit_only__probe_12 ; @"\01_camlLayered_try_raise_hit_only__probe_12"
	.p2align	3, 0x0
_camlLayered_try_raise_hit_only__probe_12:
	.quad	_camlLayered_try_raise_hit_only__probe_4_12_code
	.quad	108086391056891909              ; 0x180000000000005

	.globl	_header.camlLayered_try_raise_hit_only__Not_found_same275 ; @"\01_header.camlLayered_try_raise_hit_only__Not_found_same275"
	.p2align	3, 0x0
_header.camlLayered_try_raise_hit_only__Not_found_same275:
	.quad	3064                            ; 0xbf8

	.globl	_camlLayered_try_raise_hit_only__Not_found_same275 ; @"\01_camlLayered_try_raise_hit_only__Not_found_same275"
	.p2align	3, 0x0
_camlLayered_try_raise_hit_only__Not_found_same275:
	.quad	_camlLayered_try_raise_hit_only__immstring74
	.quad	1                               ; 0x1

	.globl	_header.camlLayered_try_raise_hit_only__print_result_11 ; @"\01_header.camlLayered_try_raise_hit_only__print_result_11"
	.p2align	3, 0x0
_header.camlLayered_try_raise_hit_only__print_result_11:
	.quad	3063                            ; 0xbf7

	.globl	_camlLayered_try_raise_hit_only__print_result_11 ; @"\01_camlLayered_try_raise_hit_only__print_result_11"
	.p2align	3, 0x0
_camlLayered_try_raise_hit_only__print_result_11:
	.quad	_camlLayered_try_raise_hit_only__print_result_3_11_code
	.quad	108086391056891909              ; 0x180000000000005

	.globl	_header.camlLayered_try_raise_hit_only__black_box_10 ; @"\01_header.camlLayered_try_raise_hit_only__black_box_10"
	.p2align	3, 0x0
_header.camlLayered_try_raise_hit_only__black_box_10:
	.quad	3063                            ; 0xbf7

	.globl	_camlLayered_try_raise_hit_only__black_box_10 ; @"\01_camlLayered_try_raise_hit_only__black_box_10"
	.p2align	3, 0x0
_camlLayered_try_raise_hit_only__black_box_10:
	.quad	_camlLayered_try_raise_hit_only__black_box_2_10_code
	.quad	108086391056891909              ; 0x180000000000005

	.globl	_header.camlLayered_try_raise_hit_only__black_box_string_9 ; @"\01_header.camlLayered_try_raise_hit_only__black_box_string_9"
	.p2align	3, 0x0
_header.camlLayered_try_raise_hit_only__black_box_string_9:
	.quad	3063                            ; 0xbf7

	.globl	_camlLayered_try_raise_hit_only__black_box_string_9 ; @"\01_camlLayered_try_raise_hit_only__black_box_string_9"
	.p2align	3, 0x0
_camlLayered_try_raise_hit_only__black_box_string_9:
	.quad	_camlLayered_try_raise_hit_only__black_box_string_1_9_code
	.quad	108086391056891909              ; 0x180000000000005

	.globl	_header.camlLayered_try_raise_hit_only__black_box_int_8 ; @"\01_header.camlLayered_try_raise_hit_only__black_box_int_8"
	.p2align	3, 0x0
_header.camlLayered_try_raise_hit_only__black_box_int_8:
	.quad	3063                            ; 0xbf7

	.globl	_camlLayered_try_raise_hit_only__black_box_int_8 ; @"\01_camlLayered_try_raise_hit_only__black_box_int_8"
	.p2align	3, 0x0
_camlLayered_try_raise_hit_only__black_box_int_8:
	.quad	_camlLayered_try_raise_hit_only__black_box_int_0_8_code
	.quad	108086391056891909              ; 0x180000000000005

	.globl	_header.camlLayered_try_raise_hit_only__block35 ; @"\01_header.camlLayered_try_raise_hit_only__block35"
	.p2align	3, 0x0
_header.camlLayered_try_raise_hit_only__block35:
	.quad	2816                            ; 0xb00

	.globl	_camlLayered_try_raise_hit_only__block35 ; @"\01_camlLayered_try_raise_hit_only__block35"
	.p2align	3, 0x0
_camlLayered_try_raise_hit_only__block35:
	.quad	_caml_exn_Invalid_argument
	.quad	_camlLayered_try_raise_hit_only__string33

	.globl	_header.camlLayered_try_raise_hit_only__string33 ; @"\01_header.camlLayered_try_raise_hit_only__string33"
	.p2align	3, 0x0
_header.camlLayered_try_raise_hit_only__string33:
	.quad	4092                            ; 0xffc

	.globl	_camlLayered_try_raise_hit_only__string33 ; @"\01_camlLayered_try_raise_hit_only__string33"
	.p2align	3, 0x0
_camlLayered_try_raise_hit_only__string33:
	.ascii	"index out of bounds"
	.space	4
	.byte	4                               ; 0x4

	.globl	_header.camlLayered_try_raise_hit_only__immstring74 ; @"\01_header.camlLayered_try_raise_hit_only__immstring74"
	.p2align	3, 0x0
_header.camlLayered_try_raise_hit_only__immstring74:
	.quad	7164                            ; 0x1bfc

	.globl	_camlLayered_try_raise_hit_only__immstring74 ; @"\01_camlLayered_try_raise_hit_only__immstring74"
	.p2align	3, 0x0
_camlLayered_try_raise_hit_only__immstring74:
	.ascii	"Layered_try_raise_hit_only.Not_found_same"
	.space	6
	.byte	6                               ; 0x6

	.globl	_header.camlLayered_try_raise_hit_only__const_block139 ; @"\01_header.camlLayered_try_raise_hit_only__const_block139"
	.p2align	3, 0x0
_header.camlLayered_try_raise_hit_only__const_block139:
	.quad	2816                            ; 0xb00

	.globl	_camlLayered_try_raise_hit_only__const_block139 ; @"\01_camlLayered_try_raise_hit_only__const_block139"
	.p2align	3, 0x0
_camlLayered_try_raise_hit_only__const_block139:
	.quad	3                               ; 0x3
	.quad	1                               ; 0x1

	.globl	_header.camlLayered_try_raise_hit_only__const_block66 ; @"\01_header.camlLayered_try_raise_hit_only__const_block66"
	.p2align	3, 0x0
_header.camlLayered_try_raise_hit_only__const_block66:
	.quad	4868                            ; 0x1304

	.globl	_camlLayered_try_raise_hit_only__const_block66 ; @"\01_camlLayered_try_raise_hit_only__const_block66"
	.p2align	3, 0x0
_camlLayered_try_raise_hit_only__const_block66:
	.quad	1                               ; 0x1
	.quad	1                               ; 0x1
	.quad	1                               ; 0x1
	.quad	_camlLayered_try_raise_hit_only__const_block64

	.globl	_header.camlLayered_try_raise_hit_only__const_block64 ; @"\01_header.camlLayered_try_raise_hit_only__const_block64"
	.p2align	3, 0x0
_header.camlLayered_try_raise_hit_only__const_block64:
	.quad	2828                            ; 0xb0c

	.globl	_camlLayered_try_raise_hit_only__const_block64 ; @"\01_camlLayered_try_raise_hit_only__const_block64"
	.p2align	3, 0x0
_camlLayered_try_raise_hit_only__const_block64:
	.quad	21                              ; 0x15
	.quad	_camlLayered_try_raise_hit_only__const_block62

	.globl	_header.camlLayered_try_raise_hit_only__const_block62 ; @"\01_header.camlLayered_try_raise_hit_only__const_block62"
	.p2align	3, 0x0
_header.camlLayered_try_raise_hit_only__const_block62:
	.quad	1802                            ; 0x70a

	.globl	_camlLayered_try_raise_hit_only__const_block62 ; @"\01_camlLayered_try_raise_hit_only__const_block62"
	.p2align	3, 0x0
_camlLayered_try_raise_hit_only__const_block62:
	.quad	1                               ; 0x1

	.quad	0
	.globl	_camlLayered_try_raise_hit_only__data_end
_camlLayered_try_raise_hit_only__data_end:
	.quad	0
	.p2align	3, 0x0
	.globl	_camlLayered_try_raise_hit_only__frametable
_camlLayered_try_raise_hit_only__frametable:
	.quad	25
Ltmp27:
	.long	Ltmp1-Ltmp27
	.short	33
	.short	0
	.p2align	2, 0x0
Ltmp29:
	.long	Ltmp28-Ltmp29
	.p2align	3, 0x0
Ltmp30:
	.long	Ltmp2-Ltmp30
	.short	32
	.short	0
	.p2align	3, 0x0
Ltmp31:
	.long	Ltmp3-Ltmp31
	.short	49
	.short	1
	.short	24
	.p2align	2, 0x0
Ltmp33:
	.long	Ltmp32-Ltmp33
	.p2align	3, 0x0
Ltmp34:
	.long	Ltmp5-Ltmp34
	.short	32
	.short	2
	.short	19
	.short	8
	.p2align	3, 0x0
Ltmp35:
	.long	Ltmp6-Ltmp35
	.short	17
	.short	0
	.p2align	2, 0x0
Ltmp37:
	.long	Ltmp36-Ltmp37
	.p2align	3, 0x0
Ltmp38:
	.long	Ltmp7-Ltmp38
	.short	16
	.short	1
	.short	3
	.p2align	3, 0x0
Ltmp39:
	.long	Ltmp8-Ltmp39
	.short	17
	.short	0
	.p2align	2, 0x0
Ltmp41:
	.long	Ltmp40-Ltmp41
	.p2align	3, 0x0
Ltmp42:
	.long	Ltmp9-Ltmp42
	.short	19
	.short	1
	.short	19
	.byte	1
	.byte	1
	.p2align	2, 0x0
Ltmp44:
	.long	Ltmp43-Ltmp44
	.p2align	3, 0x0
Ltmp45:
	.long	Ltmp10-Ltmp45
	.short	19
	.short	1
	.short	1
	.byte	1
	.byte	0
	.p2align	2, 0x0
Ltmp47:
	.long	Ltmp46-Ltmp47
	.p2align	3, 0x0
Ltmp48:
	.long	Ltmp11-Ltmp48
	.short	19
	.short	1
	.short	1
	.byte	1
	.byte	0
	.p2align	2, 0x0
Ltmp50:
	.long	Ltmp49-Ltmp50
	.p2align	3, 0x0
Ltmp51:
	.long	Ltmp12-Ltmp51
	.short	81
	.short	0
	.p2align	2, 0x0
Ltmp53:
	.long	Ltmp52-Ltmp53
	.p2align	3, 0x0
Ltmp54:
	.long	Ltmp13-Ltmp54
	.short	81
	.short	1
	.short	56
	.p2align	2, 0x0
Ltmp56:
	.long	Ltmp55-Ltmp56
	.p2align	3, 0x0
Ltmp57:
	.long	Ltmp14-Ltmp57
	.short	80
	.short	0
	.p2align	3, 0x0
Ltmp58:
	.long	Ltmp15-Ltmp58
	.short	49
	.short	0
	.p2align	2, 0x0
Ltmp60:
	.long	Ltmp59-Ltmp60
	.p2align	3, 0x0
Ltmp61:
	.long	Ltmp16-Ltmp61
	.short	49
	.short	0
	.p2align	2, 0x0
Ltmp63:
	.long	Ltmp62-Ltmp63
	.p2align	3, 0x0
Ltmp64:
	.long	Ltmp17-Ltmp64
	.short	49
	.short	1
	.short	24
	.p2align	2, 0x0
Ltmp66:
	.long	Ltmp65-Ltmp66
	.p2align	3, 0x0
Ltmp67:
	.long	Ltmp18-Ltmp67
	.short	49
	.short	0
	.p2align	2, 0x0
Ltmp69:
	.long	Ltmp68-Ltmp69
	.p2align	3, 0x0
Ltmp70:
	.long	Ltmp19-Ltmp70
	.short	49
	.short	0
	.p2align	2, 0x0
Ltmp72:
	.long	Ltmp71-Ltmp72
	.p2align	3, 0x0
Ltmp73:
	.long	Ltmp20-Ltmp73
	.short	49
	.short	1
	.short	24
	.p2align	2, 0x0
Ltmp75:
	.long	Ltmp74-Ltmp75
	.p2align	3, 0x0
Ltmp76:
	.long	Ltmp21-Ltmp76
	.short	49
	.short	0
	.p2align	2, 0x0
Ltmp78:
	.long	Ltmp77-Ltmp78
	.p2align	3, 0x0
Ltmp79:
	.long	Ltmp22-Ltmp79
	.short	49
	.short	0
	.p2align	2, 0x0
Ltmp81:
	.long	Ltmp80-Ltmp81
	.p2align	3, 0x0
Ltmp82:
	.long	Ltmp23-Ltmp82
	.short	49
	.short	0
	.p2align	2, 0x0
Ltmp84:
	.long	Ltmp83-Ltmp84
	.p2align	3, 0x0
Ltmp85:
	.long	Ltmp24-Ltmp85
	.short	49
	.short	0
	.p2align	2, 0x0
Ltmp87:
	.long	Ltmp86-Ltmp87
	.p2align	3, 0x0
Ltmp88:
	.long	Ltmp25-Ltmp88
	.short	49
	.short	0
	.p2align	2, 0x0
Ltmp90:
	.long	Ltmp89-Ltmp90
	.p2align	3, 0x0
Ltmp91:
	.long	Ltmp26-Ltmp91
	.short	48
	.short	0
	.p2align	3, 0x0
	.p2align	2, 0x0
Ltmp28:
Ltmp100:
	.long	(Ltmp92-Ltmp100)+1
	.long	14158328
Ltmp101:
	.long	(Ltmp94-Ltmp101)+1
	.long	17847640
Ltmp102:
	.long	(Ltmp96-Ltmp102)+1
	.long	19940632
Ltmp103:
	.long	(Ltmp98-Ltmp103)+0
	.long	5789176
	.p2align	2, 0x0
Ltmp92:
	.long	Ltmp93-Ltmp92
	.ascii	"Stdlib__Printf.kfprintf"
	.byte	0
Ltmp93:
	.ascii	"printf.ml"
	.byte	0
	.p2align	2, 0x0
Ltmp94:
	.long	Ltmp95-Ltmp94
	.ascii	"Stdlib__Printf.fprintf"
	.byte	0
Ltmp95:
	.ascii	"printf.ml"
	.byte	0
	.p2align	2, 0x0
Ltmp96:
	.long	Ltmp97-Ltmp96
	.ascii	"Stdlib__Printf.printf"
	.byte	0
Ltmp97:
	.ascii	"printf.ml"
	.byte	0
	.p2align	2, 0x0
Ltmp98:
	.long	Ltmp99-Ltmp98
	.ascii	"Layered_try_raise_hit_only.print_result"
	.byte	0
Ltmp99:
	.ascii	"layered_try_raise_hit_only.ml"
	.byte	0
	.p2align	2, 0x0
Ltmp32:
Ltmp106:
	.long	(Ltmp104-Ltmp106)+0
	.long	12064888
	.p2align	2, 0x0
Ltmp104:
	.long	Ltmp105-Ltmp104
	.ascii	"Layered_try_raise_hit_only.find"
	.byte	0
Ltmp105:
	.ascii	"layered_try_raise_hit_only.ml"
	.byte	0
	.p2align	2, 0x0
Ltmp36:
Ltmp109:
	.long	(Ltmp107-Ltmp109)+0
	.long	18893152
	.p2align	2, 0x0
Ltmp107:
	.long	Ltmp108-Ltmp107
	.ascii	"Layered_try_raise_hit_only.open_layers"
	.byte	0
Ltmp108:
	.ascii	"layered_try_raise_hit_only.ml"
	.byte	0
	.p2align	2, 0x0
Ltmp40:
Ltmp112:
	.long	(Ltmp110-Ltmp112)+0
	.long	19417440
	.p2align	2, 0x0
Ltmp110:
	.long	Ltmp111-Ltmp110
	.ascii	"Layered_try_raise_hit_only.open_layers"
	.byte	0
Ltmp111:
	.ascii	"layered_try_raise_hit_only.ml"
	.byte	0
	.p2align	2, 0x0
Ltmp43:
Ltmp115:
	.long	(Ltmp113-Ltmp115)+2550136832
	.long	17568113
	.p2align	2, 0x0
Ltmp113:
	.long	Ltmp114-Ltmp113
	.ascii	"Layered_try_raise_hit_only.open_layers"
	.byte	0
Ltmp114:
	.ascii	"layered_try_raise_hit_only.ml"
	.byte	0
	.p2align	2, 0x0
Ltmp46:
Ltmp118:
	.long	(Ltmp116-Ltmp118)+0
	.long	18888032
	.p2align	2, 0x0
Ltmp116:
	.long	Ltmp117-Ltmp116
	.ascii	"Layered_try_raise_hit_only.open_layers"
	.byte	0
Ltmp117:
	.ascii	"layered_try_raise_hit_only.ml"
	.byte	0
	.p2align	2, 0x0
Ltmp49:
Ltmp121:
	.long	(Ltmp119-Ltmp121)+0
	.long	19412320
	.p2align	2, 0x0
Ltmp119:
	.long	Ltmp120-Ltmp119
	.ascii	"Layered_try_raise_hit_only.open_layers"
	.byte	0
Ltmp120:
	.ascii	"layered_try_raise_hit_only.ml"
	.byte	0
	.p2align	2, 0x0
Ltmp52:
Ltmp124:
	.long	(Ltmp122-Ltmp124)+0
	.long	20984264
	.p2align	2, 0x0
Ltmp122:
	.long	Ltmp123-Ltmp122
	.ascii	"Layered_try_raise_hit_only.run"
	.byte	0
Ltmp123:
	.ascii	"layered_try_raise_hit_only.ml"
	.byte	0
	.p2align	2, 0x0
Ltmp55:
Ltmp127:
	.long	(Ltmp125-Ltmp127)+0
	.long	23089376
	.p2align	2, 0x0
Ltmp125:
	.long	Ltmp126-Ltmp125
	.ascii	"Layered_try_raise_hit_only.run"
	.byte	0
Ltmp126:
	.ascii	"layered_try_raise_hit_only.ml"
	.byte	0
	.p2align	2, 0x0
Ltmp59:
Ltmp130:
	.long	(Ltmp128-Ltmp130)+0
	.long	3164368
	.p2align	2, 0x0
Ltmp128:
	.long	Ltmp129-Ltmp128
	.ascii	"Layered_try_raise_hit_only.n"
	.byte	0
Ltmp129:
	.ascii	"layered_try_raise_hit_only.ml"
	.byte	0
	.p2align	2, 0x0
Ltmp62:
Ltmp133:
	.long	(Ltmp131-Ltmp133)+0
	.long	3197392
	.p2align	2, 0x0
Ltmp131:
	.long	Ltmp132-Ltmp131
	.ascii	"Layered_try_raise_hit_only.n"
	.byte	0
Ltmp132:
	.ascii	"layered_try_raise_hit_only.ml"
	.byte	0
	.p2align	2, 0x0
Ltmp65:
Ltmp136:
	.long	(Ltmp134-Ltmp136)+0
	.long	3183088
	.p2align	2, 0x0
Ltmp134:
	.long	Ltmp135-Ltmp134
	.ascii	"Layered_try_raise_hit_only.n"
	.byte	0
Ltmp135:
	.ascii	"layered_try_raise_hit_only.ml"
	.byte	0
	.p2align	2, 0x0
Ltmp68:
Ltmp139:
	.long	(Ltmp137-Ltmp139)+0
	.long	4737232
	.p2align	2, 0x0
Ltmp137:
	.long	Ltmp138-Ltmp137
	.ascii	"Layered_try_raise_hit_only.reps"
	.byte	0
Ltmp138:
	.ascii	"layered_try_raise_hit_only.ml"
	.byte	0
	.p2align	2, 0x0
Ltmp71:
Ltmp142:
	.long	(Ltmp140-Ltmp142)+0
	.long	4770256
	.p2align	2, 0x0
Ltmp140:
	.long	Ltmp141-Ltmp140
	.ascii	"Layered_try_raise_hit_only.reps"
	.byte	0
Ltmp141:
	.ascii	"layered_try_raise_hit_only.ml"
	.byte	0
	.p2align	2, 0x0
Ltmp74:
Ltmp145:
	.long	(Ltmp143-Ltmp145)+0
	.long	4755952
	.p2align	2, 0x0
Ltmp143:
	.long	Ltmp144-Ltmp143
	.ascii	"Layered_try_raise_hit_only.reps"
	.byte	0
Ltmp144:
	.ascii	"layered_try_raise_hit_only.ml"
	.byte	0
	.p2align	2, 0x0
Ltmp77:
Ltmp148:
	.long	(Ltmp146-Ltmp148)+0
	.long	25736712
	.p2align	2, 0x0
Ltmp146:
	.long	Ltmp147-Ltmp146
	.ascii	"Layered_try_raise_hit_only"
	.byte	0
Ltmp147:
	.ascii	"layered_try_raise_hit_only.ml"
	.byte	0
	.p2align	2, 0x0
Ltmp80:
Ltmp151:
	.long	(Ltmp149-Ltmp151)+0
	.long	25718112
	.p2align	2, 0x0
Ltmp149:
	.long	Ltmp150-Ltmp149
	.ascii	"Layered_try_raise_hit_only"
	.byte	0
Ltmp150:
	.ascii	"layered_try_raise_hit_only.ml"
	.byte	0
	.p2align	2, 0x0
Ltmp83:
Ltmp154:
	.long	(Ltmp152-Ltmp154)+0
	.long	25713168
	.p2align	2, 0x0
Ltmp152:
	.long	Ltmp153-Ltmp152
	.ascii	"Layered_try_raise_hit_only"
	.byte	0
Ltmp153:
	.ascii	"layered_try_raise_hit_only.ml"
	.byte	0
	.p2align	2, 0x0
Ltmp86:
Ltmp165:
	.long	(Ltmp155-Ltmp165)+1
	.long	14158328
Ltmp166:
	.long	(Ltmp157-Ltmp166)+1
	.long	17847640
Ltmp167:
	.long	(Ltmp159-Ltmp167)+1
	.long	19940632
Ltmp168:
	.long	(Ltmp161-Ltmp168)+1
	.long	5789176
Ltmp169:
	.long	(Ltmp163-Ltmp169)+0
	.long	25699856
	.p2align	2, 0x0
Ltmp155:
	.long	Ltmp156-Ltmp155
	.ascii	"Stdlib__Printf.kfprintf"
	.byte	0
Ltmp156:
	.ascii	"printf.ml"
	.byte	0
	.p2align	2, 0x0
Ltmp157:
	.long	Ltmp158-Ltmp157
	.ascii	"Stdlib__Printf.fprintf"
	.byte	0
Ltmp158:
	.ascii	"printf.ml"
	.byte	0
	.p2align	2, 0x0
Ltmp159:
	.long	Ltmp160-Ltmp159
	.ascii	"Stdlib__Printf.printf"
	.byte	0
Ltmp160:
	.ascii	"printf.ml"
	.byte	0
	.p2align	2, 0x0
Ltmp161:
	.long	Ltmp162-Ltmp161
	.ascii	"Layered_try_raise_hit_only.print_result"
	.byte	0
Ltmp162:
	.ascii	"layered_try_raise_hit_only.ml"
	.byte	0
	.p2align	2, 0x0
Ltmp163:
	.long	Ltmp164-Ltmp163
	.ascii	"Layered_try_raise_hit_only"
	.byte	0
Ltmp164:
	.ascii	"layered_try_raise_hit_only.ml"
	.byte	0
	.p2align	2, 0x0
Ltmp89:
Ltmp174:
	.long	(Ltmp170-Ltmp174)+1
	.long	5789176
Ltmp175:
	.long	(Ltmp172-Ltmp175)+0
	.long	25699856
	.p2align	2, 0x0
Ltmp170:
	.long	Ltmp171-Ltmp170
	.ascii	"Layered_try_raise_hit_only.print_result"
	.byte	0
Ltmp171:
	.ascii	"layered_try_raise_hit_only.ml"
	.byte	0
	.p2align	2, 0x0
Ltmp172:
	.long	Ltmp173-Ltmp172
	.ascii	"Layered_try_raise_hit_only"
	.byte	0
Ltmp173:
	.ascii	"layered_try_raise_hit_only.ml"
	.byte	0

	.section	__TEXT,__text,regular,pure_instructions
	.globl	_camlLayered_try_raise_hit_only__code_end
_camlLayered_try_raise_hit_only__code_end:
.subsections_via_symbols
