_camlHash_lookup_string_equal__run_6_15_code:
L_camlHash_lookup_string_equal__run_6_15_code:
	.loc	1	22	23
	.cfi_startproc
	sub	sp, sp, #80
	.cfi_adjust_cfa_offset 80
	.cfi_offset 30, -8
	str	lr, [sp, #72]
	ldr	x16, [x28, #40]
	add	x16, x16, #440
	subs	xzr, sp, x16
	b.cc	L282
L283:
	orr	x19, xzr, x0
	str	x19, [sp, #0]
	orr	x20, xzr, x1
	str	x20, [sp, #8]
	adrp	x2, L_camlHash_lookup_string_equal__fn$5bhash_lookup_string_equal.ml$3a24$2c17$2d$2d70$5d_15@PAGE
	add	x2, x2, L_camlHash_lookup_string_equal__fn$5bhash_lookup_string_equal.ml$3a24$2c17$2d$2d70$5d_15@PAGEOFF
	orr	x1, xzr, #63
	orr	x0, xzr, #1
	.file	3	"list.ml"
	.loc	3	77	2
	bl	_camlStdlib__List__init_11_109_code
L284:
	orr	x1, xzr, x0
	.loc	1	26	16
	ldr	x16, [x28, #0]
	sub	x27, x27, #16
	subs	xzr, x27, x16
	b.cc	L287
L286:
	add	x21, x27, #8
	orr	x0, xzr, #1024
	.loc	1	26	16
	str	x0, [x21, #-8]
	.loc	1	26	16
	str	x1, [x21, #0]
	str	x21, [sp, #16]
	adrp	x0, L_camlHash_lookup_string_equal__fn$5bhash_lookup_string_equal.ml$3a27$2c37$2d$2d40$5d_16@PAGE
	add	x0, x0, L_camlHash_lookup_string_equal__fn$5bhash_lookup_string_equal.ml$3a27$2c37$2d$2d40$5d_16@PAGEOFF
	.loc	1	27	27
	bl	_camlStdlib__List__map_15_113_code
L288:
	orr	x2, xzr, x0
	ldr	x19, [sp, #0]
	ldr	x20, [sp, #8]
	ldr	x21, [sp, #16]
	tbz	x2, #0, L165
	adrp	x22, _camlStdlib__Array__empty_array50@GOTPAGE
	ldr	x22, [x22, _camlStdlib__Array__empty_array50@GOTPAGEOFF]
	subs	xzr, x20, #3
	b.lt	L265
	b	L218
L165:
	orr	x0, xzr, #1
	orr	x1, xzr, x2
	tbz	x1, #0, L171
L169:
	.file	4	"array.ml"
	.loc	4	212	4
	ldr	x1, [x2, #0]
	.loc	4	212	4
	str	x2, [sp, #24]
	.loc	4	213	14
	adrp	x8, _caml_array_make@GOTPAGE
	ldr	x8, [x8, _caml_array_make@GOTPAGEOFF]
	bl	_caml_c_call
L289:
	.loc	4	213	14
	b	L179
L171:
	.loc	4	208	4
	ldr	x1, [x1, #8]
	.loc	4	208	24
	add	x0, x0, #2
	tbz	x1, #0, L171
	b	L169
L179:
	orr	x22, xzr, x0
	.loc	4	212	4
	ldr	x0, [sp, #24]
	.loc	4	212	4
	ldr	x23, [x0, #8]
	orr	x24, xzr, #3
	ldr	x19, [sp, #0]
	ldr	x20, [sp, #8]
	ldr	x21, [sp, #16]
	tbnz	x23, #0, L216
L189:
	.loc	4	216	10
	ldr	x1, [x23, #0]
	.loc	4	216	20
	ldrb	w0, [x22, #-8]
	subs	xzr, x0, #254
	b.ne	L201
	.loc	4	216	20
	add	x0, x22, x24, lsl #2
	.loc	4	216	20
	ldr	d0, [x1, #0]
	.loc	4	216	20
	str	d0, [x0, #-4]
	b	L207
L201:
	.loc	4	216	20
	add	x0, x22, x24, lsl #2
	.loc	4	216	20
	sub	x0, x0, #4
	.loc	4	216	20
	add	fp, sp, #0
	.cfi_remember_state
	.cfi_def_cfa_register %29
	ldr	x16, [x28, #104]
	add	sp, x16, #0
	bl	_caml_modify
	add	sp, fp, #0
	.cfi_restore_state
L207:
	.loc	4	216	10
	ldr	x23, [x23, #8]
	.loc	4	216	44
	add	x24, x24, #2
	tbz	x23, #0, L189
L216:
	subs	xzr, x20, #3
	b.lt	L265
L218:
	.loc	1	29	2
	str	x22, [sp, #8]
	.loc	1	29	2
	sbfm	x1, x20, #1, #63
	str	x1, [sp, #24]
	orr	x0, xzr, #1
	orr	x2, xzr, #1
L224:
	orr	x3, xzr, #1
	.loc	1	29	2
	add	x3, x3, x2, lsl #1
	subs	xzr, x19, #3
	b.lt	L255
	.loc	1	30	4
	str	x3, [sp, #32]
	.loc	1	30	4
	str	x2, [sp, #64]
	.loc	1	30	4
	sbfm	x1, x19, #1, #63
	str	x1, [sp, #40]
	orr	x2, xzr, #1
L236:
	.loc	1	31	49
	str	x0, [sp, #56]
	.loc	1	31	49
	add	x0, x3, x2, lsl #1
	.loc	1	31	49
	str	x2, [sp, #48]
	.loc	1	31	48
	and	x0, x0, #63
	.loc	1	31	25
	add	x0, x22, x0, lsl #2
	.loc	1	31	25
	ldr	x0, [x0, #-4]
	orr	x1, xzr, x21
	.loc	1	31	20
	bl	_camlHash_lookup_string_equal__find_4_13_code
L290:
	orr	x1, xzr, x0
	.loc	1	31	13
	ldr	x0, [sp, #56]
	.loc	1	31	13
	add	x0, x0, x1
	.loc	1	31	13
	sub	x0, x0, #1
	.loc	1	30	4
	ldr	x2, [sp, #48]
	.loc	1	30	4
	add	x2, x2, #1
	ldr	x19, [sp, #0]
	ldr	x21, [sp, #16]
	ldr	x22, [sp, #8]
	ldr	x1, [sp, #24]
	ldr	x3, [sp, #32]
	ldr	x4, [sp, #40]
	subs	xzr, x2, x4
	b.le	L236
	ldr	x2, [sp, #64]
L255:
	.loc	1	29	2
	add	x2, x2, #1
	subs	xzr, x2, x1
	b.le	L224
	ldr	lr, [sp, #72]
	add	sp, sp, #80
	.cfi_adjust_cfa_offset -80
	ret
	.cfi_adjust_cfa_offset 80
L265:
	orr	x0, xzr, #1
	ldr	lr, [sp, #72]
	add	sp, sp, #80
	.cfi_adjust_cfa_offset -80
	ret
	.cfi_adjust_cfa_offset 80
L287:
	bl	_caml_call_gc
L285:
	b	L286
L282:
	movz	x16, #80
	stp	x16, lr, [sp, #-16]!
	bl	_caml_call_realloc_stack
	ldp	x16, lr, [sp], #16
	b	L283
	.cfi_endproc
	.text
	.align	3
	.globl	_camlHash_lookup_string_equal__fn$5bhash_lookup_string_equal.ml$3a24$2c17$2d$2d70$5d_7_16_code
