_camlEnv_find_same_layered_int_key__run_7_15_code:
L_camlEnv_find_same_layered_int_key__run_7_15_code:
	.loc	1	43	23
	.cfi_startproc
	sub	sp, sp, #64
	.cfi_adjust_cfa_offset 64
	.cfi_offset 30, -8
	str	lr, [sp, #56]
	ldr	x16, [x28, #40]
	add	x16, x16, #424
	subs	xzr, sp, x16
	b.cc	L296
L297:
	orr	x2, xzr, x0
	str	x2, [sp, #0]
	str	x1, [sp, #8]
	adrp	x1, L_camlEnv_find_same_layered_int_key__const_block153@PAGE
	add	x1, x1, L_camlEnv_find_same_layered_int_key__const_block153@PAGEOFF
	movz	x0, #13, lsl #0
	.loc	1	47	12
	bl	_camlEnv_find_same_layered_int_key__open_layers_6_14_code
L298:
	orr	x1, xzr, x0
	ldr	x2, [sp, #0]
	ldr	x0, [sp, #8]
	subs	xzr, x0, #3
	b.lt	L287
	.loc	1	50	2
	str	x1, [sp, #8]
	.loc	1	50	2
	sbfm	x3, x0, #1, #63
	str	x3, [sp, #16]
	orr	x0, xzr, #1
	orr	x4, xzr, #1
	subs	xzr, x2, #3
	b.lt	L277
	b	L256
L254:
	subs	xzr, x2, #3
	b.lt	L277
L256:
	.loc	1	51	4
	str	x4, [sp, #48]
	.loc	1	51	4
	sbfm	x2, x2, #1, #63
	str	x2, [sp, #24]
	orr	x4, xzr, #1
L262:
	str	x0, [sp, #40]
	str	x4, [sp, #32]
	adrp	x0, L_camlEnv_find_same_layered_int_key__const_block149@PAGE
	add	x0, x0, L_camlEnv_find_same_layered_int_key__const_block149@PAGEOFF
	.loc	1	52	20
	bl	_camlEnv_find_same_layered_int_key__find_same_without_locks_5_13_code
L299:
	orr	x1, xzr, x0
	.loc	1	52	13
	ldr	x0, [sp, #40]
	.loc	1	52	13
	add	x0, x0, x1
	.loc	1	52	13
	sub	x0, x0, #1
	.loc	1	51	4
	ldr	x4, [sp, #32]
	.loc	1	51	4
	add	x4, x4, #1
	ldr	x2, [sp, #0]
	ldr	x1, [sp, #8]
	ldr	x3, [sp, #16]
	ldr	x5, [sp, #24]
	subs	xzr, x4, x5
	b.le	L262
	ldr	x4, [sp, #48]
L277:
	.loc	1	50	2
	add	x4, x4, #1
	subs	xzr, x4, x3
	b.le	L254
	ldr	lr, [sp, #56]
	add	sp, sp, #64
	.cfi_adjust_cfa_offset -64
	ret
	.cfi_adjust_cfa_offset 64
L287:
	orr	x0, xzr, #1
	ldr	lr, [sp, #56]
	add	sp, sp, #64
	.cfi_adjust_cfa_offset -64
	ret
	.cfi_adjust_cfa_offset 64
L296:
	movz	x16, #64
	stp	x16, lr, [sp, #-16]!
	bl	_caml_call_realloc_stack
	ldp	x16, lr, [sp], #16
	b	L297
	.cfi_endproc
	.text
	.align	3
	.globl	_camlEnv_find_same_layered_int_key__entry
_camlEnv_find_same_layered_int_key__entry:
L_camlEnv_find_same_layered_int_key__entry:
	.cfi_startproc
	sub	sp, sp, #32
	.cfi_adjust_cfa_offset 32
	.cfi_offset 30, -8
	str	lr, [sp, #24]
	orr	x0, xzr, #1
	.loc	1	6	18
	adrp	x8, _caml_sys_argv@GOTPAGE
	ldr	x8, [x8, _caml_sys_argv@GOTPAGEOFF]
	bl	_caml_c_call
L411:
	.loc	1	6	5
	ldr	x0, [x0, #-8]
	.loc	1	6	5
	ubfm	x0, x0, #56, #55
	.loc	1	6	5
	ubfm	x0, x0, #17, #63
	subs	xzr, x0, #3
	b.le	L332
	orr	x0, xzr, #1
	.loc	1	6	50
	adrp	x8, _caml_sys_argv@GOTPAGE
	ldr	x8, [x8, _caml_sys_argv@GOTPAGEOFF]
	bl	_caml_c_call
L412:
	.loc	1	6	50
	ldr	x1, [x0, #-8]
	.loc	1	6	50
	ubfm	x1, x1, #56, #55
	.loc	1	6	50
	ubfm	x1, x1, #17, #63
	subs	xzr, x1, #3
	b.ls	L329
	.loc	1	6	50
	ldr	x0, [x0, #8]
	.loc	1	6	36
	adrp	x8, _caml_int_of_string@GOTPAGE
	ldr	x8, [x8, _caml_int_of_string@GOTPAGEOFF]
	bl	_caml_c_call
L413:
	orr	x2, xzr, x0
	b	L335
L329:
	adrp	x0, L_camlEnv_find_same_layered_int_key__block35@PAGE
	add	x0, x0, L_camlEnv_find_same_layered_int_key__block35@PAGEOFF
	.loc	1	6	50
	add	sp, x26, #0
	ldp	x26, x16, [sp], #16
	br	x16
L332:
	movz	x0, #3393, lsl #0
	movk	x0, #3, lsl #16
	orr	x2, xzr, x0
L335:
	adrp	x0, _camlEnv_find_same_layered_int_key@GOTPAGE
	ldr	x0, [x0, _camlEnv_find_same_layered_int_key@GOTPAGEOFF]
	add	x0, x0, #24
	orr	x1, xzr, x2
	str	x2, [sp, #0]
	add	fp, sp, #0
	.cfi_remember_state
	.cfi_def_cfa_register %29
	ldr	x16, [x28, #104]
	add	sp, x16, #0
	bl	_caml_initialize
	add	sp, fp, #0
	.cfi_restore_state
	orr	x0, xzr, #1
	.loc	1	9	18
	adrp	x8, _caml_sys_argv@GOTPAGE
	ldr	x8, [x8, _caml_sys_argv@GOTPAGEOFF]
	bl	_caml_c_call
L414:
	.loc	1	9	5
	ldr	x0, [x0, #-8]
	.loc	1	9	5
	ubfm	x0, x0, #56, #55
	.loc	1	9	5
	ubfm	x0, x0, #17, #63
	ldr	x1, [sp, #0]
	subs	xzr, x0, #5
	b.le	L365
	str	x1, [sp, #0]
	orr	x0, xzr, #1
	.loc	1	9	50
	adrp	x8, _caml_sys_argv@GOTPAGE
	ldr	x8, [x8, _caml_sys_argv@GOTPAGEOFF]
	bl	_caml_c_call
L415:
	.loc	1	9	50
	ldr	x1, [x0, #-8]
	.loc	1	9	50
	ubfm	x1, x1, #56, #55
	.loc	1	9	50
	ubfm	x1, x1, #17, #63
	ldr	x2, [sp, #0]
	subs	xzr, x1, #5
	b.ls	L362
	.loc	1	9	50
	str	x2, [sp, #0]
	.loc	1	9	50
	ldr	x0, [x0, #16]
	.loc	1	9	36
	adrp	x8, _caml_int_of_string@GOTPAGE
	ldr	x8, [x8, _caml_int_of_string@GOTPAGEOFF]
	bl	_caml_c_call
L416:
	orr	x19, xzr, x0
	ldr	x0, [sp, #0]
	orr	x2, xzr, x0
	b	L368
L362:
	adrp	x0, L_camlEnv_find_same_layered_int_key__block35@PAGE
	add	x0, x0, L_camlEnv_find_same_layered_int_key__block35@PAGEOFF
	.loc	1	9	50
	add	sp, x26, #0
	ldp	x26, x16, [sp], #16
	br	x16
L365:
	movz	x0, #21, lsl #0
	orr	x19, xzr, x0
	orr	x2, xzr, x1
L368:
	str	x2, [sp, #0]
	adrp	x0, _camlEnv_find_same_layered_int_key@GOTPAGE
	ldr	x0, [x0, _camlEnv_find_same_layered_int_key@GOTPAGEOFF]
	add	x0, x0, #32
	orr	x1, xzr, x19
	add	fp, sp, #0
	.cfi_remember_state
	.cfi_def_cfa_register %29
	ldr	x16, [x28, #104]
	add	sp, x16, #0
	bl	_caml_initialize
	add	sp, fp, #0
	.cfi_restore_state
	orr	x0, xzr, #1
	.loc	1	14	0
	add	fp, sp, #0
	.cfi_remember_state
	.cfi_def_cfa_register %29
	ldr	x16, [x28, #104]
	add	sp, x16, #0
	bl	_caml_fresh_oo_id
	add	sp, fp, #0
	.cfi_restore_state
	orr	x1, xzr, x0
	adrp	x0, _camlEnv_find_same_layered_int_key__Not_found_same292@GOTPAGE
	ldr	x0, [x0, _camlEnv_find_same_layered_int_key__Not_found_same292@GOTPAGEOFF]
	.loc	1	14	0
	add	x0, x0, #8
	.loc	1	14	0
	add	fp, sp, #0
	.cfi_remember_state
	.cfi_def_cfa_register %29
	ldr	x16, [x28, #104]
	add	sp, x16, #0
	bl	_caml_initialize
	add	sp, fp, #0
	.cfi_restore_state
	ldr	x16, [x28, #40]
	add	x16, x16, #392
	subs	xzr, sp, x16
	b.cc	L417
L418:
	orr	x0, xzr, x19
	.loc	1	57	45
	bl	_camlEnv_find_same_layered_int_key__black_box_int_0_8_code
L419:
	str	x0, [sp, #8]
	ldr	x0, [sp, #0]
	.loc	1	57	27
	bl	_camlEnv_find_same_layered_int_key__black_box_int_0_8_code
L420:
	ldr	x1, [sp, #8]
	.loc	1	57	22
	bl	_camlEnv_find_same_layered_int_key__run_7_15_code
L421:
	str	x0, [sp, #0]
	adrp	x2, _camlEnv_find_same_layered_int_key__const_block66@GOTPAGE
	ldr	x2, [x2, _camlEnv_find_same_layered_int_key__const_block66@GOTPAGEOFF]
	orr	x1, xzr, #1
	adrp	x0, _camlStdlib__Printf__fn$5b$2fworkspace_root$2fprintf.ml$3a27$2c14$2d$2d48$5d_31@GOTPAGE
	ldr	x0, [x0, _camlStdlib__Printf__fn$5b$2fworkspace_root$2fprintf.ml$3a27$2c14$2d$2d48$5d_31@GOTPAGEOFF]
	.loc	2	27	2
	bl	_camlCamlinternalFormat__make_printf_120_401_code
L422:
	orr	x1, xzr, x0
	.loc	1	11	44
	ldr	x0, [sp, #0]
	.loc	1	11	44
	and	x0, x0, #2147483647
	.loc	1	11	21
	ldr	x2, [x1, #0]
	.loc	1	11	21
	blr	x2
L423:
	orr	x0, xzr, #1
	ldr	lr, [sp, #24]
	add	sp, sp, #32
	.cfi_adjust_cfa_offset -32
	ret
	.cfi_adjust_cfa_offset 32
L417:
	movz	x16, #32
	stp	x16, lr, [sp, #-16]!
	bl	_caml_call_realloc_stack
	ldp	x16, lr, [sp], #16
	b	L418
	.cfi_endproc
	.data
	.align	3
	.text
	.globl	_camlEnv_find_same_layered_int_key__code_end
_camlEnv_find_same_layered_int_key__code_end:
	.data
	.8byte	0
	.globl	_camlEnv_find_same_layered_int_key__data_end
_camlEnv_find_same_layered_int_key__data_end:
	.8byte	0
	.align	3
	.globl	_camlEnv_find_same_layered_int_key__frametable
_camlEnv_find_same_layered_int_key__frametable:
	.8byte	20
	.4byte	(L423 - .) + 0
	.2byte	33
	.2byte	0
	.align	2
	.4byte	(L424 - .) + 0
	.align	3
	.4byte	(L422 - .) + 0
	.2byte	33
	.2byte	0
	.align	2
	.4byte	(L425 - .) + 0
	.align	3
	.4byte	(L421 - .) + 0
	.2byte	33
	.2byte	0
	.align	2
	.4byte	(L426 - .) + 0
	.align	3
	.4byte	(L420 - .) + 0
	.2byte	33
	.2byte	0
	.align	2
	.4byte	(L427 - .) + 0
	.align	3
	.4byte	(L419 - .) + 0
	.2byte	33
	.2byte	0
	.align	2
	.4byte	(L428 - .) + 0
	.align	3
	.4byte	(L416 - .) + 0
	.2byte	33
	.2byte	0
	.align	2
	.4byte	(L429 - .) + 0
	.align	3
	.4byte	(L415 - .) + 0
	.2byte	33
	.2byte	0
	.align	2
	.4byte	(L430 - .) + 0
	.align	3
	.4byte	(L414 - .) + 0
	.2byte	33
	.2byte	0
	.align	2
	.4byte	(L431 - .) + 0
	.align	3
	.4byte	(L413 - .) + 0
	.2byte	33
	.2byte	0
	.align	2
	.4byte	(L432 - .) + 0
	.align	3
	.4byte	(L412 - .) + 0
	.2byte	33
	.2byte	0
	.align	2
	.4byte	(L433 - .) + 0
	.align	3
	.4byte	(L411 - .) + 0
	.2byte	33
	.2byte	0
	.align	2
	.4byte	(L434 - .) + 0
	.align	3
	.4byte	(L299 - .) + 0
	.2byte	65
	.2byte	1
	.2byte	8
	.align	2
	.4byte	(L435 - .) + 0
	.align	3
	.4byte	(L298 - .) + 0
	.2byte	65
	.2byte	0
	.align	2
	.4byte	(L436 - .) + 0
	.align	3
	.4byte	(L238 - .) + 0
	.2byte	18
	.2byte	1
	.2byte	3
	.byte	1
	.byte	1
	.align	3
	.4byte	(L235 - .) + 0
	.2byte	18
	.2byte	1
	.2byte	1
	.byte	1
	.byte	0
	.align	3
	.4byte	(L234 - .) + 0
	.2byte	17
	.2byte	0
	.align	2
	.4byte	(L437 - .) + 0
	.align	3
	.4byte	(L231 - .) + 0
	.2byte	18
	.2byte	1
	.2byte	1
	.byte	1
	.byte	0
	.align	3
	.4byte	(L230 - .) + 0
	.2byte	17
	.2byte	0
	.align	2
	.4byte	(L438 - .) + 0
	.align	3
	.4byte	(L185 - .) + 0
	.2byte	49
	.2byte	2
	.2byte	16
	.2byte	24
	.align	2
	.4byte	(L439 - .) + 0
	.align	3
	.4byte	(L122 - .) + 0
	.2byte	17
	.2byte	0
	.align	2
	.4byte	(L440 - .) + 0
	.align	3
	.align	2
L438:
	.4byte	(L442 - .) + 0
	.4byte	20990304
	.align	2
L428:
	.4byte	(L443 - .) + 0
	.4byte	29931016
	.align	2
L424:
	.4byte	(L444 - .) + 1
	.4byte	5789176
	.4byte	(L443 - .) + 0
	.4byte	29894160
	.align	2
L439:
	.4byte	(L445 - .) + 0
	.4byte	14162208
	.align	2
L434:
	.4byte	(L446 - .) + 0
	.4byte	3164368
	.align	2
L426:
	.4byte	(L443 - .) + 0
	.4byte	29907472
	.align	2
L436:
	.4byte	(L447 - .) + 0
	.4byte	24654080
	.align	2
L427:
	.4byte	(L443 - .) + 0
	.4byte	29912416
	.align	2
L430:
	.4byte	(L448 - .) + 0
	.4byte	4770256
	.align	2
L435:
	.4byte	(L447 - .) + 0
	.4byte	27283856
	.align	2
L431:
	.4byte	(L448 - .) + 0
	.4byte	4737232
	.align	2
L425:
	.4byte	(L450 - .) + 1
	.4byte	14158328
	.4byte	(L451 - .) + 1
	.4byte	17847640
	.4byte	(L452 - .) + 1
	.4byte	19940632
	.4byte	(L444 - .) + 1
	.4byte	5789176
	.4byte	(L443 - .) + 0
	.4byte	29894160
	.align	2
L433:
	.4byte	(L446 - .) + 0
	.4byte	3197392
	.align	2
L432:
	.4byte	(L446 - .) + 0
	.4byte	3183088
	.align	2
L437:
	.4byte	(L442 - .) + 0
	.4byte	21514592
	.align	2
L440:
	.4byte	(L450 - .) + 1
	.4byte	14158328
	.4byte	(L451 - .) + 1
	.4byte	17847640
	.4byte	(L452 - .) + 1
	.4byte	19940632
	.4byte	(L444 - .) + 0
	.4byte	5789176
	.align	2
L429:
	.4byte	(L448 - .) + 0
	.4byte	4755952
L449:
	.ascii	"printf.ml\0"
L441:
	.ascii	"env_find_same_layered_int_key.ml\0"
	.align	2
L447:
	.4byte	(L441 - .) + 0
	.ascii	"Env_find_same_layered_int_key.run\0"
	.align	2
L442:
	.4byte	(L441 - .) + 0
	.ascii	"Env_find_same_layered_int_key.open_layers\0"
	.align	2
L445:
	.4byte	(L441 - .) + 0
	.ascii	"Env_find_same_layered_int_key.find_same_without_locks\0"
	.align	2
L448:
	.4byte	(L441 - .) + 0
	.ascii	"Env_find_same_layered_int_key.reps\0"
	.align	2
L452:
	.4byte	(L449 - .) + 0
	.ascii	"Stdlib__Printf.printf\0"
	.align	2
L451:
	.4byte	(L449 - .) + 0
	.ascii	"Stdlib__Printf.fprintf\0"
	.align	2
L446:
	.4byte	(L441 - .) + 0
	.ascii	"Env_find_same_layered_int_key.n\0"
	.align	2
L443:
	.4byte	(L441 - .) + 0
	.ascii	"Env_find_same_layered_int_key\0"
	.align	2
L450:
	.4byte	(L449 - .) + 0
	.ascii	"Stdlib__Printf.kfprintf\0"
	.align	2
L444:
	.4byte	(L441 - .) + 0
	.ascii	"Env_find_same_layered_int_key.print_result\0"
	.align	3
