	.section	__TEXT,__text,regular,pure_instructions
	.build_version macos, 16, 0
	.globl	_camlHash_lookup_string_equal__code_begin
_camlHash_lookup_string_equal__code_begin:
	.section	__DATA,__data
	.globl	_camlHash_lookup_string_equal__data_begin
_camlHash_lookup_string_equal__data_begin:
	.section	__TEXT,__text,regular,pure_instructions
	.globl	_camlHash_lookup_string_equal__black_box_int_0_9_code ; -- Begin function _camlHash_lookup_string_equal__black_box_int_0_9_code
	.p2align	2
_camlHash_lookup_string_equal__black_box_int_0_9_code: ; @"\01_camlHash_lookup_string_equal__black_box_int_0_9_code"
	.cfi_startproc
; %bb.0:                                ; %L1
	; InlineAsm Start
	; InlineAsm End
	ret
	.cfi_endproc
                                        ; -- End function
	.globl	_camlHash_lookup_string_equal__black_box_string_1_10_code ; -- Begin function _camlHash_lookup_string_equal__black_box_string_1_10_code
	.p2align	2
_camlHash_lookup_string_equal__black_box_string_1_10_code: ; @"\01_camlHash_lookup_string_equal__black_box_string_1_10_code"
	.cfi_startproc
; %bb.0:                                ; %L1
	; InlineAsm Start
	; InlineAsm End
	ret
	.cfi_endproc
                                        ; -- End function
	.globl	_camlHash_lookup_string_equal__black_box_2_11_code ; -- Begin function _camlHash_lookup_string_equal__black_box_2_11_code
	.p2align	2
_camlHash_lookup_string_equal__black_box_2_11_code: ; @"\01_camlHash_lookup_string_equal__black_box_2_11_code"
	.cfi_startproc
; %bb.0:                                ; %L1
	; InlineAsm Start
	; InlineAsm End
	ret
	.cfi_endproc
                                        ; -- End function
	.globl	_camlHash_lookup_string_equal__print_result_3_12_code ; -- Begin function _camlHash_lookup_string_equal__print_result_3_12_code
	.p2align	2
_camlHash_lookup_string_equal__print_result_3_12_code: ; @"\01_camlHash_lookup_string_equal__print_result_3_12_code"
	.cfi_startproc
; %bb.0:                                ; %L1
	sub	sp, sp, #16
	.cfi_def_cfa_offset 16
	str	x30, [sp, #8]                   ; 8-byte Folded Spill
	.cfi_offset w30, -16
	sub	sp, sp, #16
	.cfi_def_cfa_offset 32
	str	x0, [sp, #8]                    ; 8-byte Folded Spill
	ldr	x8, [x28, #40]
	add	x8, x8, #376
	; InlineAsm Start
	mov	x9, sp
	; InlineAsm End
	cmp	x9, x8
	b.lo	LBB3_2
LBB3_1:                                 ; %L117
Lloh0:
	adrp	x0, _camlStdlib__Printf__fn$5b$2fworkspace_root$2fprintf.ml$3a27$2c14$2d$2d48$5d_31@GOTPAGE
Lloh1:
	ldr	x0, [x0, _camlStdlib__Printf__fn$5b$2fworkspace_root$2fprintf.ml$3a27$2c14$2d$2d48$5d_31@GOTPAGEOFF]
Lloh2:
	adrp	x2, _camlHash_lookup_string_equal__const_block66@PAGE
Lloh3:
	add	x2, x2, _camlHash_lookup_string_equal__const_block66@PAGEOFF
	mov	w1, #1
	bl	_camlCamlinternalFormat__make_printf_120_401_code
Ltmp0:
	mov	x1, x0
	ldr	x8, [sp, #8]                    ; 8-byte Folded Reload
	and	x0, x8, #0x7fffffff
	ldr	x2, [x1]
	ldr	x30, [sp, #24]                  ; 8-byte Folded Reload
	add	sp, sp, #32
	br	x2
LBB3_2:                                 ; %L116
	mov	w0, #34
	bl	_caml_llvm_call_realloc_stack
Ltmp1:
	b	LBB3_1
	.loh AdrpAdd	Lloh2, Lloh3
	.loh AdrpLdrGot	Lloh0, Lloh1
	.cfi_endproc
                                        ; -- End function
	.globl	_camlHash_lookup_string_equal__find_4_13_code ; -- Begin function _camlHash_lookup_string_equal__find_4_13_code
	.p2align	2
_camlHash_lookup_string_equal__find_4_13_code: ; @"\01_camlHash_lookup_string_equal__find_4_13_code"
	.cfi_startproc
; %bb.0:                                ; %L1
	sub	sp, sp, #16
	.cfi_def_cfa_offset 16
	str	x30, [sp, #8]                   ; 8-byte Folded Spill
	.cfi_offset w30, -16
	ldr	x20, [x1]
	tbnz	w20, #0, LBB4_5
; %bb.1:
	mov	x19, x0
LBB4_2:                                 ; %L129
                                        ; =>This Inner Loop Header: Depth=1
	ldr	x21, [x20]
	ldr	x1, [x21]
	cmp	x1, x19
	b.eq	LBB4_6
; %bb.3:                                ; %L132
                                        ;   in Loop: Header=BB4_2 Depth=1
	mov	x0, x19
	mov	x29, sp
	.cfi_remember_state
	.cfi_def_cfa_register w29
	ldr	x16, [x28, #104]
	mov	sp, x16
	bl	_caml_string_equal
	mov	sp, x29
	.cfi_restore_state
	cmp	x0, #1
	b.ne	LBB4_6
; %bb.4:                                ; %L134
                                        ;   in Loop: Header=BB4_2 Depth=1
	ldr	x20, [x20, #8]
	tbz	w20, #0, LBB4_2
LBB4_5:                                 ; %common.ret.loopexit
	mov	x0, #-1
	ldr	x30, [sp, #8]                   ; 8-byte Folded Reload
	add	sp, sp, #16
	ret
LBB4_6:                                 ; %L138
	ldr	x0, [x21, #8]
	ldr	x30, [sp, #8]                   ; 8-byte Folded Reload
	add	sp, sp, #16
	ret
	.cfi_endproc
                                        ; -- End function
	.globl	_camlHash_lookup_string_equal__run_6_15_code ; -- Begin function _camlHash_lookup_string_equal__run_6_15_code
	.p2align	2
_camlHash_lookup_string_equal__run_6_15_code: ; @"\01_camlHash_lookup_string_equal__run_6_15_code"
	.cfi_startproc
; %bb.0:                                ; %L1
	sub	sp, sp, #16
	.cfi_def_cfa_offset 16
	str	x30, [sp, #8]                   ; 8-byte Folded Spill
	.cfi_offset w30, -16
	sub	sp, sp, #96
	.cfi_def_cfa_offset 112
	str	x0, [sp, #32]                   ; 8-byte Folded Spill
	ldr	x8, [x28, #40]
	add	x8, x8, #376
	; InlineAsm Start
	mov	x9, sp
	; InlineAsm End
	cmp	x9, x8
	str	x1, [sp, #40]                   ; 8-byte Folded Spill
	b.lo	LBB5_23
LBB5_1:                                 ; %L280
Lloh4:
	adrp	x2, _camlHash_lookup_string_equal__fn$5bhash_lookup_string_equal.ml$3a24$2c17$2d$2d70$5d_15@PAGE
Lloh5:
	add	x2, x2, _camlHash_lookup_string_equal__fn$5bhash_lookup_string_equal.ml$3a24$2c17$2d$2d70$5d_15@PAGEOFF
	mov	w0, #1
	mov	w1, #63
	bl	_camlStdlib__List__init_11_109_code
Ltmp2:
	mov	x1, x0
	sub	x27, x27, #16
	ldr	x8, [x28]
	cmp	x8, x27
	b.hi	LBB5_24
LBB5_2:                                 ; %L282
	mov	w8, #1024
	str	x8, [x27]
	mov	x8, x27
	str	x1, [x8, #8]!
	str	x8, [sp, #88]
Lloh6:
	adrp	x0, _camlHash_lookup_string_equal__fn$5bhash_lookup_string_equal.ml$3a27$2c37$2d$2d40$5d_16@PAGE
Lloh7:
	add	x0, x0, _camlHash_lookup_string_equal__fn$5bhash_lookup_string_equal.ml$3a27$2c37$2d$2d40$5d_16@PAGEOFF
	bl	_camlStdlib__List__map_15_113_code
Ltmp3:
	tbnz	w0, #0, LBB5_13
; %bb.3:                                ; %L172.preheader
	mov	w9, #1
	mov	x8, x0
LBB5_4:                                 ; %L172
                                        ; =>This Inner Loop Header: Depth=1
	ldr	x8, [x8, #8]
	add	x9, x9, #2
	tbz	w8, #0, LBB5_4
; %bb.5:                                ; %L170
	ldr	x1, [x0]
	str	x9, [sp, #72]
	str	x0, [sp, #80]
	str	x1, [sp, #64]
Lloh8:
	adrp	x8, _caml_array_make@GOTPAGE
Lloh9:
	ldr	x8, [x8, _caml_array_make@GOTPAGEOFF]
	mov	x0, x9
	bl	_caml_c_call
Ltmp4:
	mov	x20, x0
	ldr	x19, [sp, #88]
	ldr	x8, [sp, #80]
	ldr	x22, [x8, #8]
	tbnz	w22, #0, LBB5_10
; %bb.6:                                ; %L192.preheader
	add	x21, x20, #8
	b	LBB5_8
LBB5_7:                                 ; %L207
                                        ;   in Loop: Header=BB5_8 Depth=1
	mov	x0, x21
	mov	x29, sp
	.cfi_remember_state
	.cfi_def_cfa_register w29
	ldr	x16, [x28, #104]
	mov	sp, x16
	bl	_caml_modify
	mov	sp, x29
	.cfi_restore_state
	ldr	x22, [x22, #8]
	add	x21, x21, #8
	tbnz	w22, #0, LBB5_10
LBB5_8:                                 ; %L192
                                        ; =>This Inner Loop Header: Depth=1
	ldr	x1, [x22]
	ldurb	w8, [x20, #-8]
	cmp	w8, #254
	b.ne	LBB5_7
; %bb.9:                                ; %L200
                                        ;   in Loop: Header=BB5_8 Depth=1
	ldr	d0, [x1]
	str	d0, [x21], #8
	ldr	x22, [x22, #8]
	tbz	w22, #0, LBB5_8
LBB5_10:                                ; %L190
	ldr	x8, [sp, #40]                   ; 8-byte Folded Reload
	cmp	x8, #3
	b.ge	LBB5_16
; %bb.11:
	mov	w0, #1
LBB5_12:                                ; %common.ret
	ldr	x30, [sp, #104]                 ; 8-byte Folded Reload
	add	sp, sp, #112
	ret
LBB5_13:                                ; %L158
	ldr	x8, [sp, #40]                   ; 8-byte Folded Reload
	cmp	x8, #3
	b.ge	LBB5_15
; %bb.14:
	mov	w0, #1
	ldr	x30, [sp, #104]                 ; 8-byte Folded Reload
	add	sp, sp, #112
	ret
LBB5_15:
	ldr	x19, [sp, #88]
Lloh10:
	adrp	x20, _camlStdlib__Array__empty_array50@GOTPAGE
Lloh11:
	ldr	x20, [x20, _camlStdlib__Array__empty_array50@GOTPAGEOFF]
LBB5_16:                                ; %L226
	lsr	x9, x8, #1
	ldr	x8, [sp, #32]                   ; 8-byte Folded Reload
	cmp	x8, #3
	b.ge	LBB5_19
; %bb.17:                               ; %L232.us.preheader
	mov	w0, #1
	mov	w8, #1
LBB5_18:                                ; %L232.us
                                        ; =>This Inner Loop Header: Depth=1
	add	x8, x8, #1
	cmp	x8, x9
	b.le	LBB5_18
	b	LBB5_12
LBB5_19:                                ; %L232.preheader
	lsr	x8, x8, #1
	mov	w0, #1
	mov	w10, #1
	str	x9, [sp]                        ; 8-byte Folded Spill
	str	x8, [sp, #16]                   ; 8-byte Folded Spill
LBB5_20:                                ; %L232
                                        ; =>This Loop Header: Depth=1
                                        ;     Child Loop BB5_21 Depth 2
	str	x19, [sp, #48]
	str	x20, [sp, #56]
	mov	w9, #1
	str	x10, [sp, #8]                   ; 8-byte Folded Spill
	orr	x9, x9, x10, lsl #1
	str	x9, [sp, #24]                   ; 8-byte Folded Spill
	mov	w9, #1
LBB5_21:                                ; %L244
                                        ;   Parent Loop BB5_20 Depth=1
                                        ; =>  This Inner Loop Header: Depth=2
	str	x0, [sp, #32]                   ; 8-byte Folded Spill
	str	x9, [sp, #40]                   ; 8-byte Folded Spill
	ldr	x8, [sp, #24]                   ; 8-byte Folded Reload
	add	w8, w8, w9, lsl #1
	ubfiz	x8, x8, #2, #6
	add	x8, x20, x8
	ldur	x0, [x8, #-4]
	mov	x1, x19
	bl	_camlHash_lookup_string_equal__find_4_13_code
Ltmp5:
	ldr	x9, [sp, #40]                   ; 8-byte Folded Reload
	ldr	x19, [sp, #48]
	ldr	x20, [sp, #56]
	ldr	x8, [sp, #32]                   ; 8-byte Folded Reload
	add	x8, x8, x0
	sub	x0, x8, #1
	ldr	x8, [sp, #16]                   ; 8-byte Folded Reload
	add	x9, x9, #1
	cmp	x9, x8
	b.le	LBB5_21
; %bb.22:                               ; %L265.loopexit
                                        ;   in Loop: Header=BB5_20 Depth=1
	ldr	x10, [sp, #8]                   ; 8-byte Folded Reload
	add	x10, x10, #1
	ldr	x9, [sp]                        ; 8-byte Folded Reload
	cmp	x10, x9
	b.le	LBB5_20
	b	LBB5_12
LBB5_23:                                ; %L279
	mov	w0, #34
	bl	_caml_llvm_call_realloc_stack
Ltmp6:
	b	LBB5_1
LBB5_24:                                ; %L281
	bl	_caml_call_gc
Ltmp7:
	b	LBB5_2
	.loh AdrpAdd	Lloh4, Lloh5
	.loh AdrpAdd	Lloh6, Lloh7
	.loh AdrpLdrGot	Lloh8, Lloh9
	.loh AdrpLdrGot	Lloh10, Lloh11
	.cfi_endproc
                                        ; -- End function
	.globl	_camlHash_lookup_string_equal__fn$5bhash_lookup_string_equal.ml$3a24$2c17$2d$2d70$5d_7_16_code ; -- Begin function _camlHash_lookup_string_equal__fn$5bhash_lookup_string_equal.ml$3a24$2c17$2d$2d70$5d_7_16_code
	.p2align	2
_camlHash_lookup_string_equal__fn$5bhash_lookup_string_equal.ml$3a24$2c17$2d$2d70$5d_7_16_code: ; @"\01_camlHash_lookup_string_equal__fn$5bhash_lookup_string_equal.ml$3a24$2c17$2d$2d70$5d_7_16_code"
	.cfi_startproc
; %bb.0:                                ; %L1
	sub	sp, sp, #16
	.cfi_def_cfa_offset 16
	str	x30, [sp, #8]                   ; 8-byte Folded Spill
	.cfi_offset w30, -16
	sub	sp, sp, #16
	.cfi_def_cfa_offset 32
	mov	x19, x0
	str	x0, [sp, #8]
Lloh12:
	adrp	x8, _caml_format_int@GOTPAGE
Lloh13:
	ldr	x8, [x8, _caml_format_int@GOTPAGEOFF]
Lloh14:
	adrp	x0, _camlStdlib__immstring191@GOTPAGE
Lloh15:
	ldr	x0, [x0, _camlStdlib__immstring191@GOTPAGEOFF]
	mov	x1, x19
	bl	_caml_c_call
Ltmp8:
	ldur	x8, [x0, #-8]
	lsr	x8, x8, #7
	and	x8, x8, #0x1fffffffffff8
	sub	x8, x8, #1
	ldrb	w9, [x0, x8]
	sub	x8, x8, x9
	lsl	x9, x8, #1
	mov	w21, #1
	bfi	x21, x8, #1, #63
	add	x9, x9, #39
	str	x0, [sp, #8]
	str	x9, [sp]
Lloh16:
	adrp	x8, _caml_create_bytes@GOTPAGE
Lloh17:
	ldr	x8, [x8, _caml_create_bytes@GOTPAGEOFF]
	mov	x0, x9
	bl	_caml_c_call
Ltmp9:
	mov	x20, x0
	ldr	x22, [sp, #8]
Lloh18:
	adrp	x0, _camlHash_lookup_string_equal__immstring117@PAGE
Lloh19:
	add	x0, x0, _camlHash_lookup_string_equal__immstring117@PAGEOFF
	mov	w1, #1
	mov	x2, x20
	mov	w3, #1
	mov	w4, #39
	mov	x29, sp
	.cfi_remember_state
	.cfi_def_cfa_register w29
	ldr	x16, [x28, #104]
	mov	sp, x16
	bl	_caml_blit_string
	mov	sp, x29
	.cfi_restore_state
	mov	x0, x22
	mov	w1, #1
	mov	x2, x20
	mov	w3, #39
	mov	x4, x21
	mov	x29, sp
	.cfi_remember_state
	.cfi_def_cfa_register w29
	ldr	x16, [x28, #104]
	mov	sp, x16
	bl	_caml_blit_string
	mov	sp, x29
	.cfi_restore_state
	sub	x27, x27, #24
	ldr	x8, [x28]
	cmp	x8, x27
	b.hi	LBB6_2
LBB6_1:                                 ; %L309
	mov	w8, #2048
	str	x8, [x27]
	mov	x0, x27
	str	x20, [x0, #8]!
	str	x19, [x27, #16]
	ldr	x30, [sp, #24]                  ; 8-byte Folded Reload
	add	sp, sp, #32
	ret
LBB6_2:                                 ; %L308
	bl	_caml_call_gc
Ltmp10:
	b	LBB6_1
	.loh AdrpAdd	Lloh18, Lloh19
	.loh AdrpLdrGot	Lloh16, Lloh17
	.loh AdrpLdrGot	Lloh14, Lloh15
	.loh AdrpLdrGot	Lloh12, Lloh13
	.cfi_endproc
                                        ; -- End function
	.globl	_camlHash_lookup_string_equal__fn$5bhash_lookup_string_equal.ml$3a27$2c37$2d$2d40$5d_8_8_code ; -- Begin function _camlHash_lookup_string_equal__fn$5bhash_lookup_string_equal.ml$3a27$2c37$2d$2d40$5d_8_8_code
	.p2align	2
_camlHash_lookup_string_equal__fn$5bhash_lookup_string_equal.ml$3a27$2c37$2d$2d40$5d_8_8_code: ; @"\01_camlHash_lookup_string_equal__fn$5bhash_lookup_string_equal.ml$3a27$2c37$2d$2d40$5d_8_8_code"
; %bb.0:                                ; %L1
	ldr	x0, [x0]
	ret
                                        ; -- End function
	.globl	_camlHash_lookup_string_equal__entry ; -- Begin function _camlHash_lookup_string_equal__entry
	.p2align	2
_camlHash_lookup_string_equal__entry:   ; @"\01_camlHash_lookup_string_equal__entry"
	.cfi_startproc
; %bb.0:                                ; %L1
	sub	sp, sp, #16
	.cfi_def_cfa_offset 16
	str	x30, [sp, #8]                   ; 8-byte Folded Spill
	.cfi_offset w30, -16
	sub	sp, sp, #32
	.cfi_def_cfa_offset 48
Lloh20:
	adrp	x8, _caml_sys_argv@GOTPAGE
Lloh21:
	ldr	x8, [x8, _caml_sys_argv@GOTPAGEOFF]
	mov	w0, #1
	bl	_caml_c_call
Ltmp11:
	ldur	x8, [x0, #-8]
	tst	x8, #0xfffffffffff800
	b.eq	LBB8_3
; %bb.1:                                ; %L328
Lloh22:
	adrp	x8, _caml_sys_argv@GOTPAGE
Lloh23:
	ldr	x8, [x8, _caml_sys_argv@GOTPAGEOFF]
	mov	w0, #1
	bl	_caml_c_call
Ltmp12:
	ldur	x8, [x0, #-8]
	tst	x8, #0xfffffffffff800
	b.eq	LBB8_11
; %bb.2:                                ; %L338
	ldr	x0, [x0, #8]
	str	x0, [sp, #24]
Lloh24:
	adrp	x8, _caml_int_of_string@GOTPAGE
Lloh25:
	ldr	x8, [x8, _caml_int_of_string@GOTPAGEOFF]
	bl	_caml_c_call
Ltmp13:
	mov	x20, x0
	b	LBB8_4
LBB8_3:
	mov	w20, #3393
	movk	w20, #3, lsl #16
LBB8_4:                                 ; %L352
Lloh26:
	adrp	x0, _camlHash_lookup_string_equal@PAGE+24
Lloh27:
	add	x0, x0, _camlHash_lookup_string_equal@PAGEOFF+24
	mov	x1, x20
	mov	x29, sp
	.cfi_remember_state
	.cfi_def_cfa_register w29
	ldr	x16, [x28, #104]
	mov	sp, x16
	bl	_caml_initialize
	mov	sp, x29
	.cfi_restore_state
Lloh28:
	adrp	x8, _caml_sys_argv@GOTPAGE
Lloh29:
	ldr	x8, [x8, _caml_sys_argv@GOTPAGEOFF]
	mov	w0, #1
	bl	_caml_c_call
Ltmp14:
	ldur	x8, [x0, #-8]
	and	x8, x8, #0xfffffffffffc00
	cmp	x8, #2561
	b.lo	LBB8_7
; %bb.5:                                ; %L364
Lloh30:
	adrp	x8, _caml_sys_argv@GOTPAGE
Lloh31:
	ldr	x8, [x8, _caml_sys_argv@GOTPAGEOFF]
	mov	w0, #1
	bl	_caml_c_call
Ltmp15:
	ldur	x8, [x0, #-8]
	and	x8, x8, #0xfffffffffffc00
	cmp	x8, #2561
	b.lo	LBB8_11
; %bb.6:                                ; %L374
	ldr	x0, [x0, #16]
	str	x0, [sp, #24]
Lloh32:
	adrp	x8, _caml_int_of_string@GOTPAGE
Lloh33:
	ldr	x8, [x8, _caml_int_of_string@GOTPAGEOFF]
	bl	_caml_c_call
Ltmp16:
	mov	x19, x0
	b	LBB8_8
LBB8_7:
	mov	w19, #21
LBB8_8:                                 ; %L388
Lloh34:
	adrp	x0, _camlHash_lookup_string_equal@PAGE+32
Lloh35:
	add	x0, x0, _camlHash_lookup_string_equal@PAGEOFF+32
	mov	x1, x19
	mov	x29, sp
	.cfi_remember_state
	.cfi_def_cfa_register w29
	ldr	x16, [x28, #104]
	mov	sp, x16
	bl	_caml_initialize
	mov	sp, x29
	.cfi_restore_state
	ldr	x8, [x28, #40]
	add	x8, x8, #376
	; InlineAsm Start
	mov	x9, sp
	; InlineAsm End
	cmp	x9, x8
	str	x20, [sp, #16]                  ; 8-byte Folded Spill
	b.lo	LBB8_10
LBB8_9:                                 ; %L409
	mov	x0, x19
	bl	_camlHash_lookup_string_equal__black_box_int_0_9_code
Ltmp17:
	str	x0, [sp, #8]                    ; 8-byte Folded Spill
	ldr	x0, [sp, #16]                   ; 8-byte Folded Reload
	bl	_camlHash_lookup_string_equal__black_box_int_0_9_code
Ltmp18:
	ldr	x1, [sp, #8]                    ; 8-byte Folded Reload
	bl	_camlHash_lookup_string_equal__run_6_15_code
Ltmp19:
	str	x0, [sp, #16]                   ; 8-byte Folded Spill
Lloh36:
	adrp	x0, _camlStdlib__Printf__fn$5b$2fworkspace_root$2fprintf.ml$3a27$2c14$2d$2d48$5d_31@GOTPAGE
Lloh37:
	ldr	x0, [x0, _camlStdlib__Printf__fn$5b$2fworkspace_root$2fprintf.ml$3a27$2c14$2d$2d48$5d_31@GOTPAGEOFF]
Lloh38:
	adrp	x2, _camlHash_lookup_string_equal__const_block66@PAGE
Lloh39:
	add	x2, x2, _camlHash_lookup_string_equal__const_block66@PAGEOFF
	mov	w1, #1
	bl	_camlCamlinternalFormat__make_printf_120_401_code
Ltmp20:
	mov	x1, x0
	ldr	x8, [sp, #16]                   ; 8-byte Folded Reload
	and	x0, x8, #0x7fffffff
	ldr	x8, [x1]
	blr	x8
Ltmp21:
	mov	w0, #1
	ldr	x30, [sp, #40]                  ; 8-byte Folded Reload
	add	sp, sp, #48
	ret
LBB8_10:                                ; %L408
	mov	w0, #34
	bl	_caml_llvm_call_realloc_stack
Ltmp22:
	b	LBB8_9
LBB8_11:                                ; %L382
Lloh40:
	adrp	x8, _camlHash_lookup_string_equal__block35@PAGE
Lloh41:
	add	x8, x8, _camlHash_lookup_string_equal__block35@PAGEOFF
	mov	x0, x8
	mov	sp, x26
	ldp	x26, x16, [sp], #16
	br	x16
	.loh AdrpLdrGot	Lloh20, Lloh21
	.loh AdrpLdrGot	Lloh22, Lloh23
	.loh AdrpLdrGot	Lloh24, Lloh25
	.loh AdrpLdrGot	Lloh28, Lloh29
	.loh AdrpAdd	Lloh26, Lloh27
	.loh AdrpLdrGot	Lloh30, Lloh31
	.loh AdrpLdrGot	Lloh32, Lloh33
	.loh AdrpAdd	Lloh34, Lloh35
	.loh AdrpAdd	Lloh38, Lloh39
	.loh AdrpLdrGot	Lloh36, Lloh37
	.loh AdrpAdd	Lloh40, Lloh41
	.cfi_endproc
                                        ; -- End function
	.section	__DATA,__data
	.globl	_camlHash_lookup_string_equal__gc_roots ; @"\01_camlHash_lookup_string_equal__gc_roots"
	.p2align	3, 0x0
_camlHash_lookup_string_equal__gc_roots:
	.quad	_camlHash_lookup_string_equal
	.quad	0                               ; 0x0

	.globl	_header.camlHash_lookup_string_equal ; @"\01_header.camlHash_lookup_string_equal"
	.p2align	3, 0x0
_header.camlHash_lookup_string_equal:
	.quad	8960                            ; 0x2300

	.globl	_camlHash_lookup_string_equal   ; @"\01_camlHash_lookup_string_equal"
	.p2align	3, 0x0
_camlHash_lookup_string_equal:
	.quad	_camlHash_lookup_string_equal__black_box_int_9
	.quad	_camlHash_lookup_string_equal__black_box_string_10
	.quad	_camlHash_lookup_string_equal__black_box_11
	.quad	1                               ; 0x1
	.quad	1                               ; 0x1
	.quad	_camlHash_lookup_string_equal__print_result_12
	.quad	_camlHash_lookup_string_equal__find_13
	.quad	_camlHash_lookup_string_equal__run_14

	.globl	_header.camlHash_lookup_string_equal__run_14 ; @"\01_header.camlHash_lookup_string_equal__run_14"
	.p2align	3, 0x0
_header.camlHash_lookup_string_equal__run_14:
	.quad	4087                            ; 0xff7

	.globl	_camlHash_lookup_string_equal__run_14 ; @"\01_camlHash_lookup_string_equal__run_14"
	.p2align	3, 0x0
_camlHash_lookup_string_equal__run_14:
	.quad	_caml_curry2
	.quad	180143985094819847              ; 0x280000000000007
	.quad	_camlHash_lookup_string_equal__run_6_15_code

	.globl	_header.camlHash_lookup_string_equal__fn$5bhash_lookup_string_equal.ml$3a24$2c17$2d$2d70$5d_15 ; @"\01_header.camlHash_lookup_string_equal__fn$5bhash_lookup_string_equal.ml$3a24$2c17$2d$2d70$5d_15"
	.p2align	3, 0x0
_header.camlHash_lookup_string_equal__fn$5bhash_lookup_string_equal.ml$3a24$2c17$2d$2d70$5d_15:
	.quad	3063                            ; 0xbf7

	.globl	_camlHash_lookup_string_equal__fn$5bhash_lookup_string_equal.ml$3a24$2c17$2d$2d70$5d_15 ; @"\01_camlHash_lookup_string_equal__fn$5bhash_lookup_string_equal.ml$3a24$2c17$2d$2d70$5d_15"
	.p2align	3, 0x0
_camlHash_lookup_string_equal__fn$5bhash_lookup_string_equal.ml$3a24$2c17$2d$2d70$5d_15:
	.quad	_camlHash_lookup_string_equal__fn$5bhash_lookup_string_equal.ml$3a24$2c17$2d$2d70$5d_7_16_code
	.quad	108086391056891909              ; 0x180000000000005

	.globl	_header.camlHash_lookup_string_equal__fn$5bhash_lookup_string_equal.ml$3a27$2c37$2d$2d40$5d_16 ; @"\01_header.camlHash_lookup_string_equal__fn$5bhash_lookup_string_equal.ml$3a27$2c37$2d$2d40$5d_16"
	.p2align	3, 0x0
_header.camlHash_lookup_string_equal__fn$5bhash_lookup_string_equal.ml$3a27$2c37$2d$2d40$5d_16:
	.quad	3063                            ; 0xbf7

	.globl	_camlHash_lookup_string_equal__fn$5bhash_lookup_string_equal.ml$3a27$2c37$2d$2d40$5d_16 ; @"\01_camlHash_lookup_string_equal__fn$5bhash_lookup_string_equal.ml$3a27$2c37$2d$2d40$5d_16"
	.p2align	3, 0x0
_camlHash_lookup_string_equal__fn$5bhash_lookup_string_equal.ml$3a27$2c37$2d$2d40$5d_16:
	.quad	_camlHash_lookup_string_equal__fn$5bhash_lookup_string_equal.ml$3a27$2c37$2d$2d40$5d_8_8_code
	.quad	108086391056891909              ; 0x180000000000005

	.globl	_header.camlHash_lookup_string_equal__find_13 ; @"\01_header.camlHash_lookup_string_equal__find_13"
	.p2align	3, 0x0
_header.camlHash_lookup_string_equal__find_13:
	.quad	4087                            ; 0xff7

	.globl	_camlHash_lookup_string_equal__find_13 ; @"\01_camlHash_lookup_string_equal__find_13"
	.p2align	3, 0x0
_camlHash_lookup_string_equal__find_13:
	.quad	_caml_curry2
	.quad	180143985094819847              ; 0x280000000000007
	.quad	_camlHash_lookup_string_equal__find_4_13_code

	.globl	_header.camlHash_lookup_string_equal__print_result_12 ; @"\01_header.camlHash_lookup_string_equal__print_result_12"
	.p2align	3, 0x0
_header.camlHash_lookup_string_equal__print_result_12:
	.quad	3063                            ; 0xbf7

	.globl	_camlHash_lookup_string_equal__print_result_12 ; @"\01_camlHash_lookup_string_equal__print_result_12"
	.p2align	3, 0x0
_camlHash_lookup_string_equal__print_result_12:
	.quad	_camlHash_lookup_string_equal__print_result_3_12_code
	.quad	108086391056891909              ; 0x180000000000005

	.globl	_header.camlHash_lookup_string_equal__black_box_11 ; @"\01_header.camlHash_lookup_string_equal__black_box_11"
	.p2align	3, 0x0
_header.camlHash_lookup_string_equal__black_box_11:
	.quad	3063                            ; 0xbf7

	.globl	_camlHash_lookup_string_equal__black_box_11 ; @"\01_camlHash_lookup_string_equal__black_box_11"
	.p2align	3, 0x0
_camlHash_lookup_string_equal__black_box_11:
	.quad	_camlHash_lookup_string_equal__black_box_2_11_code
	.quad	108086391056891909              ; 0x180000000000005

	.globl	_header.camlHash_lookup_string_equal__black_box_string_10 ; @"\01_header.camlHash_lookup_string_equal__black_box_string_10"
	.p2align	3, 0x0
_header.camlHash_lookup_string_equal__black_box_string_10:
	.quad	3063                            ; 0xbf7

	.globl	_camlHash_lookup_string_equal__black_box_string_10 ; @"\01_camlHash_lookup_string_equal__black_box_string_10"
	.p2align	3, 0x0
_camlHash_lookup_string_equal__black_box_string_10:
	.quad	_camlHash_lookup_string_equal__black_box_string_1_10_code
	.quad	108086391056891909              ; 0x180000000000005

	.globl	_header.camlHash_lookup_string_equal__black_box_int_9 ; @"\01_header.camlHash_lookup_string_equal__black_box_int_9"
	.p2align	3, 0x0
_header.camlHash_lookup_string_equal__black_box_int_9:
	.quad	3063                            ; 0xbf7

	.globl	_camlHash_lookup_string_equal__black_box_int_9 ; @"\01_camlHash_lookup_string_equal__black_box_int_9"
	.p2align	3, 0x0
_camlHash_lookup_string_equal__black_box_int_9:
	.quad	_camlHash_lookup_string_equal__black_box_int_0_9_code
	.quad	108086391056891909              ; 0x180000000000005

	.globl	_header.camlHash_lookup_string_equal__block35 ; @"\01_header.camlHash_lookup_string_equal__block35"
	.p2align	3, 0x0
_header.camlHash_lookup_string_equal__block35:
	.quad	2816                            ; 0xb00

	.globl	_camlHash_lookup_string_equal__block35 ; @"\01_camlHash_lookup_string_equal__block35"
	.p2align	3, 0x0
_camlHash_lookup_string_equal__block35:
	.quad	_caml_exn_Invalid_argument
	.quad	_camlHash_lookup_string_equal__string33

	.globl	_header.camlHash_lookup_string_equal__string33 ; @"\01_header.camlHash_lookup_string_equal__string33"
	.p2align	3, 0x0
_header.camlHash_lookup_string_equal__string33:
	.quad	4092                            ; 0xffc

	.globl	_camlHash_lookup_string_equal__string33 ; @"\01_camlHash_lookup_string_equal__string33"
	.p2align	3, 0x0
_camlHash_lookup_string_equal__string33:
	.ascii	"index out of bounds"
	.space	4
	.byte	4                               ; 0x4

	.globl	_header.camlHash_lookup_string_equal__immstring117 ; @"\01_header.camlHash_lookup_string_equal__immstring117"
	.p2align	3, 0x0
_header.camlHash_lookup_string_equal__immstring117:
	.quad	4092                            ; 0xffc

	.globl	_camlHash_lookup_string_equal__immstring117 ; @"\01_camlHash_lookup_string_equal__immstring117"
	.p2align	3, 0x0
_camlHash_lookup_string_equal__immstring117:
	.ascii	"hash_collision_key_"
	.space	4
	.byte	4                               ; 0x4

	.globl	_header.camlHash_lookup_string_equal__const_block66 ; @"\01_header.camlHash_lookup_string_equal__const_block66"
	.p2align	3, 0x0
_header.camlHash_lookup_string_equal__const_block66:
	.quad	4868                            ; 0x1304

	.globl	_camlHash_lookup_string_equal__const_block66 ; @"\01_camlHash_lookup_string_equal__const_block66"
	.p2align	3, 0x0
_camlHash_lookup_string_equal__const_block66:
	.quad	1                               ; 0x1
	.quad	1                               ; 0x1
	.quad	1                               ; 0x1
	.quad	_camlHash_lookup_string_equal__const_block64

	.globl	_header.camlHash_lookup_string_equal__const_block64 ; @"\01_header.camlHash_lookup_string_equal__const_block64"
	.p2align	3, 0x0
_header.camlHash_lookup_string_equal__const_block64:
	.quad	2828                            ; 0xb0c

	.globl	_camlHash_lookup_string_equal__const_block64 ; @"\01_camlHash_lookup_string_equal__const_block64"
	.p2align	3, 0x0
_camlHash_lookup_string_equal__const_block64:
	.quad	21                              ; 0x15
	.quad	_camlHash_lookup_string_equal__const_block62

	.globl	_header.camlHash_lookup_string_equal__const_block62 ; @"\01_header.camlHash_lookup_string_equal__const_block62"
	.p2align	3, 0x0
_header.camlHash_lookup_string_equal__const_block62:
	.quad	1802                            ; 0x70a

	.globl	_camlHash_lookup_string_equal__const_block62 ; @"\01_camlHash_lookup_string_equal__const_block62"
	.p2align	3, 0x0
_camlHash_lookup_string_equal__const_block62:
	.quad	1                               ; 0x1

	.quad	0
	.globl	_camlHash_lookup_string_equal__data_end
_camlHash_lookup_string_equal__data_end:
	.quad	0
	.p2align	3, 0x0
	.globl	_camlHash_lookup_string_equal__frametable
_camlHash_lookup_string_equal__frametable:
	.quad	23
Ltmp23:
	.long	Ltmp0-Ltmp23
	.short	33
	.short	0
	.p2align	2, 0x0
Ltmp25:
	.long	Ltmp24-Ltmp25
	.p2align	3, 0x0
Ltmp26:
	.long	Ltmp1-Ltmp26
	.short	32
	.short	0
	.p2align	3, 0x0
Ltmp27:
	.long	Ltmp2-Ltmp27
	.short	113
	.short	0
	.p2align	2, 0x0
Ltmp29:
	.long	Ltmp28-Ltmp29
	.p2align	3, 0x0
Ltmp30:
	.long	Ltmp3-Ltmp30
	.short	113
	.short	1
	.short	88
	.p2align	2, 0x0
Ltmp32:
	.long	Ltmp31-Ltmp32
	.p2align	3, 0x0
Ltmp33:
	.long	Ltmp4-Ltmp33
	.short	113
	.short	4
	.short	80
	.short	88
	.short	72
	.short	64
	.p2align	2, 0x0
Ltmp35:
	.long	Ltmp34-Ltmp35
	.p2align	3, 0x0
Ltmp36:
	.long	Ltmp5-Ltmp36
	.short	113
	.short	2
	.short	56
	.short	48
	.p2align	2, 0x0
Ltmp38:
	.long	Ltmp37-Ltmp38
	.p2align	3, 0x0
Ltmp39:
	.long	Ltmp6-Ltmp39
	.short	112
	.short	0
	.p2align	3, 0x0
Ltmp40:
	.long	Ltmp7-Ltmp40
	.short	115
	.short	1
	.short	3
	.byte	1
	.byte	0
	.p2align	2, 0x0
Ltmp42:
	.long	Ltmp41-Ltmp42
	.p2align	3, 0x0
Ltmp43:
	.long	Ltmp8-Ltmp43
	.short	33
	.short	1
	.short	8
	.p2align	2, 0x0
Ltmp45:
	.long	Ltmp44-Ltmp45
	.p2align	3, 0x0
Ltmp46:
	.long	Ltmp9-Ltmp46
	.short	33
	.short	2
	.short	8
	.short	0
	.p2align	2, 0x0
Ltmp48:
	.long	Ltmp47-Ltmp48
	.p2align	3, 0x0
Ltmp49:
	.long	Ltmp10-Ltmp49
	.short	35
	.short	1
	.short	35
	.byte	1
	.byte	1
	.p2align	2, 0x0
Ltmp51:
	.long	Ltmp50-Ltmp51
	.p2align	3, 0x0
Ltmp52:
	.long	Ltmp11-Ltmp52
	.short	49
	.short	0
	.p2align	2, 0x0
Ltmp54:
	.long	Ltmp53-Ltmp54
	.p2align	3, 0x0
Ltmp55:
	.long	Ltmp12-Ltmp55
	.short	49
	.short	0
	.p2align	2, 0x0
Ltmp57:
	.long	Ltmp56-Ltmp57
	.p2align	3, 0x0
Ltmp58:
	.long	Ltmp13-Ltmp58
	.short	49
	.short	1
	.short	24
	.p2align	2, 0x0
Ltmp60:
	.long	Ltmp59-Ltmp60
	.p2align	3, 0x0
Ltmp61:
	.long	Ltmp14-Ltmp61
	.short	49
	.short	0
	.p2align	2, 0x0
Ltmp63:
	.long	Ltmp62-Ltmp63
	.p2align	3, 0x0
Ltmp64:
	.long	Ltmp15-Ltmp64
	.short	49
	.short	0
	.p2align	2, 0x0
Ltmp66:
	.long	Ltmp65-Ltmp66
	.p2align	3, 0x0
Ltmp67:
	.long	Ltmp16-Ltmp67
	.short	49
	.short	1
	.short	24
	.p2align	2, 0x0
Ltmp69:
	.long	Ltmp68-Ltmp69
	.p2align	3, 0x0
Ltmp70:
	.long	Ltmp17-Ltmp70
	.short	49
	.short	0
	.p2align	2, 0x0
Ltmp72:
	.long	Ltmp71-Ltmp72
	.p2align	3, 0x0
Ltmp73:
	.long	Ltmp18-Ltmp73
	.short	49
	.short	0
	.p2align	2, 0x0
Ltmp75:
	.long	Ltmp74-Ltmp75
	.p2align	3, 0x0
Ltmp76:
	.long	Ltmp19-Ltmp76
	.short	49
	.short	0
	.p2align	2, 0x0
Ltmp78:
	.long	Ltmp77-Ltmp78
	.p2align	3, 0x0
Ltmp79:
	.long	Ltmp20-Ltmp79
	.short	49
	.short	0
	.p2align	2, 0x0
Ltmp81:
	.long	Ltmp80-Ltmp81
	.p2align	3, 0x0
Ltmp82:
	.long	Ltmp21-Ltmp82
	.short	49
	.short	0
	.p2align	2, 0x0
Ltmp84:
	.long	Ltmp83-Ltmp84
	.p2align	3, 0x0
Ltmp85:
	.long	Ltmp22-Ltmp85
	.short	48
	.short	0
	.p2align	3, 0x0
	.p2align	2, 0x0
Ltmp24:
Ltmp94:
	.long	(Ltmp86-Ltmp94)+1
	.long	14158328
Ltmp95:
	.long	(Ltmp88-Ltmp95)+1
	.long	17847640
Ltmp96:
	.long	(Ltmp90-Ltmp96)+1
	.long	19940632
Ltmp97:
	.long	(Ltmp92-Ltmp97)+0
	.long	5789176
	.p2align	2, 0x0
Ltmp86:
	.long	Ltmp87-Ltmp86
	.ascii	"Stdlib__Printf.kfprintf"
	.byte	0
Ltmp87:
	.ascii	"printf.ml"
	.byte	0
	.p2align	2, 0x0
Ltmp88:
	.long	Ltmp89-Ltmp88
	.ascii	"Stdlib__Printf.fprintf"
	.byte	0
Ltmp89:
	.ascii	"printf.ml"
	.byte	0
	.p2align	2, 0x0
Ltmp90:
	.long	Ltmp91-Ltmp90
	.ascii	"Stdlib__Printf.printf"
	.byte	0
Ltmp91:
	.ascii	"printf.ml"
	.byte	0
	.p2align	2, 0x0
Ltmp92:
	.long	Ltmp93-Ltmp92
	.ascii	"Hash_lookup_string_equal.print_result"
	.byte	0
Ltmp93:
	.ascii	"hash_lookup_string_equal.ml"
	.byte	0
	.p2align	2, 0x0
Ltmp28:
Ltmp102:
	.long	(Ltmp98-Ltmp102)+1
	.long	40372384
Ltmp103:
	.long	(Ltmp100-Ltmp103)+0
	.long	12587568
	.p2align	2, 0x0
Ltmp98:
	.long	Ltmp99-Ltmp98
	.ascii	"Stdlib__List.init"
	.byte	0
Ltmp99:
	.ascii	"list.ml"
	.byte	0
	.p2align	2, 0x0
Ltmp100:
	.long	Ltmp101-Ltmp100
	.ascii	"Hash_lookup_string_equal.run"
	.byte	0
Ltmp101:
	.ascii	"hash_lookup_string_equal.ml"
	.byte	0
	.p2align	2, 0x0
Ltmp31:
Ltmp106:
	.long	(Ltmp104-Ltmp106)+0
	.long	14183816
	.p2align	2, 0x0
Ltmp104:
	.long	Ltmp105-Ltmp104
	.ascii	"Hash_lookup_string_equal.run"
	.byte	0
Ltmp105:
	.ascii	"hash_lookup_string_equal.ml"
	.byte	0
	.p2align	2, 0x0
Ltmp34:
Ltmp111:
	.long	(Ltmp107-Ltmp111)+1
	.long	111688008
Ltmp112:
	.long	(Ltmp109-Ltmp112)+0
	.long	14169480
	.p2align	2, 0x0
Ltmp107:
	.long	Ltmp108-Ltmp107
	.ascii	"Stdlib__Array.of_list"
	.byte	0
Ltmp108:
	.ascii	"array.ml"
	.byte	0
	.p2align	2, 0x0
Ltmp109:
	.long	Ltmp110-Ltmp109
	.ascii	"Hash_lookup_string_equal.run"
	.byte	0
Ltmp110:
	.ascii	"hash_lookup_string_equal.ml"
	.byte	0
	.p2align	2, 0x0
Ltmp37:
Ltmp115:
	.long	(Ltmp113-Ltmp115)+0
	.long	16274000
	.p2align	2, 0x0
Ltmp113:
	.long	Ltmp114-Ltmp113
	.ascii	"Hash_lookup_string_equal.run"
	.byte	0
Ltmp114:
	.ascii	"hash_lookup_string_equal.ml"
	.byte	0
	.p2align	2, 0x0
Ltmp41:
Ltmp118:
	.long	(Ltmp116-Ltmp118)+0
	.long	13648104
	.p2align	2, 0x0
Ltmp116:
	.long	Ltmp117-Ltmp116
	.ascii	"Hash_lookup_string_equal.run"
	.byte	0
Ltmp117:
	.ascii	"hash_lookup_string_equal.ml"
	.byte	0
	.p2align	2, 0x0
Ltmp44:
Ltmp123:
	.long	(Ltmp119-Ltmp123)+1
	.long	146802840
Ltmp124:
	.long	(Ltmp121-Ltmp124)+0
	.long	12635664
	.p2align	2, 0x0
Ltmp119:
	.long	Ltmp120-Ltmp119
	.ascii	"Stdlib.string_of_int"
	.byte	0
Ltmp120:
	.ascii	"stdlib.ml"
	.byte	0
	.p2align	2, 0x0
Ltmp121:
	.long	Ltmp122-Ltmp121
	.ascii	"Hash_lookup_string_equal.run.(fun)"
	.byte	0
Ltmp122:
	.ascii	"hash_lookup_string_equal.ml"
	.byte	0
	.p2align	2, 0x0
Ltmp47:
Ltmp129:
	.long	(Ltmp125-Ltmp129)+1
	.long	118499584
Ltmp130:
	.long	(Ltmp127-Ltmp130)+0
	.long	12611088
	.p2align	2, 0x0
Ltmp125:
	.long	Ltmp126-Ltmp125
	.ascii	"Stdlib.(^)"
	.byte	0
Ltmp126:
	.ascii	"stdlib.ml"
	.byte	0
	.p2align	2, 0x0
Ltmp127:
	.long	Ltmp128-Ltmp127
	.ascii	"Hash_lookup_string_equal.run.(fun)"
	.byte	0
Ltmp128:
	.ascii	"hash_lookup_string_equal.ml"
	.byte	0
	.p2align	2, 0x0
Ltmp50:
Ltmp133:
	.long	(Ltmp131-Ltmp133)+0
	.long	12611112
	.p2align	2, 0x0
Ltmp131:
	.long	Ltmp132-Ltmp131
	.ascii	"Hash_lookup_string_equal.run.(fun)"
	.byte	0
Ltmp132:
	.ascii	"hash_lookup_string_equal.ml"
	.byte	0
	.p2align	2, 0x0
Ltmp53:
Ltmp136:
	.long	(Ltmp134-Ltmp136)+0
	.long	3164368
	.p2align	2, 0x0
Ltmp134:
	.long	Ltmp135-Ltmp134
	.ascii	"Hash_lookup_string_equal.n"
	.byte	0
Ltmp135:
	.ascii	"hash_lookup_string_equal.ml"
	.byte	0
	.p2align	2, 0x0
Ltmp56:
Ltmp139:
	.long	(Ltmp137-Ltmp139)+0
	.long	3197392
	.p2align	2, 0x0
Ltmp137:
	.long	Ltmp138-Ltmp137
	.ascii	"Hash_lookup_string_equal.n"
	.byte	0
Ltmp138:
	.ascii	"hash_lookup_string_equal.ml"
	.byte	0
	.p2align	2, 0x0
Ltmp59:
Ltmp142:
	.long	(Ltmp140-Ltmp142)+0
	.long	3183088
	.p2align	2, 0x0
Ltmp140:
	.long	Ltmp141-Ltmp140
	.ascii	"Hash_lookup_string_equal.n"
	.byte	0
Ltmp141:
	.ascii	"hash_lookup_string_equal.ml"
	.byte	0
	.p2align	2, 0x0
Ltmp62:
Ltmp145:
	.long	(Ltmp143-Ltmp145)+0
	.long	4737232
	.p2align	2, 0x0
Ltmp143:
	.long	Ltmp144-Ltmp143
	.ascii	"Hash_lookup_string_equal.reps"
	.byte	0
Ltmp144:
	.ascii	"hash_lookup_string_equal.ml"
	.byte	0
	.p2align	2, 0x0
Ltmp65:
Ltmp148:
	.long	(Ltmp146-Ltmp148)+0
	.long	4770256
	.p2align	2, 0x0
Ltmp146:
	.long	Ltmp147-Ltmp146
	.ascii	"Hash_lookup_string_equal.reps"
	.byte	0
Ltmp147:
	.ascii	"hash_lookup_string_equal.ml"
	.byte	0
	.p2align	2, 0x0
Ltmp68:
Ltmp151:
	.long	(Ltmp149-Ltmp151)+0
	.long	4755952
	.p2align	2, 0x0
Ltmp149:
	.long	Ltmp150-Ltmp149
	.ascii	"Hash_lookup_string_equal.reps"
	.byte	0
Ltmp150:
	.ascii	"hash_lookup_string_equal.ml"
	.byte	0
	.p2align	2, 0x0
Ltmp71:
Ltmp154:
	.long	(Ltmp152-Ltmp154)+0
	.long	18920968
	.p2align	2, 0x0
Ltmp152:
	.long	Ltmp153-Ltmp152
	.ascii	"Hash_lookup_string_equal"
	.byte	0
Ltmp153:
	.ascii	"hash_lookup_string_equal.ml"
	.byte	0
	.p2align	2, 0x0
Ltmp74:
Ltmp157:
	.long	(Ltmp155-Ltmp157)+0
	.long	18902368
	.p2align	2, 0x0
Ltmp155:
	.long	Ltmp156-Ltmp155
	.ascii	"Hash_lookup_string_equal"
	.byte	0
Ltmp156:
	.ascii	"hash_lookup_string_equal.ml"
	.byte	0
	.p2align	2, 0x0
Ltmp77:
Ltmp160:
	.long	(Ltmp158-Ltmp160)+0
	.long	18897424
	.p2align	2, 0x0
Ltmp158:
	.long	Ltmp159-Ltmp158
	.ascii	"Hash_lookup_string_equal"
	.byte	0
Ltmp159:
	.ascii	"hash_lookup_string_equal.ml"
	.byte	0
	.p2align	2, 0x0
Ltmp80:
Ltmp171:
	.long	(Ltmp161-Ltmp171)+1
	.long	14158328
Ltmp172:
	.long	(Ltmp163-Ltmp172)+1
	.long	17847640
Ltmp173:
	.long	(Ltmp165-Ltmp173)+1
	.long	19940632
Ltmp174:
	.long	(Ltmp167-Ltmp174)+1
	.long	5789176
Ltmp175:
	.long	(Ltmp169-Ltmp175)+0
	.long	18884112
	.p2align	2, 0x0
Ltmp161:
	.long	Ltmp162-Ltmp161
	.ascii	"Stdlib__Printf.kfprintf"
	.byte	0
Ltmp162:
	.ascii	"printf.ml"
	.byte	0
	.p2align	2, 0x0
Ltmp163:
	.long	Ltmp164-Ltmp163
	.ascii	"Stdlib__Printf.fprintf"
	.byte	0
Ltmp164:
	.ascii	"printf.ml"
	.byte	0
	.p2align	2, 0x0
Ltmp165:
	.long	Ltmp166-Ltmp165
	.ascii	"Stdlib__Printf.printf"
	.byte	0
Ltmp166:
	.ascii	"printf.ml"
	.byte	0
	.p2align	2, 0x0
Ltmp167:
	.long	Ltmp168-Ltmp167
	.ascii	"Hash_lookup_string_equal.print_result"
	.byte	0
Ltmp168:
	.ascii	"hash_lookup_string_equal.ml"
	.byte	0
	.p2align	2, 0x0
Ltmp169:
	.long	Ltmp170-Ltmp169
	.ascii	"Hash_lookup_string_equal"
	.byte	0
Ltmp170:
	.ascii	"hash_lookup_string_equal.ml"
	.byte	0
	.p2align	2, 0x0
Ltmp83:
Ltmp180:
	.long	(Ltmp176-Ltmp180)+1
	.long	5789176
Ltmp181:
	.long	(Ltmp178-Ltmp181)+0
	.long	18884112
	.p2align	2, 0x0
Ltmp176:
	.long	Ltmp177-Ltmp176
	.ascii	"Hash_lookup_string_equal.print_result"
	.byte	0
Ltmp177:
	.ascii	"hash_lookup_string_equal.ml"
	.byte	0
	.p2align	2, 0x0
Ltmp178:
	.long	Ltmp179-Ltmp178
	.ascii	"Hash_lookup_string_equal"
	.byte	0
Ltmp179:
	.ascii	"hash_lookup_string_equal.ml"
	.byte	0

	.section	__TEXT,__text,regular,pure_instructions
	.globl	_camlHash_lookup_string_equal__code_end
_camlHash_lookup_string_equal__code_end:
.subsections_via_symbols
