	.file	""
	.data
	.globl	_camlHash_lookup_string_equal__data_begin
_camlHash_lookup_string_equal__data_begin:
	.text
	.globl	_camlHash_lookup_string_equal__code_begin
_camlHash_lookup_string_equal__code_begin:
	nop
	.align	3
	.data
	.align	3
	.globl	_camlHash_lookup_string_equal__gc_roots
_camlHash_lookup_string_equal__gc_roots:
L_camlHash_lookup_string_equal__gc_roots:
	.8byte	_camlHash_lookup_string_equal
	.8byte	0
	.data
	.align	3
	.8byte	8960
	.globl	_camlHash_lookup_string_equal
_camlHash_lookup_string_equal:
L_camlHash_lookup_string_equal:
	.8byte	_camlHash_lookup_string_equal__black_box_int_9
	.8byte	_camlHash_lookup_string_equal__black_box_string_10
	.8byte	_camlHash_lookup_string_equal__black_box_11
	.8byte	1
	.8byte	1
	.8byte	_camlHash_lookup_string_equal__print_result_12
	.8byte	_camlHash_lookup_string_equal__find_13
	.8byte	_camlHash_lookup_string_equal__run_14
	.data
	.align	3
	.8byte	4087
	.globl	_camlHash_lookup_string_equal__run_14
_camlHash_lookup_string_equal__run_14:
L_camlHash_lookup_string_equal__run_14:
	.8byte	_caml_curry2
	.8byte	0x280000000000007
	.8byte	_camlHash_lookup_string_equal__run_6_15_code
	.data
	.align	3
	.8byte	3063
L_camlHash_lookup_string_equal__fn$5bhash_lookup_string_equal.ml$3a24$2c17$2d$2d70$5d_15:
	.8byte	L_camlHash_lookup_string_equal__fn$5bhash_lookup_string_equal.ml$3a24$2c17$2d$2d70$5d_7_16_code
	.8byte	0x180000000000005
	.data
	.align	3
	.8byte	3063
L_camlHash_lookup_string_equal__fn$5bhash_lookup_string_equal.ml$3a27$2c37$2d$2d40$5d_16:
	.8byte	L_camlHash_lookup_string_equal__fn$5bhash_lookup_string_equal.ml$3a27$2c37$2d$2d40$5d_8_8_code
	.8byte	0x180000000000005
	.data
	.align	3
	.8byte	4087
	.globl	_camlHash_lookup_string_equal__find_13
_camlHash_lookup_string_equal__find_13:
L_camlHash_lookup_string_equal__find_13:
	.8byte	_caml_curry2
	.8byte	0x280000000000007
	.8byte	_camlHash_lookup_string_equal__find_4_13_code
	.data
	.align	3
	.8byte	3063
	.globl	_camlHash_lookup_string_equal__print_result_12
_camlHash_lookup_string_equal__print_result_12:
L_camlHash_lookup_string_equal__print_result_12:
	.8byte	_camlHash_lookup_string_equal__print_result_3_12_code
	.8byte	0x180000000000005
	.data
	.align	3
	.8byte	3063
	.globl	_camlHash_lookup_string_equal__black_box_11
_camlHash_lookup_string_equal__black_box_11:
L_camlHash_lookup_string_equal__black_box_11:
	.8byte	_camlHash_lookup_string_equal__black_box_2_11_code
	.8byte	0x180000000000005
	.data
	.align	3
	.8byte	3063
	.globl	_camlHash_lookup_string_equal__black_box_string_10
_camlHash_lookup_string_equal__black_box_string_10:
L_camlHash_lookup_string_equal__black_box_string_10:
	.8byte	_camlHash_lookup_string_equal__black_box_string_1_10_code
	.8byte	0x180000000000005
	.data
	.align	3
	.8byte	3063
	.globl	_camlHash_lookup_string_equal__black_box_int_9
_camlHash_lookup_string_equal__black_box_int_9:
L_camlHash_lookup_string_equal__black_box_int_9:
	.8byte	_camlHash_lookup_string_equal__black_box_int_0_9_code
	.8byte	0x180000000000005
	.data
	.align	3
	.8byte	2816
L_camlHash_lookup_string_equal__block35:
	.8byte	_caml_exn_Invalid_argument
	.8byte	L_camlHash_lookup_string_equal__string33
	.data
	.align	3
	.8byte	4092
L_camlHash_lookup_string_equal__string33:
	.ascii	"index out of bounds"
	.space	4
	.byte	4
	.data
	.align	3
	.8byte	4092
L_camlHash_lookup_string_equal__immstring117:
	.ascii	"hash_collision_key_"
	.space	4
	.byte	4
	.data
	.align	3
	.8byte	4868
	.globl	_camlHash_lookup_string_equal__const_block66
_camlHash_lookup_string_equal__const_block66:
L_camlHash_lookup_string_equal__const_block66:
	.8byte	1
	.8byte	1
	.8byte	1
	.8byte	_camlHash_lookup_string_equal__const_block64
	.data
	.align	3
	.8byte	2828
	.globl	_camlHash_lookup_string_equal__const_block64
_camlHash_lookup_string_equal__const_block64:
L_camlHash_lookup_string_equal__const_block64:
	.8byte	21
	.8byte	_camlHash_lookup_string_equal__const_block62
	.data
	.align	3
	.8byte	1802
	.globl	_camlHash_lookup_string_equal__const_block62
_camlHash_lookup_string_equal__const_block62:
L_camlHash_lookup_string_equal__const_block62:
	.8byte	1
	.text
	.align	3
	.globl	_camlHash_lookup_string_equal__black_box_int_0_9_code
_camlHash_lookup_string_equal__black_box_int_0_9_code:
L_camlHash_lookup_string_equal__black_box_int_0_9_code:
	.file	1	"hash_lookup_string_equal.ml"
	.loc	1	1	33
	.cfi_startproc
	.loc	1	1	45
	ret
	.cfi_endproc
	.text
	.align	3
	.globl	_camlHash_lookup_string_equal__black_box_string_1_10_code
_camlHash_lookup_string_equal__black_box_string_1_10_code:
L_camlHash_lookup_string_equal__black_box_string_1_10_code:
	.loc	1	2	36
	.cfi_startproc
	.loc	1	2	51
	ret
	.cfi_endproc
	.text
	.align	3
	.globl	_camlHash_lookup_string_equal__black_box_2_11_code
_camlHash_lookup_string_equal__black_box_2_11_code:
L_camlHash_lookup_string_equal__black_box_2_11_code:
	.loc	1	3	29
	.cfi_startproc
	.loc	1	3	33
	ret
	.cfi_endproc
	.text
	.align	3
	.globl	_camlHash_lookup_string_equal__print_result_3_12_code
_camlHash_lookup_string_equal__print_result_3_12_code:
L_camlHash_lookup_string_equal__print_result_3_12_code:
	.loc	1	11	17
	.cfi_startproc
	sub	sp, sp, #16
	.cfi_adjust_cfa_offset 16
	.cfi_offset 30, -8
	str	lr, [sp, #8]
	ldr	x16, [x28, #40]
	add	x16, x16, #376
	subs	xzr, sp, x16
	b.cc	L120
L121:
	str	x0, [sp, #0]
	adrp	x2, _camlHash_lookup_string_equal__const_block66@GOTPAGE
	ldr	x2, [x2, _camlHash_lookup_string_equal__const_block66@GOTPAGEOFF]
	orr	x1, xzr, #1
	adrp	x0, _camlStdlib__Printf__fn$5b$2fworkspace_root$2fprintf.ml$3a27$2c14$2d$2d48$5d_31@GOTPAGE
	ldr	x0, [x0, _camlStdlib__Printf__fn$5b$2fworkspace_root$2fprintf.ml$3a27$2c14$2d$2d48$5d_31@GOTPAGEOFF]
	.file	2	"printf.ml"
	.loc	2	27	2
	bl	_camlCamlinternalFormat__make_printf_120_401_code
L122:
	orr	x1, xzr, x0
	.loc	1	11	44
	ldr	x0, [sp, #0]
	.loc	1	11	44
	and	x0, x0, #2147483647
	.loc	1	11	21
	ldr	x2, [x1, #0]
	.loc	1	11	21
	ldr	lr, [sp, #8]
	add	sp, sp, #16
	.cfi_adjust_cfa_offset -16
	br	x2
	.cfi_adjust_cfa_offset 16
L120:
	movz	x16, #16
	stp	x16, lr, [sp, #-16]!
	bl	_caml_call_realloc_stack
	ldp	x16, lr, [sp], #16
	b	L121
	.cfi_endproc
	.text
	.align	3
	.globl	_camlHash_lookup_string_equal__find_4_13_code
_camlHash_lookup_string_equal__find_4_13_code:
L_camlHash_lookup_string_equal__find_4_13_code:
	.loc	1	14	24
	.cfi_startproc
	sub	sp, sp, #16
	.cfi_adjust_cfa_offset 16
	.cfi_offset 30, -8
	str	lr, [sp, #8]
	orr	x19, xzr, x0
	.loc	1	15	15
	ldr	x20, [x1, #0]
	tbz	x20, #0, L134
L132:
	movn	x0, #0
	ldr	lr, [sp, #8]
	add	sp, sp, #16
	.cfi_adjust_cfa_offset -16
	ret
	.cfi_adjust_cfa_offset 16
L134:
	.loc	1	18	6
	ldr	x21, [x20, #0]
	.loc	1	18	6
	ldr	x1, [x21, #0]
	orr	x0, xzr, x19
	.loc	1	18	27
	add	fp, sp, #0
	.cfi_remember_state
	.cfi_def_cfa_register %29
	ldr	x16, [x28, #104]
	add	sp, x16, #0
	bl	_caml_string_equal
	add	sp, fp, #0
	.cfi_restore_state
	subs	xzr, x0, #1
	b.ne	L142
	.loc	1	18	6
	ldr	x20, [x20, #8]
	tbz	x20, #0, L134
	b	L132
L142:
	.loc	1	18	6
	ldr	x0, [x21, #8]
	ldr	lr, [sp, #8]
	add	sp, sp, #16
	.cfi_adjust_cfa_offset -16
	ret
	.cfi_adjust_cfa_offset 16
	.cfi_endproc
	.text
	.align	3
	.globl	_camlHash_lookup_string_equal__run_6_15_code
_camlHash_lookup_string_equal__run_6_15_code:
L_camlHash_lookup_string_equal__run_6_15_code:
	.loc	1	22	23
	.cfi_startproc
	sub	sp, sp, #80
	.cfi_adjust_cfa_offset 80
	.cfi_offset 30, -8
	str	lr, [sp, #72]
	ldr	x16, [x28, #40]
	add	x16, x16, #440
	subs	xzr, sp, x16
	b.cc	L282
L283:
	orr	x19, xzr, x0
	str	x19, [sp, #0]
	orr	x20, xzr, x1
	str	x20, [sp, #8]
	adrp	x2, L_camlHash_lookup_string_equal__fn$5bhash_lookup_string_equal.ml$3a24$2c17$2d$2d70$5d_15@PAGE
	add	x2, x2, L_camlHash_lookup_string_equal__fn$5bhash_lookup_string_equal.ml$3a24$2c17$2d$2d70$5d_15@PAGEOFF
	orr	x1, xzr, #63
	orr	x0, xzr, #1
	.file	3	"list.ml"
	.loc	3	77	2
	bl	_camlStdlib__List__init_11_109_code
L284:
	orr	x1, xzr, x0
	.loc	1	26	16
	ldr	x16, [x28, #0]
	sub	x27, x27, #16
	subs	xzr, x27, x16
	b.cc	L287
L286:
	add	x21, x27, #8
	orr	x0, xzr, #1024
	.loc	1	26	16
	str	x0, [x21, #-8]
	.loc	1	26	16
	str	x1, [x21, #0]
	str	x21, [sp, #16]
	adrp	x0, L_camlHash_lookup_string_equal__fn$5bhash_lookup_string_equal.ml$3a27$2c37$2d$2d40$5d_16@PAGE
	add	x0, x0, L_camlHash_lookup_string_equal__fn$5bhash_lookup_string_equal.ml$3a27$2c37$2d$2d40$5d_16@PAGEOFF
	.loc	1	27	27
	bl	_camlStdlib__List__map_15_113_code
L288:
	orr	x2, xzr, x0
	ldr	x19, [sp, #0]
	ldr	x20, [sp, #8]
	ldr	x21, [sp, #16]
	tbz	x2, #0, L165
	adrp	x22, _camlStdlib__Array__empty_array50@GOTPAGE
	ldr	x22, [x22, _camlStdlib__Array__empty_array50@GOTPAGEOFF]
	subs	xzr, x20, #3
	b.lt	L265
	b	L218
L165:
	orr	x0, xzr, #1
	orr	x1, xzr, x2
	tbz	x1, #0, L171
L169:
	.file	4	"array.ml"
	.loc	4	212	4
	ldr	x1, [x2, #0]
	.loc	4	212	4
	str	x2, [sp, #24]
	.loc	4	213	14
	adrp	x8, _caml_array_make@GOTPAGE
	ldr	x8, [x8, _caml_array_make@GOTPAGEOFF]
	bl	_caml_c_call
L289:
	.loc	4	213	14
	b	L179
L171:
	.loc	4	208	4
	ldr	x1, [x1, #8]
	.loc	4	208	24
	add	x0, x0, #2
	tbz	x1, #0, L171
	b	L169
L179:
	orr	x22, xzr, x0
	.loc	4	212	4
	ldr	x0, [sp, #24]
	.loc	4	212	4
	ldr	x23, [x0, #8]
	orr	x24, xzr, #3
	ldr	x19, [sp, #0]
	ldr	x20, [sp, #8]
	ldr	x21, [sp, #16]
	tbnz	x23, #0, L216
L189:
	.loc	4	216	10
	ldr	x1, [x23, #0]
	.loc	4	216	20
	ldrb	w0, [x22, #-8]
	subs	xzr, x0, #254
	b.ne	L201
	.loc	4	216	20
	add	x0, x22, x24, lsl #2
	.loc	4	216	20
	ldr	d0, [x1, #0]
	.loc	4	216	20
	str	d0, [x0, #-4]
	b	L207
L201:
	.loc	4	216	20
	add	x0, x22, x24, lsl #2
	.loc	4	216	20
	sub	x0, x0, #4
	.loc	4	216	20
	add	fp, sp, #0
	.cfi_remember_state
	.cfi_def_cfa_register %29
	ldr	x16, [x28, #104]
	add	sp, x16, #0
	bl	_caml_modify
	add	sp, fp, #0
	.cfi_restore_state
L207:
	.loc	4	216	10
	ldr	x23, [x23, #8]
	.loc	4	216	44
	add	x24, x24, #2
	tbz	x23, #0, L189
L216:
	subs	xzr, x20, #3
	b.lt	L265
L218:
	.loc	1	29	2
	str	x22, [sp, #8]
	.loc	1	29	2
	sbfm	x1, x20, #1, #63
	str	x1, [sp, #24]
	orr	x0, xzr, #1
	orr	x2, xzr, #1
L224:
	orr	x3, xzr, #1
	.loc	1	29	2
	add	x3, x3, x2, lsl #1
	subs	xzr, x19, #3
	b.lt	L255
	.loc	1	30	4
	str	x3, [sp, #32]
	.loc	1	30	4
	str	x2, [sp, #64]
	.loc	1	30	4
	sbfm	x1, x19, #1, #63
	str	x1, [sp, #40]
	orr	x2, xzr, #1
L236:
	.loc	1	31	49
	str	x0, [sp, #56]
	.loc	1	31	49
	add	x0, x3, x2, lsl #1
	.loc	1	31	49
	str	x2, [sp, #48]
	.loc	1	31	48
	and	x0, x0, #63
	.loc	1	31	25
	add	x0, x22, x0, lsl #2
	.loc	1	31	25
	ldr	x0, [x0, #-4]
	orr	x1, xzr, x21
	.loc	1	31	20
	bl	_camlHash_lookup_string_equal__find_4_13_code
L290:
	orr	x1, xzr, x0
	.loc	1	31	13
	ldr	x0, [sp, #56]
	.loc	1	31	13
	add	x0, x0, x1
	.loc	1	31	13
	sub	x0, x0, #1
	.loc	1	30	4
	ldr	x2, [sp, #48]
	.loc	1	30	4
	add	x2, x2, #1
	ldr	x19, [sp, #0]
	ldr	x21, [sp, #16]
	ldr	x22, [sp, #8]
	ldr	x1, [sp, #24]
	ldr	x3, [sp, #32]
	ldr	x4, [sp, #40]
	subs	xzr, x2, x4
	b.le	L236
	ldr	x2, [sp, #64]
L255:
	.loc	1	29	2
	add	x2, x2, #1
	subs	xzr, x2, x1
	b.le	L224
	ldr	lr, [sp, #72]
	add	sp, sp, #80
	.cfi_adjust_cfa_offset -80
	ret
	.cfi_adjust_cfa_offset 80
L265:
	orr	x0, xzr, #1
	ldr	lr, [sp, #72]
	add	sp, sp, #80
	.cfi_adjust_cfa_offset -80
	ret
	.cfi_adjust_cfa_offset 80
L287:
	bl	_caml_call_gc
L285:
	b	L286
L282:
	movz	x16, #80
	stp	x16, lr, [sp, #-16]!
	bl	_caml_call_realloc_stack
	ldp	x16, lr, [sp], #16
	b	L283
	.cfi_endproc
	.text
	.align	3
	.globl	_camlHash_lookup_string_equal__fn$5bhash_lookup_string_equal.ml$3a24$2c17$2d$2d70$5d_7_16_code
_camlHash_lookup_string_equal__fn$5bhash_lookup_string_equal.ml$3a24$2c17$2d$2d70$5d_7_16_code:
L_camlHash_lookup_string_equal__fn$5bhash_lookup_string_equal.ml$3a24$2c17$2d$2d70$5d_7_16_code:
	.loc	1	24	17
	.cfi_startproc
	sub	sp, sp, #32
	.cfi_adjust_cfa_offset 32
	.cfi_offset 30, -8
	str	lr, [sp, #24]
	orr	x1, xzr, x0
	adrp	x0, _camlStdlib__immstring191@GOTPAGE
	ldr	x0, [x0, _camlStdlib__immstring191@GOTPAGEOFF]
	str	x1, [sp, #16]
	.file	5	"stdlib.ml"
	.loc	5	280	2
	adrp	x8, _caml_format_int@GOTPAGE
	ldr	x8, [x8, _caml_format_int@GOTPAGEOFF]
	bl	_caml_c_call
L316:
	.loc	5	225	37
	ldr	x1, [x0, #-8]
	.loc	5	225	37
	ubfm	x1, x1, #56, #55
	.loc	5	225	37
	ubfm	x1, x1, #18, #63
	.loc	5	225	37
	ubfm	x1, x1, #61, #60
	.loc	5	225	37
	sub	x1, x1, #1
	.loc	5	225	37
	add	x2, x0, x1
	.loc	5	225	37
	str	x0, [sp, #0]
	.loc	5	225	37
	ldrb	w0, [x2, #0]
	.loc	5	225	37
	sub	x0, x1, x0
	orr	x1, xzr, #1
	.loc	5	225	37
	add	x1, x1, x0, lsl #1
	.loc	5	226	23
	add	x0, x1, #38
	.loc	5	226	23
	str	x1, [sp, #8]
	.loc	5	226	10
	adrp	x8, _caml_create_bytes@GOTPAGE
	ldr	x8, [x8, _caml_create_bytes@GOTPAGEOFF]
	bl	_caml_c_call
L317:
	orr	x19, xzr, x0
	movz	x4, #39, lsl #0
	orr	x3, xzr, #1
	orr	x1, xzr, #1
	adrp	x0, L_camlHash_lookup_string_equal__immstring117@PAGE
	add	x0, x0, L_camlHash_lookup_string_equal__immstring117@PAGEOFF
	orr	x2, xzr, x19
	.loc	5	227	2
	add	fp, sp, #0
	.cfi_remember_state
	.cfi_def_cfa_register %29
	ldr	x16, [x28, #104]
	add	sp, x16, #0
	bl	_caml_blit_string
	add	sp, fp, #0
	.cfi_restore_state
	movz	x3, #39, lsl #0
	orr	x1, xzr, #1
	ldr	x0, [sp, #0]
	orr	x2, xzr, x19
	ldr	x4, [sp, #8]
	.loc	5	228	2
	add	fp, sp, #0
	.cfi_remember_state
	.cfi_def_cfa_register %29
	ldr	x16, [x28, #104]
	add	sp, x16, #0
	bl	_caml_blit_string
	add	sp, fp, #0
	.cfi_restore_state
	.loc	1	24	27
	ldr	x16, [x28, #0]
	sub	x27, x27, #24
	subs	xzr, x27, x16
	b.cc	L320
L319:
	add	x0, x27, #8
	orr	x1, xzr, #2048
	.loc	1	24	27
	str	x1, [x0, #-8]
	.loc	1	24	27
	str	x19, [x0, #0]
	.loc	1	24	27
	ldr	x1, [sp, #16]
	.loc	1	24	27
	str	x1, [x0, #8]
	ldr	lr, [sp, #24]
	add	sp, sp, #32
	.cfi_adjust_cfa_offset -32
	ret
	.cfi_adjust_cfa_offset 32
L320:
	bl	_caml_call_gc
L318:
	b	L319
	.cfi_endproc
	.text
	.align	3
	.globl	_camlHash_lookup_string_equal__fn$5bhash_lookup_string_equal.ml$3a27$2c37$2d$2d40$5d_8_8_code
_camlHash_lookup_string_equal__fn$5bhash_lookup_string_equal.ml$3a27$2c37$2d$2d40$5d_8_8_code:
L_camlHash_lookup_string_equal__fn$5bhash_lookup_string_equal.ml$3a27$2c37$2d$2d40$5d_8_8_code:
	.loc	1	27	37
	.cfi_startproc
	.loc	1	27	37
	ldr	x0, [x0, #0]
	ret
	.cfi_endproc
	.text
	.align	3
	.globl	_camlHash_lookup_string_equal__entry
_camlHash_lookup_string_equal__entry:
L_camlHash_lookup_string_equal__entry:
	.cfi_startproc
	sub	sp, sp, #32
	.cfi_adjust_cfa_offset 32
	.cfi_offset 30, -8
	str	lr, [sp, #24]
	orr	x0, xzr, #1
	.loc	1	6	18
	adrp	x8, _caml_sys_argv@GOTPAGE
	ldr	x8, [x8, _caml_sys_argv@GOTPAGEOFF]
	bl	_caml_c_call
L433:
	.loc	1	6	5
	ldr	x0, [x0, #-8]
	.loc	1	6	5
	ubfm	x0, x0, #56, #55
	.loc	1	6	5
	ubfm	x0, x0, #17, #63
	subs	xzr, x0, #3
	b.le	L357
	orr	x0, xzr, #1
	.loc	1	6	50
	adrp	x8, _caml_sys_argv@GOTPAGE
	ldr	x8, [x8, _caml_sys_argv@GOTPAGEOFF]
	bl	_caml_c_call
L434:
	.loc	1	6	50
	ldr	x1, [x0, #-8]
	.loc	1	6	50
	ubfm	x1, x1, #56, #55
	.loc	1	6	50
	ubfm	x1, x1, #17, #63
	subs	xzr, x1, #3
	b.ls	L354
	.loc	1	6	50
	ldr	x0, [x0, #8]
	.loc	1	6	36
	adrp	x8, _caml_int_of_string@GOTPAGE
	ldr	x8, [x8, _caml_int_of_string@GOTPAGEOFF]
	bl	_caml_c_call
L435:
	orr	x2, xzr, x0
	b	L360
L354:
	adrp	x0, L_camlHash_lookup_string_equal__block35@PAGE
	add	x0, x0, L_camlHash_lookup_string_equal__block35@PAGEOFF
	.loc	1	6	50
	add	sp, x26, #0
	ldp	x26, x16, [sp], #16
	br	x16
L357:
	movz	x0, #3393, lsl #0
	movk	x0, #3, lsl #16
	orr	x2, xzr, x0
L360:
	adrp	x0, _camlHash_lookup_string_equal@GOTPAGE
	ldr	x0, [x0, _camlHash_lookup_string_equal@GOTPAGEOFF]
	add	x0, x0, #24
	orr	x1, xzr, x2
	str	x2, [sp, #0]
	add	fp, sp, #0
	.cfi_remember_state
	.cfi_def_cfa_register %29
	ldr	x16, [x28, #104]
	add	sp, x16, #0
	bl	_caml_initialize
	add	sp, fp, #0
	.cfi_restore_state
	orr	x0, xzr, #1
	.loc	1	9	18
	adrp	x8, _caml_sys_argv@GOTPAGE
	ldr	x8, [x8, _caml_sys_argv@GOTPAGEOFF]
	bl	_caml_c_call
L436:
	.loc	1	9	5
	ldr	x0, [x0, #-8]
	.loc	1	9	5
	ubfm	x0, x0, #56, #55
	.loc	1	9	5
	ubfm	x0, x0, #17, #63
	ldr	x1, [sp, #0]
	subs	xzr, x0, #5
	b.le	L390
	str	x1, [sp, #0]
	orr	x0, xzr, #1
	.loc	1	9	50
	adrp	x8, _caml_sys_argv@GOTPAGE
	ldr	x8, [x8, _caml_sys_argv@GOTPAGEOFF]
	bl	_caml_c_call
L437:
	.loc	1	9	50
	ldr	x1, [x0, #-8]
	.loc	1	9	50
	ubfm	x1, x1, #56, #55
	.loc	1	9	50
	ubfm	x1, x1, #17, #63
	ldr	x2, [sp, #0]
	subs	xzr, x1, #5
	b.ls	L387
	.loc	1	9	50
	str	x2, [sp, #0]
	.loc	1	9	50
	ldr	x0, [x0, #16]
	.loc	1	9	36
	adrp	x8, _caml_int_of_string@GOTPAGE
	ldr	x8, [x8, _caml_int_of_string@GOTPAGEOFF]
	bl	_caml_c_call
L438:
	orr	x19, xzr, x0
	ldr	x0, [sp, #0]
	orr	x2, xzr, x0
	b	L393
L387:
	adrp	x0, L_camlHash_lookup_string_equal__block35@PAGE
	add	x0, x0, L_camlHash_lookup_string_equal__block35@PAGEOFF
	.loc	1	9	50
	add	sp, x26, #0
	ldp	x26, x16, [sp], #16
	br	x16
L390:
	movz	x0, #21, lsl #0
	orr	x19, xzr, x0
	orr	x2, xzr, x1
L393:
	str	x2, [sp, #0]
	adrp	x0, _camlHash_lookup_string_equal@GOTPAGE
	ldr	x0, [x0, _camlHash_lookup_string_equal@GOTPAGEOFF]
	add	x0, x0, #32
	orr	x1, xzr, x19
	add	fp, sp, #0
	.cfi_remember_state
	.cfi_def_cfa_register %29
	ldr	x16, [x28, #104]
	add	sp, x16, #0
	bl	_caml_initialize
	add	sp, fp, #0
	.cfi_restore_state
	ldr	x16, [x28, #40]
	add	x16, x16, #392
	subs	xzr, sp, x16
	b.cc	L439
L440:
	orr	x0, xzr, x19
	.loc	1	36	45
	bl	_camlHash_lookup_string_equal__black_box_int_0_9_code
L441:
	str	x0, [sp, #8]
	ldr	x0, [sp, #0]
	.loc	1	36	27
	bl	_camlHash_lookup_string_equal__black_box_int_0_9_code
L442:
	ldr	x1, [sp, #8]
	.loc	1	36	22
	bl	_camlHash_lookup_string_equal__run_6_15_code
L443:
	str	x0, [sp, #0]
	adrp	x2, _camlHash_lookup_string_equal__const_block66@GOTPAGE
	ldr	x2, [x2, _camlHash_lookup_string_equal__const_block66@GOTPAGEOFF]
	orr	x1, xzr, #1
	adrp	x0, _camlStdlib__Printf__fn$5b$2fworkspace_root$2fprintf.ml$3a27$2c14$2d$2d48$5d_31@GOTPAGE
	ldr	x0, [x0, _camlStdlib__Printf__fn$5b$2fworkspace_root$2fprintf.ml$3a27$2c14$2d$2d48$5d_31@GOTPAGEOFF]
	.loc	2	27	2
	bl	_camlCamlinternalFormat__make_printf_120_401_code
L444:
	orr	x1, xzr, x0
	.loc	1	11	44
	ldr	x0, [sp, #0]
	.loc	1	11	44
	and	x0, x0, #2147483647
	.loc	1	11	21
	ldr	x2, [x1, #0]
	.loc	1	11	21
	blr	x2
L445:
	orr	x0, xzr, #1
	ldr	lr, [sp, #24]
	add	sp, sp, #32
	.cfi_adjust_cfa_offset -32
	ret
	.cfi_adjust_cfa_offset 32
L439:
	movz	x16, #32
	stp	x16, lr, [sp, #-16]!
	bl	_caml_call_realloc_stack
	ldp	x16, lr, [sp], #16
	b	L440
	.cfi_endproc
	.data
	.align	3
	.text
	.globl	_camlHash_lookup_string_equal__code_end
_camlHash_lookup_string_equal__code_end:
	.data
	.8byte	0
	.globl	_camlHash_lookup_string_equal__data_end
_camlHash_lookup_string_equal__data_end:
	.8byte	0
	.align	3
	.globl	_camlHash_lookup_string_equal__frametable
_camlHash_lookup_string_equal__frametable:
	.8byte	20
	.4byte	(L445 - .) + 0
	.2byte	33
	.2byte	0
	.align	2
	.4byte	(L446 - .) + 0
	.align	3
	.4byte	(L444 - .) + 0
	.2byte	33
	.2byte	0
	.align	2
	.4byte	(L447 - .) + 0
	.align	3
	.4byte	(L443 - .) + 0
	.2byte	33
	.2byte	0
	.align	2
	.4byte	(L448 - .) + 0
	.align	3
	.4byte	(L442 - .) + 0
	.2byte	33
	.2byte	0
	.align	2
	.4byte	(L449 - .) + 0
	.align	3
	.4byte	(L441 - .) + 0
	.2byte	33
	.2byte	0
	.align	2
	.4byte	(L450 - .) + 0
	.align	3
	.4byte	(L438 - .) + 0
	.2byte	33
	.2byte	0
	.align	2
	.4byte	(L451 - .) + 0
	.align	3
	.4byte	(L437 - .) + 0
	.2byte	33
	.2byte	0
	.align	2
	.4byte	(L452 - .) + 0
	.align	3
	.4byte	(L436 - .) + 0
	.2byte	33
	.2byte	0
	.align	2
	.4byte	(L453 - .) + 0
	.align	3
	.4byte	(L435 - .) + 0
	.2byte	33
	.2byte	0
	.align	2
	.4byte	(L454 - .) + 0
	.align	3
	.4byte	(L434 - .) + 0
	.2byte	33
	.2byte	0
	.align	2
	.4byte	(L455 - .) + 0
	.align	3
	.4byte	(L433 - .) + 0
	.2byte	33
	.2byte	0
	.align	2
	.4byte	(L456 - .) + 0
	.align	3
	.4byte	(L318 - .) + 0
	.2byte	34
	.2byte	1
	.2byte	33
	.byte	1
	.byte	1
	.align	3
	.4byte	(L317 - .) + 0
	.2byte	33
	.2byte	1
	.2byte	0
	.align	2
	.4byte	(L457 - .) + 0
	.align	3
	.4byte	(L316 - .) + 0
	.2byte	33
	.2byte	0
	.align	2
	.4byte	(L458 - .) + 0
	.align	3
	.4byte	(L290 - .) + 0
	.2byte	81
	.2byte	2
	.2byte	8
	.2byte	16
	.align	2
	.4byte	(L459 - .) + 0
	.align	3
	.4byte	(L289 - .) + 0
	.2byte	81
	.2byte	2
	.2byte	16
	.2byte	24
	.align	2
	.4byte	(L460 - .) + 0
	.align	3
	.4byte	(L288 - .) + 0
	.2byte	81
	.2byte	1
	.2byte	16
	.align	2
	.4byte	(L461 - .) + 0
	.align	3
	.4byte	(L285 - .) + 0
	.2byte	82
	.2byte	1
	.2byte	3
	.byte	1
	.byte	0
	.align	3
	.4byte	(L284 - .) + 0
	.2byte	81
	.2byte	0
	.align	2
	.4byte	(L462 - .) + 0
	.align	3
	.4byte	(L122 - .) + 0
	.2byte	17
	.2byte	0
	.align	2
	.4byte	(L463 - .) + 0
	.align	3
	.align	2
L452:
	.4byte	(L465 - .) + 0
	.4byte	4770256
	.align	2
L446:
	.4byte	(L466 - .) + 1
	.4byte	5789176
	.4byte	(L467 - .) + 0
	.4byte	18884112
	.align	2
L462:
	.4byte	(L469 - .) + 1
	.4byte	40372384
	.4byte	(L470 - .) + 0
	.4byte	12587568
	.align	2
L459:
	.4byte	(L470 - .) + 0
	.4byte	16274000
	.align	2
L449:
	.4byte	(L467 - .) + 0
	.4byte	18902368
	.align	2
L457:
	.4byte	(L472 - .) + 1
	.4byte	118499584
	.4byte	(L473 - .) + 0
	.4byte	12611088
	.align	2
L456:
	.4byte	(L474 - .) + 0
	.4byte	3164368
	.align	2
L455:
	.4byte	(L474 - .) + 0
	.4byte	3197392
	.align	2
L461:
	.4byte	(L470 - .) + 0
	.4byte	14183816
	.align	2
L460:
	.4byte	(L476 - .) + 1
	.4byte	111688008
	.4byte	(L470 - .) + 0
	.4byte	14169480
	.align	2
L448:
	.4byte	(L467 - .) + 0
	.4byte	18897424
	.align	2
L458:
	.4byte	(L477 - .) + 1
	.4byte	146802840
	.4byte	(L473 - .) + 0
	.4byte	12635664
	.align	2
L454:
	.4byte	(L474 - .) + 0
	.4byte	3183088
	.align	2
L453:
	.4byte	(L465 - .) + 0
	.4byte	4737232
	.align	2
L463:
	.4byte	(L479 - .) + 1
	.4byte	14158328
	.4byte	(L480 - .) + 1
	.4byte	17847640
	.4byte	(L481 - .) + 1
	.4byte	19940632
	.4byte	(L466 - .) + 0
	.4byte	5789176
	.align	2
L450:
	.4byte	(L467 - .) + 0
	.4byte	18920968
	.align	2
L451:
	.4byte	(L465 - .) + 0
	.4byte	4755952
	.align	2
L447:
	.4byte	(L479 - .) + 1
	.4byte	14158328
	.4byte	(L480 - .) + 1
	.4byte	17847640
	.4byte	(L481 - .) + 1
	.4byte	19940632
	.4byte	(L466 - .) + 1
	.4byte	5789176
	.4byte	(L467 - .) + 0
	.4byte	18884112
L471:
	.ascii	"stdlib.ml\0"
L464:
	.ascii	"hash_lookup_string_equal.ml\0"
L468:
	.ascii	"list.ml\0"
L478:
	.ascii	"printf.ml\0"
L475:
	.ascii	"array.ml\0"
	.align	2
L474:
	.4byte	(L464 - .) + 0
	.ascii	"Hash_lookup_string_equal.n\0"
	.align	2
L467:
	.4byte	(L464 - .) + 0
	.ascii	"Hash_lookup_string_equal\0"
	.align	2
L465:
	.4byte	(L464 - .) + 0
	.ascii	"Hash_lookup_string_equal.reps\0"
	.align	2
L473:
	.4byte	(L464 - .) + 0
	.ascii	"Hash_lookup_string_equal.run.(fun)\0"
	.align	2
L476:
	.4byte	(L475 - .) + 0
	.ascii	"Stdlib__Array.of_list\0"
	.align	2
L472:
	.4byte	(L471 - .) + 0
	.ascii	"Stdlib.(^)\0"
	.align	2
L481:
	.4byte	(L478 - .) + 0
	.ascii	"Stdlib__Printf.printf\0"
	.align	2
L480:
	.4byte	(L478 - .) + 0
	.ascii	"Stdlib__Printf.fprintf\0"
	.align	2
L469:
	.4byte	(L468 - .) + 0
	.ascii	"Stdlib__List.init\0"
	.align	2
L470:
	.4byte	(L464 - .) + 0
	.ascii	"Hash_lookup_string_equal.run\0"
	.align	2
L479:
	.4byte	(L478 - .) + 0
	.ascii	"Stdlib__Printf.kfprintf\0"
	.align	2
L477:
	.4byte	(L471 - .) + 0
	.ascii	"Stdlib.string_of_int\0"
	.align	2
L466:
	.4byte	(L464 - .) + 0
	.ascii	"Hash_lookup_string_equal.print_result\0"
	.align	3
