_camlString_map_equal_content__find_7_33_code:
L_camlString_map_equal_content__find_7_33_code:
	.loc	1	144	17
	.cfi_startproc
	sub	sp, sp, #16
	.cfi_adjust_cfa_offset 16
	.cfi_offset 30, -8
	str	lr, [sp, #8]
	orr	x19, xzr, x0
	orr	x20, xzr, x1
	tbz	x20, #0, L177
L175:
	adrp	x0, _caml_exn_Not_found@GOTPAGE
	ldr	x0, [x0, _caml_exn_Not_found@GOTPAGEOFF]
	.loc	1	146	10
	add	sp, x26, #0
	ldp	x26, x16, [sp], #16
	br	x16
L177:
	.loc	1	147	13
	ldr	x1, [x20, #8]
	orr	x0, xzr, x19
	.loc	2	14	21
	add	fp, sp, #0
	.cfi_remember_state
	.cfi_def_cfa_register %29
	ldr	x16, [x28, #104]
	add	sp, x16, #0
	bl	_caml_string_compare
	add	sp, fp, #0
	.cfi_restore_state
	subs	xzr, x0, #1
	b.ne	L184
	.loc	1	147	13
	ldr	x0, [x20, #16]
	ldr	lr, [sp, #8]
	add	sp, sp, #16
	.cfi_adjust_cfa_offset -16
	ret
	.cfi_adjust_cfa_offset 16
L184:
	subs	xzr, x0, #1
	b.ge	L189
	.loc	1	147	13
	ldr	x20, [x20, #0]
	tbz	x20, #0, L177
	b	L175
L189:
	.loc	1	147	13
	ldr	x20, [x20, #24]
	tbz	x20, #0, L177
	b	L175
	.cfi_endproc
	.text
	.align	3
	.globl	_camlString_map_equal_content__find_opt_16_34_code
