	.section	__TEXT,__text,regular,pure_instructions
	.build_version macos, 16, 0
	.globl	_camlBoyer__code_begin
_camlBoyer__code_begin:
	.section	__DATA,__data
	.globl	_camlBoyer__data_begin
_camlBoyer__data_begin:
	.section	__TEXT,__text,regular,pure_instructions
	.globl	_camlBoyer__print_term_0_20_code ; -- Begin function _camlBoyer__print_term_0_20_code
	.p2align	2
_camlBoyer__print_term_0_20_code:       ; @"\01_camlBoyer__print_term_0_20_code"
	.cfi_startproc
; %bb.0:                                ; %L1
	sub	sp, sp, #16
	.cfi_def_cfa_offset 16
	str	x30, [sp, #8]                   ; 8-byte Folded Spill
	.cfi_offset w30, -16
	sub	sp, sp, #32
	.cfi_def_cfa_offset 48
	mov	x8, x0
	ldurb	w9, [x0, #-8]
Lloh0:
	adrp	x21, _camlStdlib__print_string_134@GOTPAGE
Lloh1:
	ldr	x21, [x21, _camlStdlib__print_string_134@GOTPAGEOFF]
	ldr	x0, [x21, #16]
	cbz	w9, LBB0_5
; %bb.1:                                ; %L105
	str	x0, [sp, #16]
	str	x8, [sp, #24]
Lloh2:
	adrp	x19, _caml_ml_output@GOTPAGE
Lloh3:
	ldr	x19, [x19, _caml_ml_output@GOTPAGEOFF]
Lloh4:
	adrp	x1, _camlBoyer__immstring15@PAGE
Lloh5:
	add	x1, x1, _camlBoyer__immstring15@PAGEOFF
	mov	w20, #1
	mov	x8, x19
	mov	w2, #1
	mov	w3, #3
	bl	_caml_c_call
Ltmp2:
	ldr	x8, [sp, #24]
	ldr	x8, [x8]
	ldr	x1, [x8]
	ldur	x8, [x1, #-8]
	lsr	x8, x8, #7
	and	x8, x8, #0x1fffffffffff8
	sub	x8, x8, #1
	ldrb	w9, [x1, x8]
	sub	x8, x8, x9
	orr	x3, x20, x8, lsl #1
	ldr	x0, [x21, #16]
	str	x1, [sp, #8]
	str	x0, [sp, #16]
	str	x3, [sp]
	mov	x8, x19
	mov	w2, #1
	bl	_caml_c_call
Ltmp3:
	ldr	x9, [sp, #24]
	ldr	x8, [x28, #40]
	add	x8, x8, #376
	; InlineAsm Start
	mov	x10, sp
	; InlineAsm End
	cmp	x10, x8
	b.lo	LBB0_6
; %bb.2:                                ; %L176
	ldr	x8, [x9, #8]
	tbnz	w8, #0, LBB0_4
LBB0_3:                                 ; %L137
                                        ; =>This Inner Loop Header: Depth=1
	ldr	x0, [x21, #16]
	str	x8, [sp, #24]
	str	x0, [sp, #16]
Lloh6:
	adrp	x8, _caml_ml_output@GOTPAGE
Lloh7:
	ldr	x8, [x8, _caml_ml_output@GOTPAGEOFF]
Lloh8:
	adrp	x1, _camlBoyer__immstring33@PAGE
Lloh9:
	add	x1, x1, _camlBoyer__immstring33@PAGEOFF
	mov	w2, #1
	mov	w3, #3
	bl	_caml_c_call
Ltmp4:
	ldr	x8, [sp, #24]
	ldr	x0, [x8]
	bl	_camlBoyer__print_term_0_20_code
Ltmp5:
Lloh10:
	adrp	x21, _camlStdlib__print_string_134@GOTPAGE
Lloh11:
	ldr	x21, [x21, _camlStdlib__print_string_134@GOTPAGEOFF]
	ldr	x8, [sp, #24]
	ldr	x8, [x8, #8]
	tbz	w8, #0, LBB0_3
LBB0_4:                                 ; %L148
	ldr	x0, [x21, #16]
	str	x0, [sp, #24]
Lloh12:
	adrp	x8, _caml_ml_output@GOTPAGE
Lloh13:
	ldr	x8, [x8, _caml_ml_output@GOTPAGEOFF]
Lloh14:
	adrp	x1, _camlBoyer__immstring39@PAGE
Lloh15:
	add	x1, x1, _camlBoyer__immstring39@PAGEOFF
	mov	w2, #1
	mov	w3, #3
	bl	_caml_c_call
Ltmp6:
	ldr	x30, [sp, #40]                  ; 8-byte Folded Reload
	add	sp, sp, #48
	ret
LBB0_5:                                 ; %L154
	str	x0, [sp, #16]
	str	x8, [sp, #24]
Lloh16:
	adrp	x19, _caml_ml_output@GOTPAGE
Lloh17:
	ldr	x19, [x19, _caml_ml_output@GOTPAGEOFF]
Lloh18:
	adrp	x1, _camlBoyer__immstring44@PAGE
Lloh19:
	add	x1, x1, _camlBoyer__immstring44@PAGEOFF
	mov	w20, #1
	mov	x8, x19
	mov	w2, #1
	mov	w3, #3
	bl	_caml_c_call
Ltmp7:
	ldr	x8, [sp, #24]
	ldr	x1, [x8]
	str	x1, [sp, #24]
Lloh20:
	adrp	x8, _caml_format_int@GOTPAGE
Lloh21:
	ldr	x8, [x8, _caml_format_int@GOTPAGEOFF]
Lloh22:
	adrp	x0, _camlStdlib__immstring191@GOTPAGE
Lloh23:
	ldr	x0, [x0, _camlStdlib__immstring191@GOTPAGEOFF]
	bl	_caml_c_call
Ltmp8:
	mov	x1, x0
	ldur	x8, [x0, #-8]
	lsr	x8, x8, #7
	and	x8, x8, #0x1fffffffffff8
	sub	x8, x8, #1
	ldrb	w9, [x0, x8]
Lloh24:
	adrp	x10, _camlStdlib__print_int_136@GOTPAGE
Lloh25:
	ldr	x10, [x10, _camlStdlib__print_int_136@GOTPAGEOFF]
	sub	x8, x8, x9
Lloh26:
	ldr	x0, [x10, #16]
	str	x0, [sp, #24]
	orr	x3, x20, x8, lsl #1
	str	x1, [sp, #16]
	str	x3, [sp, #8]
	mov	x8, x19
	mov	w2, #1
	bl	_caml_c_call
Ltmp9:
	ldr	x30, [sp, #40]                  ; 8-byte Folded Reload
	add	sp, sp, #48
	ret
LBB0_6:                                 ; %L175
	mov	w0, #34
	bl	_caml_llvm_call_realloc_stack
Ltmp10:
	ldr	x8, [x9, #8]
	tbz	w8, #0, LBB0_3
	b	LBB0_4
	.loh AdrpLdrGot	Lloh0, Lloh1
	.loh AdrpAdd	Lloh4, Lloh5
	.loh AdrpLdrGot	Lloh2, Lloh3
	.loh AdrpLdrGot	Lloh10, Lloh11
	.loh AdrpAdd	Lloh8, Lloh9
	.loh AdrpLdrGot	Lloh6, Lloh7
	.loh AdrpAdd	Lloh14, Lloh15
	.loh AdrpLdrGot	Lloh12, Lloh13
	.loh AdrpLdrGotLdr	Lloh24, Lloh25, Lloh26
	.loh AdrpLdrGot	Lloh22, Lloh23
	.loh AdrpLdrGot	Lloh20, Lloh21
	.loh AdrpAdd	Lloh18, Lloh19
	.loh AdrpLdrGot	Lloh16, Lloh17
	.cfi_endproc
                                        ; -- End function
	.globl	_camlBoyer__get_2_22_code       ; -- Begin function _camlBoyer__get_2_22_code
	.p2align	2
_camlBoyer__get_2_22_code:              ; @"\01_camlBoyer__get_2_22_code"
	.cfi_startproc
; %bb.0:                                ; %L1
	sub	sp, sp, #16
	.cfi_def_cfa_offset 16
	str	x30, [sp, #8]                   ; 8-byte Folded Spill
	.cfi_offset w30, -16
	mov	x19, x0
	adrp	x21, _camlBoyer__get_21@PAGE+16
	ldr	x8, [x21, _camlBoyer__get_21@PAGEOFF+16]
	ldr	x22, [x8]
	tbnz	w22, #0, LBB1_4
LBB1_1:                                 ; %L198
                                        ; =>This Inner Loop Header: Depth=1
	ldr	x20, [x22]
	ldr	x0, [x20]
	cmp	x0, x19
	b.eq	LBB1_6
; %bb.2:                                ; %L201
                                        ;   in Loop: Header=BB1_1 Depth=1
	mov	x1, x19
	mov	x29, sp
	.cfi_remember_state
	.cfi_def_cfa_register w29
	ldr	x16, [x28, #104]
	mov	sp, x16
	bl	_caml_string_equal
	mov	sp, x29
	.cfi_restore_state
	cmp	x0, #1
	b.ne	LBB1_6
; %bb.3:                                ; %L203
                                        ;   in Loop: Header=BB1_1 Depth=1
	ldr	x22, [x22, #8]
	tbz	w22, #0, LBB1_1
LBB1_4:                                 ; %L188
	sub	x27, x27, #48
	ldr	x8, [x28]
	cmp	x8, x27
	b.hi	LBB1_7
LBB1_5:                                 ; %L213
	mov	x20, x27
	str	x19, [x20, #32]!
	mov	w8, #2048
	str	x8, [x27, #24]
	mov	w9, #1
	str	x9, [x27, #40]
	str	x8, [x27]
	mov	x1, x27
	str	x20, [x1, #8]!
	ldr	x8, [x21, _camlBoyer__get_21@PAGEOFF+16]
	ldr	x8, [x8]
	str	x8, [x27, #16]
	ldr	x0, [x21, _camlBoyer__get_21@PAGEOFF+16]
	mov	x29, sp
	.cfi_remember_state
	.cfi_def_cfa_register w29
	ldr	x16, [x28, #104]
	mov	sp, x16
	bl	_caml_modify
	mov	sp, x29
	.cfi_restore_state
LBB1_6:                                 ; %common.ret
	mov	x0, x20
	ldr	x30, [sp, #8]                   ; 8-byte Folded Reload
	add	sp, sp, #16
	ret
LBB1_7:                                 ; %L212
	bl	_caml_call_gc
Ltmp11:
	b	LBB1_5
	.cfi_endproc
                                        ; -- End function
	.globl	_camlBoyer__add_lemma_4_24_code ; -- Begin function _camlBoyer__add_lemma_4_24_code
	.p2align	2
_camlBoyer__add_lemma_4_24_code:        ; @"\01_camlBoyer__add_lemma_4_24_code"
	.cfi_startproc
; %bb.0:                                ; %L1
	sub	sp, sp, #16
	.cfi_def_cfa_offset 16
	str	x30, [sp, #8]                   ; 8-byte Folded Spill
	.cfi_offset w30, -16
	ldurb	w8, [x0, #-8]
	cbz	w8, LBB2_8
; %bb.1:                                ; %L223
	ldr	x8, [x0, #8]
	tbnz	w8, #0, LBB2_8
; %bb.2:                                ; %L229
	ldr	x9, [x8]
	ldurb	w10, [x9, #-8]
	cbz	w10, LBB2_8
; %bb.3:                                ; %L234
	ldr	x10, [x8, #8]
	tbnz	w10, #0, LBB2_8
; %bb.4:                                ; %L240
	ldrb	w8, [x10, #8]
	tbz	w8, #0, LBB2_8
; %bb.5:                                ; %L244
	ldr	x0, [x9]
	sub	x27, x27, #48
	ldr	x8, [x28]
	cmp	x8, x27
	b.hi	LBB2_7
LBB2_6:                                 ; %L266
	mov	w8, #2048
	str	x8, [x27, #24]
	mov	x11, x27
	str	x9, [x11, #32]!
	ldr	x9, [x10]
	str	x9, [x27, #40]
	str	x8, [x27]
	mov	x1, x27
	str	x11, [x1, #8]!
	ldr	x8, [x0, #8]!
	str	x8, [x27, #16]
	mov	x29, sp
	.cfi_remember_state
	.cfi_def_cfa_register w29
	ldr	x16, [x28, #104]
	mov	sp, x16
	bl	_caml_modify
	mov	sp, x29
	.cfi_restore_state
	mov	w0, #1
	ldr	x30, [sp, #8]                   ; 8-byte Folded Reload
	add	sp, sp, #16
	ret
LBB2_7:                                 ; %L265
	bl	_caml_call_gc
Ltmp12:
	b	LBB2_6
LBB2_8:                                 ; %L238
Lloh27:
	adrp	x8, _camlBoyer__Pmakeblock113@PAGE
Lloh28:
	add	x8, x8, _camlBoyer__Pmakeblock113@PAGEOFF
	mov	x0, x8
	mov	sp, x26
	ldp	x26, x16, [sp], #16
	br	x16
	.loh AdrpAdd	Lloh27, Lloh28
	.cfi_endproc
                                        ; -- End function
	.globl	_camlBoyer__get_binding_5_25_code ; -- Begin function _camlBoyer__get_binding_5_25_code
	.p2align	2
_camlBoyer__get_binding_5_25_code:      ; @"\01_camlBoyer__get_binding_5_25_code"
	.cfi_startproc
; %bb.0:                                ; %L1
	tbnz	w1, #0, LBB3_3
LBB3_1:                                 ; %L277
                                        ; =>This Inner Loop Header: Depth=1
	ldr	x8, [x1]
	ldr	x9, [x8]
	cmp	x9, x0
	b.eq	LBB3_4
; %bb.2:                                ; %L285
                                        ;   in Loop: Header=BB3_1 Depth=1
	ldr	x1, [x1, #8]
	tbz	w1, #0, LBB3_1
LBB3_3:                                 ; %L275
Lloh29:
	adrp	x8, _camlBoyer__Pmakeblock3333@PAGE
Lloh30:
	add	x8, x8, _camlBoyer__Pmakeblock3333@PAGEOFF
	mov	x0, x8
	mov	sp, x26
	ldp	x26, x16, [sp], #16
	br	x16
LBB3_4:                                 ; %L281
	ldr	x0, [x8, #8]
	ret
	.loh AdrpAdd	Lloh29, Lloh30
	.cfi_endproc
                                        ; -- End function
	.globl	_camlBoyer__apply_subst_7_27_code ; -- Begin function _camlBoyer__apply_subst_7_27_code
	.p2align	2
_camlBoyer__apply_subst_7_27_code:      ; @"\01_camlBoyer__apply_subst_7_27_code"
	.cfi_startproc
; %bb.0:                                ; %L1
	sub	sp, sp, #16
	.cfi_def_cfa_offset 16
	str	x30, [sp, #8]                   ; 8-byte Folded Spill
	.cfi_offset w30, -16
	mov	x9, x1
	sub	x27, x27, #40
	ldr	x8, [x28]
	cmp	x8, x27
	b.hi	LBB4_2
LBB4_1:                                 ; %L299
	mov	w8, #4343
Lloh31:
	adrp	x10, _camlBoyer__as_rec_8_28_code@PAGE
Lloh32:
	add	x10, x10, _camlBoyer__as_rec_8_28_code@PAGEOFF
	str	x8, [x27]
	mov	x1, x27
	str	x10, [x1, #8]!
	mov	x8, #5
	movk	x8, #384, lsl #48
	str	x8, [x27, #16]
	stp	x9, x0, [x27, #24]
	mov	x0, x9
	ldr	x30, [sp, #8]                   ; 8-byte Folded Reload
	add	sp, sp, #16
	b	_camlBoyer__as_rec_8_28_code
LBB4_2:                                 ; %L298
	bl	_caml_call_gc
Ltmp13:
	b	LBB4_1
	.loh AdrpAdd	Lloh31, Lloh32
	.cfi_endproc
                                        ; -- End function
	.globl	_camlBoyer__as_rec_8_28_code    ; -- Begin function _camlBoyer__as_rec_8_28_code
	.p2align	2
_camlBoyer__as_rec_8_28_code:           ; @"\01_camlBoyer__as_rec_8_28_code"
	.cfi_startproc
; %bb.0:                                ; %L1
	sub	sp, sp, #16
	.cfi_def_cfa_offset 16
	str	x30, [sp, #8]                   ; 8-byte Folded Spill
	.cfi_offset w30, -16
	sub	sp, sp, #16
	.cfi_def_cfa_offset 32
	mov	x9, x0
	ldurb	w8, [x0, #-8]
	cbz	w8, LBB5_4
; %bb.1:                                ; %L305
	ldr	x8, [x28, #40]
	add	x8, x8, #376
	; InlineAsm Start
	mov	x10, sp
	; InlineAsm End
	cmp	x10, x8
	b.lo	LBB5_10
LBB5_2:                                 ; %L357
	ldr	x8, [x9, #8]
	str	x9, [sp, #8]
	mov	x0, x1
	mov	x1, x8
	bl	_camlStdlib__List__map_15_113_code
Ltmp14:
	ldr	x9, [sp, #8]
	sub	x27, x27, #24
	ldr	x8, [x28]
	cmp	x8, x27
	b.hi	LBB5_11
LBB5_3:                                 ; %L359
	mov	w8, #2049
	str	x8, [x27]
	ldr	x9, [x9]
	mov	x8, x27
	stp	x9, x0, [x8, #8]!
	mov	x0, x8
	ldr	x30, [sp, #24]                  ; 8-byte Folded Reload
	add	sp, sp, #32
	ret
LBB5_4:                                 ; %L312
	ldr	x8, [x1, #24]
	tbnz	w8, #0, LBB5_8
; %bb.5:                                ; %L331.preheader
	ldr	x9, [x9]
LBB5_6:                                 ; %L331
                                        ; =>This Inner Loop Header: Depth=1
	ldr	x10, [x8]
	ldr	x11, [x10]
	cmp	x9, x11
	b.eq	LBB5_9
; %bb.7:                                ; %L339
                                        ;   in Loop: Header=BB5_6 Depth=1
	ldr	x8, [x8, #8]
	tbz	w8, #0, LBB5_6
LBB5_8:                                 ; %L349
	ldr	x8, [x1, #16]
	mov	x0, x8
	ldr	x30, [sp, #24]                  ; 8-byte Folded Reload
	add	sp, sp, #32
	ret
LBB5_9:                                 ; %L335
	ldr	x8, [x10, #8]
	mov	x0, x8
	ldr	x30, [sp, #24]                  ; 8-byte Folded Reload
	add	sp, sp, #32
	ret
LBB5_10:                                ; %L356
	mov	w0, #34
	bl	_caml_llvm_call_realloc_stack
Ltmp15:
	b	LBB5_2
LBB5_11:                                ; %L358
	bl	_caml_call_gc
Ltmp16:
	b	LBB5_3
	.cfi_endproc
                                        ; -- End function
	.globl	_camlBoyer__as_rec_8_34_code    ; -- Begin function _camlBoyer__as_rec_8_34_code
	.p2align	2
_camlBoyer__as_rec_8_34_code:           ; @"\01_camlBoyer__as_rec_8_34_code"
	.cfi_startproc
; %bb.0:                                ; %L1
	sub	sp, sp, #16
	.cfi_def_cfa_offset 16
	str	x30, [sp, #8]                   ; 8-byte Folded Spill
	.cfi_offset w30, -16
	sub	sp, sp, #16
	.cfi_def_cfa_offset 32
	mov	x9, x0
	ldurb	w8, [x0, #-8]
	cbz	w8, LBB6_4
; %bb.1:                                ; %L366
	ldr	x8, [x28, #40]
	add	x8, x8, #376
	; InlineAsm Start
	mov	x10, sp
	; InlineAsm End
	cmp	x10, x8
	b.lo	LBB6_10
LBB6_2:                                 ; %L418
	ldr	x8, [x9, #8]
	str	x9, [sp, #8]
	mov	x0, x1
	mov	x1, x8
	bl	_camlStdlib__List__map_15_113_code
Ltmp17:
	ldr	x9, [sp, #8]
	sub	x27, x27, #24
	ldr	x8, [x28]
	cmp	x8, x27
	b.hi	LBB6_11
LBB6_3:                                 ; %L420
	mov	w8, #2049
	str	x8, [x27]
	ldr	x9, [x9]
	mov	x8, x27
	stp	x9, x0, [x8, #8]!
	mov	x0, x8
	ldr	x30, [sp, #24]                  ; 8-byte Folded Reload
	add	sp, sp, #32
	ret
LBB6_4:                                 ; %L373
	ldr	x8, [x1, #24]
	tbnz	w8, #0, LBB6_8
; %bb.5:                                ; %L392.preheader
	ldr	x9, [x9]
LBB6_6:                                 ; %L392
                                        ; =>This Inner Loop Header: Depth=1
	ldr	x10, [x8]
	ldr	x11, [x10]
	cmp	x9, x11
	b.eq	LBB6_9
; %bb.7:                                ; %L400
                                        ;   in Loop: Header=BB6_6 Depth=1
	ldr	x8, [x8, #8]
	tbz	w8, #0, LBB6_6
LBB6_8:                                 ; %L410
	ldr	x8, [x1, #16]
	mov	x0, x8
	ldr	x30, [sp, #24]                  ; 8-byte Folded Reload
	add	sp, sp, #32
	ret
LBB6_9:                                 ; %L396
	ldr	x8, [x10, #8]
	mov	x0, x8
	ldr	x30, [sp, #24]                  ; 8-byte Folded Reload
	add	sp, sp, #32
	ret
LBB6_10:                                ; %L417
	mov	w0, #34
	bl	_caml_llvm_call_realloc_stack
Ltmp18:
	b	LBB6_2
LBB6_11:                                ; %L419
	bl	_caml_call_gc
Ltmp19:
	b	LBB6_3
	.cfi_endproc
                                        ; -- End function
	.globl	_camlBoyer__as_rec_8_41_code    ; -- Begin function _camlBoyer__as_rec_8_41_code
	.p2align	2
_camlBoyer__as_rec_8_41_code:           ; @"\01_camlBoyer__as_rec_8_41_code"
	.cfi_startproc
; %bb.0:                                ; %L1
	sub	sp, sp, #16
	.cfi_def_cfa_offset 16
	str	x30, [sp, #8]                   ; 8-byte Folded Spill
	.cfi_offset w30, -16
	sub	sp, sp, #16
	.cfi_def_cfa_offset 32
	mov	x9, x0
	ldurb	w8, [x0, #-8]
	cbz	w8, LBB7_4
; %bb.1:                                ; %L427
	ldr	x8, [x28, #40]
	add	x8, x8, #376
	; InlineAsm Start
	mov	x10, sp
	; InlineAsm End
	cmp	x10, x8
	b.lo	LBB7_10
LBB7_2:                                 ; %L477
	ldr	x1, [x9, #8]
	str	x9, [sp, #8]
Lloh33:
	adrp	x0, _camlBoyer__as_rec_36@PAGE
Lloh34:
	add	x0, x0, _camlBoyer__as_rec_36@PAGEOFF
	bl	_camlStdlib__List__map_15_113_code
Ltmp20:
	ldr	x9, [sp, #8]
	sub	x27, x27, #24
	ldr	x8, [x28]
	cmp	x8, x27
	b.hi	LBB7_11
LBB7_3:                                 ; %L479
	mov	w8, #2049
	str	x8, [x27]
	ldr	x9, [x9]
	mov	x8, x27
	stp	x9, x0, [x8, #8]!
	mov	x0, x8
	ldr	x30, [sp, #24]                  ; 8-byte Folded Reload
	add	sp, sp, #32
	ret
LBB7_4:                                 ; %L434
Lloh35:
	adrp	x8, _camlBoyer__subst7620@PAGE
Lloh36:
	add	x8, x8, _camlBoyer__subst7620@PAGEOFF
	tbnz	w8, #0, LBB7_8
; %bb.5:                                ; %L451.preheader
	ldr	x8, [x9]
Lloh37:
	adrp	x9, _camlBoyer__subst7620@PAGE
Lloh38:
	add	x9, x9, _camlBoyer__subst7620@PAGEOFF
LBB7_6:                                 ; %L451
                                        ; =>This Inner Loop Header: Depth=1
	ldr	x10, [x9]
	ldr	x11, [x10]
	cmp	x8, x11
	b.eq	LBB7_9
; %bb.7:                                ; %L459
                                        ;   in Loop: Header=BB7_6 Depth=1
	ldr	x9, [x9, #8]
	tbz	w9, #0, LBB7_6
LBB7_8:                                 ; %L469
Lloh39:
	adrp	x8, _camlBoyer__as_rec_36@PAGE+16
Lloh40:
	ldr	x8, [x8, _camlBoyer__as_rec_36@PAGEOFF+16]
	mov	x0, x8
	ldr	x30, [sp, #24]                  ; 8-byte Folded Reload
	add	sp, sp, #32
	ret
LBB7_9:                                 ; %L455
	ldr	x8, [x10, #8]
	mov	x0, x8
	ldr	x30, [sp, #24]                  ; 8-byte Folded Reload
	add	sp, sp, #32
	ret
LBB7_10:                                ; %L476
	mov	w0, #34
	bl	_caml_llvm_call_realloc_stack
Ltmp21:
	b	LBB7_2
LBB7_11:                                ; %L478
	bl	_caml_call_gc
Ltmp22:
	b	LBB7_3
	.loh AdrpAdd	Lloh33, Lloh34
	.loh AdrpAdd	Lloh35, Lloh36
	.loh AdrpAdd	Lloh37, Lloh38
	.loh AdrpLdr	Lloh39, Lloh40
	.cfi_endproc
                                        ; -- End function
	.globl	_camlBoyer__unify_9_29_code     ; -- Begin function _camlBoyer__unify_9_29_code
	.p2align	2
_camlBoyer__unify_9_29_code:            ; @"\01_camlBoyer__unify_9_29_code"
	.cfi_startproc
; %bb.0:                                ; %L1
	mov	w2, #1
	b	_camlBoyer__unify1_10_30_code
	.cfi_endproc
                                        ; -- End function
	.globl	_camlBoyer__unify1_10_30_code   ; -- Begin function _camlBoyer__unify1_10_30_code
	.p2align	2
_camlBoyer__unify1_10_30_code:          ; @"\01_camlBoyer__unify1_10_30_code"
Lfunc_begin0:
	.cfi_startproc
	.cfi_personality 155, _caml_llvm_eh_personality
	.cfi_lsda 16, Lexception0
; %bb.0:                                ; %L1
	sub	sp, sp, #16
	.cfi_def_cfa_offset 16
	str	x30, [sp, #8]                   ; 8-byte Folded Spill
	.cfi_offset w30, -16
	sub	sp, sp, #48
	.cfi_def_cfa_offset 64
	mov	x9, x0
	mov	w8, #1
	str	x8, [sp, #40]
	str	x8, [sp, #32]
	str	x8, [sp, #24]
	ldurb	w8, [x1, #-8]
	cbz	w8, LBB9_4
; %bb.1:                                ; %L490
	ldurb	w8, [x9, #-8]
	cbz	w8, LBB9_12
; %bb.2:                                ; %L494
	ldr	x8, [x1]
	ldr	x10, [x9]
	cmp	x10, x8
	b.ne	LBB9_12
; %bb.3:                                ; %L498
	ldr	x1, [x1, #8]
	ldr	x0, [x9, #8]
	ldr	x30, [sp, #56]                  ; 8-byte Folded Reload
	add	sp, sp, #64
	b	_camlBoyer__unify1_lst_11_31_code
LBB9_4:                                 ; %L511
	ldr	x8, [x1]
	ldr	x13, [x28, #64]
	adr	x16, LBB9_14
	sub	sp, sp, #16
	str	x26, [sp]
	str	x16, [sp, #8]
	mov	x26, sp
	str	x13, [sp, #16]                  ; 8-byte Folded Spill
	tbnz	w2, #0, LBB9_8
; %bb.5:
	mov	x10, x2
LBB9_6:                                 ; %L533
                                        ; =>This Inner Loop Header: Depth=1
	ldr	x11, [x10]
	ldr	x12, [x11]
	cmp	x8, x12
	b.eq	LBB9_9
; %bb.7:                                ; %L541
                                        ;   in Loop: Header=BB9_6 Depth=1
	ldr	x10, [x10, #8]
	tbz	w10, #0, LBB9_6
LBB9_8:                                 ; %L531
	str	x8, [sp, #56]
	str	x9, [sp, #48]
Lloh41:
	adrp	x8, _camlBoyer__Pmakeblock3333@PAGE
Lloh42:
	add	x8, x8, _camlBoyer__Pmakeblock3333@PAGEOFF
	str	x2, [sp, #40]
	mov	x0, x8
	mov	sp, x26
	ldp	x26, x16, [sp], #16
	br	x16
LBB9_9:                                 ; %L537
	ldr	x0, [x11, #8]
	str	x8, [sp, #56]
	str	x9, [sp, #48]
	str	x2, [sp, #40]
	str	x0, [sp, #32]
	str	x9, [sp, #24]
Lloh43:
	adrp	x8, _caml_equal@GOTPAGE
Lloh44:
	ldr	x8, [x8, _caml_equal@GOTPAGEOFF]
	mov	x1, x9
	bl	_caml_c_call
Ltmp23:
; %bb.10:                               ; %L576
	mov	x8, x0
	ldr	x9, [sp, #56]
	ldr	x10, [sp, #48]
	ldr	x0, [sp, #40]
	cmp	x8, #1
	b.eq	LBB9_13
; %bb.11:                               ; %L553
	ldr	x26, [sp], #16
	ldr	x30, [sp, #56]                  ; 8-byte Folded Reload
	add	sp, sp, #64
	ret
LBB9_12:                                ; %L508
Lloh45:
	adrp	x8, _camlBoyer__Unify3423@PAGE
Lloh46:
	add	x8, x8, _camlBoyer__Unify3423@PAGEOFF
	mov	x0, x8
	mov	sp, x26
	ldp	x26, x16, [sp], #16
	br	x16
LBB9_13:                                ; %L551
	str	x9, [sp, #56]
	str	x10, [sp, #48]
Lloh47:
	adrp	x8, _camlBoyer__Unify3423@PAGE
Lloh48:
	add	x8, x8, _camlBoyer__Unify3423@PAGEOFF
	str	x0, [sp, #40]
	mov	x0, x8
	mov	sp, x26
	ldp	x26, x16, [sp], #16
	br	x16
Ltmp24:                                 ; Block address taken
LBB9_14:                                ; %L573
                                        ; Label of block must be emitted
                                        ; implicit-def: $q0
                                        ; implicit-def: $q1
                                        ; implicit-def: $q2
                                        ; implicit-def: $q3
                                        ; implicit-def: $q4
                                        ; implicit-def: $q5
                                        ; implicit-def: $q6
                                        ; implicit-def: $q7
                                        ; implicit-def: $q8
                                        ; implicit-def: $q9
                                        ; implicit-def: $q10
                                        ; implicit-def: $q11
                                        ; implicit-def: $q12
                                        ; implicit-def: $q13
                                        ; implicit-def: $q14
                                        ; implicit-def: $q15
                                        ; implicit-def: $q16
                                        ; implicit-def: $q17
                                        ; implicit-def: $q18
                                        ; implicit-def: $q19
                                        ; implicit-def: $q20
                                        ; implicit-def: $q21
                                        ; implicit-def: $q22
                                        ; implicit-def: $q23
                                        ; implicit-def: $q24
                                        ; implicit-def: $q25
                                        ; implicit-def: $q26
                                        ; implicit-def: $q27
                                        ; implicit-def: $q28
                                        ; implicit-def: $q29
                                        ; implicit-def: $q30
                                        ; implicit-def: $q31
                                        ; implicit-def: $x1
                                        ; implicit-def: $x2
                                        ; implicit-def: $x3
                                        ; implicit-def: $x4
                                        ; implicit-def: $x5
                                        ; implicit-def: $x6
                                        ; implicit-def: $x7
                                        ; implicit-def: $x8
                                        ; implicit-def: $x9
                                        ; implicit-def: $x10
                                        ; implicit-def: $x11
                                        ; implicit-def: $x12
                                        ; implicit-def: $x13
                                        ; implicit-def: $x14
                                        ; implicit-def: $x19
                                        ; implicit-def: $x20
                                        ; implicit-def: $x21
                                        ; implicit-def: $x22
                                        ; implicit-def: $x23
                                        ; implicit-def: $x24
                                        ; implicit-def: $x25
Ltmp0:
	ldr	x11, [sp, #40]
	ldr	x10, [sp, #32]
	ldr	x9, [sp, #24]
	ldr	x8, [sp]                        ; 8-byte Folded Reload
	str	x8, [x28, #64]
	ldr	x8, [x0]
Lloh49:
	adrp	x12, _caml_exn_Failure@GOTPAGE
Lloh50:
	ldr	x12, [x12, _caml_exn_Failure@GOTPAGEOFF]
	cmp	x8, x12
	b.ne	LBB9_18
; %bb.15:                               ; %L562
	sub	x27, x27, #48
	ldr	x8, [x28]
	cmp	x8, x27
	b.hi	LBB9_17
LBB9_16:                                ; %L581
	mov	x8, x27
	str	x11, [x8, #32]!
	mov	x0, x27
	str	x8, [x0, #8]!
	mov	w8, #2048
	str	x8, [x27, #24]
	str	x10, [x27, #40]
	str	x8, [x27]
	str	x9, [x27, #16]
	ldr	x30, [sp, #56]                  ; 8-byte Folded Reload
	add	sp, sp, #64
	ret
LBB9_17:                                ; %L580
	bl	_caml_call_gc
Ltmp25:
	b	LBB9_16
LBB9_18:                                ; %L566
	mov	sp, x26
	ldp	x26, x16, [sp], #16
	br	x16
	.loh AdrpAdd	Lloh41, Lloh42
	.loh AdrpLdrGot	Lloh43, Lloh44
	.loh AdrpAdd	Lloh45, Lloh46
	.loh AdrpAdd	Lloh47, Lloh48
	.loh AdrpLdrGot	Lloh49, Lloh50
Lfunc_end0:
	.cfi_endproc
	.section	__TEXT,__gcc_except_tab
	.p2align	2, 0x0
GCC_except_table9:
Lexception0:
	.byte	255                             ; @LPStart Encoding = omit
	.byte	255                             ; @TType Encoding = omit
	.byte	1                               ; Call site Encoding = uleb128
	.uleb128 Lcst_end0-Lcst_begin0
Lcst_begin0:
	.uleb128 Lfunc_begin0-Lfunc_begin0      ; >> Call Site 1 <<
	.uleb128 Lfunc_end0-Lfunc_begin0        ;   Call between Lfunc_begin0 and Lfunc_end0
	.byte	0                               ;     has no landing pad
	.byte	0                               ;   On action: cleanup
Lcst_end0:
	.p2align	2, 0x0
                                        ; -- End function
	.section	__TEXT,__text,regular,pure_instructions
	.globl	_camlBoyer__unify1_lst_11_31_code ; -- Begin function _camlBoyer__unify1_lst_11_31_code
	.p2align	2
_camlBoyer__unify1_lst_11_31_code:      ; @"\01_camlBoyer__unify1_lst_11_31_code"
	.cfi_startproc
; %bb.0:                                ; %L1
	sub	sp, sp, #16
	.cfi_def_cfa_offset 16
	str	x30, [sp, #8]                   ; 8-byte Folded Spill
	.cfi_offset w30, -16
	sub	sp, sp, #16
	.cfi_def_cfa_offset 32
	mov	x9, x0
	ldr	x8, [x28, #40]
	add	x8, x8, #376
	; InlineAsm Start
	mov	x10, sp
	; InlineAsm End
	cmp	x10, x8
	b.lo	LBB10_6
; %bb.1:                                ; %L609
	tbnz	w9, #0, LBB10_4
LBB10_2:                                ; %L592
                                        ; =>This Inner Loop Header: Depth=1
	tbnz	w1, #0, LBB10_7
; %bb.3:                                ; %L596
                                        ;   in Loop: Header=BB10_2 Depth=1
	ldr	x8, [x1]
	ldr	x0, [x9]
	str	x9, [sp]
	str	x1, [sp, #8]
	mov	x1, x8
	bl	_camlBoyer__unify1_10_30_code
Ltmp26:
	mov	x2, x0
	ldr	x8, [sp]
	ldr	x9, [sp, #8]
	ldr	x1, [x9, #8]
	ldr	x9, [x8, #8]
	tbz	w9, #0, LBB10_2
LBB10_4:                                ; %L585
	tbz	w1, #0, LBB10_7
; %bb.5:                                ; %L587
	mov	x0, x2
	ldr	x30, [sp, #24]                  ; 8-byte Folded Reload
	add	sp, sp, #32
	ret
LBB10_6:                                ; %L608
	mov	w0, #34
	bl	_caml_llvm_call_realloc_stack
Ltmp27:
	tbz	w9, #0, LBB10_2
	b	LBB10_4
LBB10_7:                                ; %L589
Lloh51:
	adrp	x8, _camlBoyer__Unify3423@PAGE
Lloh52:
	add	x8, x8, _camlBoyer__Unify3423@PAGEOFF
	mov	x0, x8
	mov	sp, x26
	ldp	x26, x16, [sp], #16
	br	x16
	.loh AdrpAdd	Lloh51, Lloh52
	.cfi_endproc
                                        ; -- End function
	.globl	_camlBoyer__rewrite_12_32_code  ; -- Begin function _camlBoyer__rewrite_12_32_code
	.p2align	2
_camlBoyer__rewrite_12_32_code:         ; @"\01_camlBoyer__rewrite_12_32_code"
	.cfi_startproc
; %bb.0:                                ; %L1
	sub	sp, sp, #16
	.cfi_def_cfa_offset 16
	str	x30, [sp, #8]                   ; 8-byte Folded Spill
	.cfi_offset w30, -16
	sub	sp, sp, #16
	.cfi_def_cfa_offset 32
	mov	x9, x0
	ldurb	w8, [x0, #-8]
	cbz	w8, LBB11_4
; %bb.1:                                ; %L615
	ldr	x8, [x28, #40]
	add	x8, x8, #376
	; InlineAsm Start
	mov	x10, sp
	; InlineAsm End
	cmp	x10, x8
	b.lo	LBB11_5
LBB11_2:                                ; %L629
	ldp	x8, x1, [x9]
	ldr	x9, [x8, #8]
	str	x9, [sp]
	str	x8, [sp, #8]
Lloh53:
	adrp	x0, _camlBoyer__rewrite_28@PAGE
Lloh54:
	add	x0, x0, _camlBoyer__rewrite_28@PAGEOFF
	bl	_camlStdlib__List__map_15_113_code
Ltmp28:
	ldr	x1, [sp]
	ldr	x9, [sp, #8]
	sub	x27, x27, #24
	ldr	x8, [x28]
	cmp	x8, x27
	b.hi	LBB11_6
LBB11_3:                                ; %L631
	mov	w8, #2049
	str	x8, [x27]
	mov	x8, x27
	str	x9, [x8, #8]!
	str	x0, [x27, #16]
	mov	x0, x8
	ldr	x30, [sp, #24]                  ; 8-byte Folded Reload
	add	sp, sp, #32
	b	_camlBoyer__rewrite_with_lemmas_13_33_code
LBB11_4:                                ; %L625
	mov	x0, x9
	ldr	x30, [sp, #24]                  ; 8-byte Folded Reload
	add	sp, sp, #32
	ret
LBB11_5:                                ; %L628
	mov	w0, #34
	bl	_caml_llvm_call_realloc_stack
Ltmp29:
	b	LBB11_2
LBB11_6:                                ; %L630
	bl	_caml_call_gc
Ltmp30:
	b	LBB11_3
	.loh AdrpAdd	Lloh53, Lloh54
	.cfi_endproc
                                        ; -- End function
	.globl	_camlBoyer__rewrite_with_lemmas_13_33_code ; -- Begin function _camlBoyer__rewrite_with_lemmas_13_33_code
	.p2align	2
_camlBoyer__rewrite_with_lemmas_13_33_code: ; @"\01_camlBoyer__rewrite_with_lemmas_13_33_code"
Lfunc_begin1:
	.cfi_startproc
	.cfi_personality 155, _caml_llvm_eh_personality
	.cfi_lsda 16, Lexception1
; %bb.0:                                ; %L1
	sub	sp, sp, #16
	.cfi_def_cfa_offset 16
	str	x30, [sp, #8]                   ; 8-byte Folded Spill
	.cfi_offset w30, -16
	sub	sp, sp, #64
	.cfi_def_cfa_offset 80
	mov	x9, x0
	mov	w8, #1
	str	x8, [sp, #56]
	str	x8, [sp, #48]
	str	x8, [sp, #40]
	str	x8, [sp, #32]
	ldr	x8, [x28, #40]
	add	x8, x8, #408
	; InlineAsm Start
	mov	x10, sp
	; InlineAsm End
	cmp	x10, x8
	b.lo	LBB12_13
; %bb.1:                                ; %L671
	tbnz	w1, #0, LBB12_12
LBB12_2:
	mov	x0, x9
LBB12_3:                                ; %L637
                                        ; =>This Inner Loop Header: Depth=1
	ldr	x8, [x1]
	ldr	x10, [x28, #64]
	str	x10, [sp, #8]                   ; 8-byte Folded Spill
	adr	x16, LBB12_8
	sub	sp, sp, #16
	str	x26, [sp]
	str	x16, [sp, #8]
	mov	x26, sp
	ldp	x8, x10, [x8]
	str	x1, [sp, #64]
	str	x0, [sp, #56]
	str	x0, [sp, #48]
	str	x9, [sp, #72]
	str	x10, [sp, #40]
	str	x9, [sp, #32]
	mov	x1, x8
	bl	_camlBoyer__unify_9_29_code
Ltmp31:
; %bb.4:                                ; %L674
                                        ;   in Loop: Header=BB12_3 Depth=1
	mov	x9, x0
	ldr	x0, [sp, #40]
	ldr	x11, [sp, #64]
	ldr	x10, [sp, #56]
	ldr	x12, [sp, #32]
	sub	x27, x27, #40
	ldr	x8, [x28]
	cmp	x8, x27
	b.hi	LBB12_7
LBB12_5:                                ; %L676
                                        ;   in Loop: Header=BB12_3 Depth=1
	mov	w8, #4343
	str	x8, [x27]
	mov	x1, x27
Lloh55:
	adrp	x8, _camlBoyer__as_rec_8_34_code@PAGE
Lloh56:
	add	x8, x8, _camlBoyer__as_rec_8_34_code@PAGEOFF
	str	x8, [x1, #8]!
	mov	x8, #5
	movk	x8, #384, lsl #48
	str	x8, [x27, #16]
	stp	x0, x9, [x27, #24]
	str	x11, [sp, #64]
	str	x10, [sp, #56]
	str	x12, [sp, #48]
	str	x12, [sp, #72]
	str	x10, [sp, #40]
	bl	_camlBoyer__as_rec_8_34_code
Ltmp32:
; %bb.6:                                ; %L677
                                        ;   in Loop: Header=BB12_3 Depth=1
	ldr	x8, [sp, #40]
	ldr	x9, [sp, #64]
	ldr	x10, [sp, #56]
	str	x9, [sp, #64]
	str	x8, [sp, #56]
	str	x10, [sp, #48]
	str	x10, [sp, #72]
	bl	_camlBoyer__rewrite_12_32_code
Ltmp33:
	b	LBB12_11
LBB12_7:                                ; %L675
                                        ;   in Loop: Header=BB12_3 Depth=1
	bl	_caml_call_gc
Ltmp34:
	b	LBB12_5
Ltmp35:                                 ; Block address taken
LBB12_8:                                ; %L673
                                        ;   in Loop: Header=BB12_3 Depth=1
                                        ; Label of block must be emitted
                                        ; implicit-def: $q0
                                        ; implicit-def: $q1
                                        ; implicit-def: $q2
                                        ; implicit-def: $q3
                                        ; implicit-def: $q4
                                        ; implicit-def: $q5
                                        ; implicit-def: $q6
                                        ; implicit-def: $q7
                                        ; implicit-def: $q8
                                        ; implicit-def: $q9
                                        ; implicit-def: $q10
                                        ; implicit-def: $q11
                                        ; implicit-def: $q12
                                        ; implicit-def: $q13
                                        ; implicit-def: $q14
                                        ; implicit-def: $q15
                                        ; implicit-def: $q16
                                        ; implicit-def: $q17
                                        ; implicit-def: $q18
                                        ; implicit-def: $q19
                                        ; implicit-def: $q20
                                        ; implicit-def: $q21
                                        ; implicit-def: $q22
                                        ; implicit-def: $q23
                                        ; implicit-def: $q24
                                        ; implicit-def: $q25
                                        ; implicit-def: $q26
                                        ; implicit-def: $q27
                                        ; implicit-def: $q28
                                        ; implicit-def: $q29
                                        ; implicit-def: $q30
                                        ; implicit-def: $q31
                                        ; implicit-def: $x1
                                        ; implicit-def: $x2
                                        ; implicit-def: $x3
                                        ; implicit-def: $x4
                                        ; implicit-def: $x5
                                        ; implicit-def: $x6
                                        ; implicit-def: $x7
                                        ; implicit-def: $x8
                                        ; implicit-def: $x9
                                        ; implicit-def: $x10
                                        ; implicit-def: $x11
                                        ; implicit-def: $x12
                                        ; implicit-def: $x13
                                        ; implicit-def: $x14
                                        ; implicit-def: $x19
                                        ; implicit-def: $x20
                                        ; implicit-def: $x21
                                        ; implicit-def: $x22
                                        ; implicit-def: $x23
                                        ; implicit-def: $x24
                                        ; implicit-def: $x25
Ltmp1:
	ldr	x9, [sp, #56]
	ldr	x8, [sp, #48]
	ldr	x10, [sp, #8]                   ; 8-byte Folded Reload
	str	x10, [x28, #64]
Lloh57:
	adrp	x10, _camlBoyer__Unify3423@PAGE
Lloh58:
	add	x10, x10, _camlBoyer__Unify3423@PAGEOFF
	cmp	x0, x10
	b.ne	LBB12_14
; %bb.9:                                ; %L660
                                        ;   in Loop: Header=BB12_3 Depth=1
	ldr	x1, [x8, #8]
	ldr	x0, [sp, #40]
	tbz	w1, #0, LBB12_3
; %bb.10:                               ; %L635.loopexit
	ldr	x9, [sp, #32]
	b	LBB12_12
LBB12_11:                               ; %L678
	mov	x9, x0
	ldr	x8, [sp, #56]
	ldr	x26, [sp], #16
LBB12_12:                               ; %common.ret
	mov	x0, x9
	ldr	x30, [sp, #72]                  ; 8-byte Folded Reload
	add	sp, sp, #80
	ret
LBB12_13:                               ; %L670
	mov	w0, #38
	bl	_caml_llvm_call_realloc_stack
Ltmp36:
	tbz	w1, #0, LBB12_2
	b	LBB12_12
LBB12_14:                               ; %L665
	mov	sp, x26
	ldp	x26, x16, [sp], #16
	br	x16
	.loh AdrpAdd	Lloh55, Lloh56
	.loh AdrpAdd	Lloh57, Lloh58
Lfunc_end1:
	.cfi_endproc
	.section	__TEXT,__gcc_except_tab
	.p2align	2, 0x0
GCC_except_table12:
Lexception1:
	.byte	255                             ; @LPStart Encoding = omit
	.byte	255                             ; @TType Encoding = omit
	.byte	1                               ; Call site Encoding = uleb128
	.uleb128 Lcst_end1-Lcst_begin1
Lcst_begin1:
	.uleb128 Lfunc_begin1-Lfunc_begin1      ; >> Call Site 1 <<
	.uleb128 Lfunc_end1-Lfunc_begin1        ;   Call between Lfunc_begin1 and Lfunc_end1
	.byte	0                               ;     has no landing pad
	.byte	0                               ;   On action: cleanup
Lcst_end1:
	.p2align	2, 0x0
                                        ; -- End function
	.section	__TEXT,__text,regular,pure_instructions
	.globl	_camlBoyer__cterm_to_term_14_35_code ; -- Begin function _camlBoyer__cterm_to_term_14_35_code
	.p2align	2
_camlBoyer__cterm_to_term_14_35_code:   ; @"\01_camlBoyer__cterm_to_term_14_35_code"
	.cfi_startproc
; %bb.0:                                ; %L1
	sub	sp, sp, #16
	.cfi_def_cfa_offset 16
	str	x30, [sp, #8]                   ; 8-byte Folded Spill
	.cfi_offset w30, -16
	sub	sp, sp, #16
	.cfi_def_cfa_offset 32
	mov	x9, x0
	ldurb	w8, [x0, #-8]
	cbz	w8, LBB13_10
; %bb.1:                                ; %L685
	ldr	x8, [x28, #40]
	add	x8, x8, #376
	; InlineAsm Start
	mov	x10, sp
	; InlineAsm End
	cmp	x10, x8
	b.lo	LBB13_11
LBB13_2:                                ; %L734
	ldr	x1, [x9, #8]
	str	x9, [sp, #8]
Lloh59:
	adrp	x0, _camlBoyer__cterm_to_term_30@PAGE
Lloh60:
	add	x0, x0, _camlBoyer__cterm_to_term_30@PAGEOFF
	bl	_camlStdlib__List__map_15_113_code
Ltmp37:
	mov	x19, x0
	ldr	x8, [sp, #8]
	ldr	x20, [x8]
	adrp	x22, _camlBoyer__get_21@PAGE+16
	ldr	x8, [x22, _camlBoyer__get_21@PAGEOFF+16]
	ldr	x23, [x8]
	tbnz	w23, #0, LBB13_6
LBB13_3:                                ; %L712
                                        ; =>This Inner Loop Header: Depth=1
	ldr	x21, [x23]
	ldr	x0, [x21]
	cmp	x0, x20
	b.eq	LBB13_8
; %bb.4:                                ; %L715
                                        ;   in Loop: Header=BB13_3 Depth=1
	mov	x1, x20
	mov	x29, sp
	.cfi_remember_state
	.cfi_def_cfa_register w29
	ldr	x16, [x28, #104]
	mov	sp, x16
	bl	_caml_string_equal
	mov	sp, x29
	.cfi_restore_state
	cmp	x0, #1
	b.ne	LBB13_8
; %bb.5:                                ; %L717
                                        ;   in Loop: Header=BB13_3 Depth=1
	ldr	x23, [x23, #8]
	tbz	w23, #0, LBB13_3
LBB13_6:                                ; %L702
	sub	x27, x27, #48
	ldr	x8, [x28]
	cmp	x8, x27
	b.hi	LBB13_13
LBB13_7:                                ; %L736
	mov	x21, x27
	str	x20, [x21, #32]!
	mov	w8, #2048
	str	x8, [x27, #24]
	mov	w9, #1
	str	x9, [x27, #40]
	str	x8, [x27]
	mov	x1, x27
	str	x21, [x1, #8]!
	ldr	x8, [x22, _camlBoyer__get_21@PAGEOFF+16]
	ldr	x8, [x8]
	str	x8, [x27, #16]
	ldr	x0, [x22, _camlBoyer__get_21@PAGEOFF+16]
	mov	x29, sp
	.cfi_remember_state
	.cfi_def_cfa_register w29
	ldr	x16, [x28, #104]
	mov	sp, x16
	bl	_caml_modify
	mov	sp, x29
	.cfi_restore_state
LBB13_8:                                ; %L726
	sub	x27, x27, #24
	ldr	x8, [x28]
	cmp	x8, x27
	b.hi	LBB13_12
LBB13_9:                                ; %L742
	mov	x9, x27
	str	x21, [x9, #8]!
	mov	w8, #2049
	str	x8, [x27]
	str	x19, [x27, #16]
LBB13_10:                               ; %common.ret
	mov	x0, x9
	ldr	x30, [sp, #24]                  ; 8-byte Folded Reload
	add	sp, sp, #32
	ret
LBB13_11:                               ; %L733
	mov	w0, #34
	bl	_caml_llvm_call_realloc_stack
Ltmp38:
	b	LBB13_2
LBB13_12:                               ; %L741
	bl	_caml_call_gc
Ltmp39:
	b	LBB13_9
LBB13_13:                               ; %L735
	bl	_caml_call_gc
Ltmp40:
	b	LBB13_7
	.loh AdrpAdd	Lloh59, Lloh60
	.cfi_endproc
                                        ; -- End function
	.globl	_camlBoyer__add_15_36_code      ; -- Begin function _camlBoyer__add_15_36_code
	.p2align	2
_camlBoyer__add_15_36_code:             ; @"\01_camlBoyer__add_15_36_code"
	.cfi_startproc
; %bb.0:                                ; %L1
	sub	sp, sp, #16
	.cfi_def_cfa_offset 16
	str	x30, [sp, #8]                   ; 8-byte Folded Spill
	.cfi_offset w30, -16
	mov	x9, x0
	ldr	x8, [x28, #40]
	add	x8, x8, #376
	; InlineAsm Start
	mov	x10, sp
	; InlineAsm End
	cmp	x10, x8
	b.lo	LBB14_8
; %bb.1:                                ; %L792
	mov	x0, x9
	bl	_camlBoyer__cterm_to_term_14_35_code
Ltmp41:
	ldurb	w8, [x0, #-8]
	cbz	w8, LBB14_9
LBB14_2:                                ; %L749
	ldr	x8, [x0, #8]
	tbnz	w8, #0, LBB14_9
; %bb.3:                                ; %L755
	ldr	x9, [x8]
	ldurb	w10, [x9, #-8]
	cbz	w10, LBB14_9
; %bb.4:                                ; %L760
	ldr	x10, [x8, #8]
	tbnz	w10, #0, LBB14_9
; %bb.5:                                ; %L766
	ldrb	w8, [x10, #8]
	tbz	w8, #0, LBB14_9
; %bb.6:                                ; %L770
	ldr	x0, [x9]
	sub	x27, x27, #48
	ldr	x8, [x28]
	cmp	x8, x27
	b.hi	LBB14_10
LBB14_7:                                ; %L794
	mov	w8, #2048
	str	x8, [x27, #24]
	mov	x11, x27
	str	x9, [x11, #32]!
	ldr	x9, [x10]
	str	x9, [x27, #40]
	str	x8, [x27]
	mov	x1, x27
	str	x11, [x1, #8]!
	ldr	x8, [x0, #8]!
	str	x8, [x27, #16]
	mov	x29, sp
	.cfi_remember_state
	.cfi_def_cfa_register w29
	ldr	x16, [x28, #104]
	mov	sp, x16
	bl	_caml_modify
	mov	sp, x29
	.cfi_restore_state
	mov	w0, #1
	ldr	x30, [sp, #8]                   ; 8-byte Folded Reload
	add	sp, sp, #16
	ret
LBB14_8:                                ; %L791
	mov	w0, #34
	bl	_caml_llvm_call_realloc_stack
Ltmp42:
	mov	x0, x9
	bl	_camlBoyer__cterm_to_term_14_35_code
Ltmp43:
	ldurb	w8, [x0, #-8]
	cbnz	w8, LBB14_2
LBB14_9:                                ; %L764
Lloh61:
	adrp	x8, _camlBoyer__Pmakeblock113@PAGE
Lloh62:
	add	x8, x8, _camlBoyer__Pmakeblock113@PAGEOFF
	mov	x0, x8
	mov	sp, x26
	ldp	x26, x16, [sp], #16
	br	x16
LBB14_10:                               ; %L793
	bl	_caml_call_gc
Ltmp44:
	b	LBB14_7
	.loh AdrpAdd	Lloh61, Lloh62
	.cfi_endproc
                                        ; -- End function
	.globl	_camlBoyer__truep_16_37_code    ; -- Begin function _camlBoyer__truep_16_37_code
	.p2align	2
_camlBoyer__truep_16_37_code:           ; @"\01_camlBoyer__truep_16_37_code"
	.cfi_startproc
; %bb.0:                                ; %L1
	sub	sp, sp, #16
	.cfi_def_cfa_offset 16
	str	x30, [sp, #8]                   ; 8-byte Folded Spill
	.cfi_offset w30, -16
	sub	sp, sp, #32
	.cfi_def_cfa_offset 48
	mov	x21, x1
	mov	x20, x0
	ldurb	w8, [x0, #-8]
	cbz	w8, LBB15_4
; %bb.1:                                ; %L800
	ldr	x8, [x20]
	ldr	x0, [x8]
Lloh63:
	adrp	x8, _camlBoyer__immstring456@PAGE
Lloh64:
	add	x8, x8, _camlBoyer__immstring456@PAGEOFF
	cmp	x0, x8
	b.ne	LBB15_8
; %bb.2:
	mov	w19, #3
LBB15_3:                                ; %common.ret
	mov	x0, x19
	ldr	x30, [sp, #40]                  ; 8-byte Folded Reload
	add	sp, sp, #48
	ret
LBB15_4:                                ; %L833
	tbnz	w21, #0, LBB15_14
; %bb.5:                                ; %L839.preheader
	str	x20, [sp]
Lloh65:
	adrp	x22, _caml_compare@GOTPAGE
Lloh66:
	ldr	x22, [x22, _caml_compare@GOTPAGEOFF]
	mov	w19, #3
LBB15_6:                                ; %L839
                                        ; =>This Inner Loop Header: Depth=1
	ldr	x0, [x21]
	str	x0, [sp, #16]
	str	x21, [sp, #24]
	mov	x8, x22
	mov	x1, x20
	bl	_caml_c_call
Ltmp45:
	cmp	x0, #1
	b.eq	LBB15_3
; %bb.7:                                ; %L845
                                        ;   in Loop: Header=BB15_6 Depth=1
	ldr	x8, [sp, #24]
	ldr	x20, [sp]
	ldr	x21, [x8, #8]
	tbz	w21, #0, LBB15_6
	b	LBB15_14
LBB15_8:                                ; %L802
Lloh67:
	adrp	x1, _camlBoyer__immstring456@PAGE
Lloh68:
	add	x1, x1, _camlBoyer__immstring456@PAGEOFF
	mov	x29, sp
	.cfi_remember_state
	.cfi_def_cfa_register w29
	ldr	x16, [x28, #104]
	mov	sp, x16
	bl	_caml_string_equal
	mov	sp, x29
	.cfi_restore_state
	cmp	x0, #1
	b.eq	LBB15_10
LBB15_9:
	mov	w19, #3
	mov	x0, x19
	ldr	x30, [sp, #40]                  ; 8-byte Folded Reload
	add	sp, sp, #48
	ret
LBB15_10:                               ; %L808
	tbnz	w21, #0, LBB15_14
; %bb.11:                               ; %L814.preheader
	str	x20, [sp, #24]
Lloh69:
	adrp	x22, _caml_compare@GOTPAGE
Lloh70:
	ldr	x22, [x22, _caml_compare@GOTPAGEOFF]
	mov	w19, #1
LBB15_12:                               ; %L814
                                        ; =>This Inner Loop Header: Depth=1
	ldr	x0, [x21]
	str	x0, [sp, #8]
	str	x21, [sp, #16]
	mov	x8, x22
	mov	x1, x20
	bl	_caml_c_call
Ltmp46:
	cmp	x0, #1
	b.eq	LBB15_9
; %bb.13:                               ; %L820
                                        ;   in Loop: Header=BB15_12 Depth=1
	ldr	x8, [sp, #16]
	ldr	x20, [sp, #24]
	ldr	x21, [x8, #8]
	tbz	w21, #0, LBB15_12
	b	LBB15_3
LBB15_14:
	mov	w19, #1
	mov	x0, x19
	ldr	x30, [sp, #40]                  ; 8-byte Folded Reload
	add	sp, sp, #48
	ret
	.loh AdrpAdd	Lloh63, Lloh64
	.loh AdrpLdrGot	Lloh65, Lloh66
	.loh AdrpAdd	Lloh67, Lloh68
	.loh AdrpLdrGot	Lloh69, Lloh70
	.cfi_endproc
                                        ; -- End function
	.globl	_camlBoyer__falsep_17_38_code   ; -- Begin function _camlBoyer__falsep_17_38_code
	.p2align	2
_camlBoyer__falsep_17_38_code:          ; @"\01_camlBoyer__falsep_17_38_code"
	.cfi_startproc
; %bb.0:                                ; %L1
	sub	sp, sp, #16
	.cfi_def_cfa_offset 16
	str	x30, [sp, #8]                   ; 8-byte Folded Spill
	.cfi_offset w30, -16
	sub	sp, sp, #32
	.cfi_def_cfa_offset 48
	mov	x21, x1
	mov	x20, x0
	ldurb	w8, [x0, #-8]
	cbz	w8, LBB16_4
; %bb.1:                                ; %L864
	ldr	x8, [x20]
	ldr	x0, [x8]
Lloh71:
	adrp	x8, _camlBoyer__immstring466@PAGE
Lloh72:
	add	x8, x8, _camlBoyer__immstring466@PAGEOFF
	cmp	x0, x8
	b.ne	LBB16_8
; %bb.2:
	mov	w19, #3
LBB16_3:                                ; %common.ret
	mov	x0, x19
	ldr	x30, [sp, #40]                  ; 8-byte Folded Reload
	add	sp, sp, #48
	ret
LBB16_4:                                ; %L897
	tbnz	w21, #0, LBB16_14
; %bb.5:                                ; %L903.preheader
	str	x20, [sp]
Lloh73:
	adrp	x22, _caml_compare@GOTPAGE
Lloh74:
	ldr	x22, [x22, _caml_compare@GOTPAGEOFF]
	mov	w19, #3
LBB16_6:                                ; %L903
                                        ; =>This Inner Loop Header: Depth=1
	ldr	x0, [x21]
	str	x0, [sp, #16]
	str	x21, [sp, #24]
	mov	x8, x22
	mov	x1, x20
	bl	_caml_c_call
Ltmp47:
	cmp	x0, #1
	b.eq	LBB16_3
; %bb.7:                                ; %L909
                                        ;   in Loop: Header=BB16_6 Depth=1
	ldr	x8, [sp, #24]
	ldr	x20, [sp]
	ldr	x21, [x8, #8]
	tbz	w21, #0, LBB16_6
	b	LBB16_14
LBB16_8:                                ; %L866
Lloh75:
	adrp	x1, _camlBoyer__immstring466@PAGE
Lloh76:
	add	x1, x1, _camlBoyer__immstring466@PAGEOFF
	mov	x29, sp
	.cfi_remember_state
	.cfi_def_cfa_register w29
	ldr	x16, [x28, #104]
	mov	sp, x16
	bl	_caml_string_equal
	mov	sp, x29
	.cfi_restore_state
	cmp	x0, #1
	b.eq	LBB16_10
LBB16_9:
	mov	w19, #3
	mov	x0, x19
	ldr	x30, [sp, #40]                  ; 8-byte Folded Reload
	add	sp, sp, #48
	ret
LBB16_10:                               ; %L872
	tbnz	w21, #0, LBB16_14
; %bb.11:                               ; %L878.preheader
	str	x20, [sp, #24]
Lloh77:
	adrp	x22, _caml_compare@GOTPAGE
Lloh78:
	ldr	x22, [x22, _caml_compare@GOTPAGEOFF]
	mov	w19, #1
LBB16_12:                               ; %L878
                                        ; =>This Inner Loop Header: Depth=1
	ldr	x0, [x21]
	str	x0, [sp, #8]
	str	x21, [sp, #16]
	mov	x8, x22
	mov	x1, x20
	bl	_caml_c_call
Ltmp48:
	cmp	x0, #1
	b.eq	LBB16_9
; %bb.13:                               ; %L884
                                        ;   in Loop: Header=BB16_12 Depth=1
	ldr	x8, [sp, #16]
	ldr	x20, [sp, #24]
	ldr	x21, [x8, #8]
	tbz	w21, #0, LBB16_12
	b	LBB16_3
LBB16_14:
	mov	w19, #1
	mov	x0, x19
	ldr	x30, [sp, #40]                  ; 8-byte Folded Reload
	add	sp, sp, #48
	ret
	.loh AdrpAdd	Lloh71, Lloh72
	.loh AdrpLdrGot	Lloh73, Lloh74
	.loh AdrpAdd	Lloh75, Lloh76
	.loh AdrpLdrGot	Lloh77, Lloh78
	.cfi_endproc
                                        ; -- End function
	.globl	_camlBoyer__tautologyp_18_39_code ; -- Begin function _camlBoyer__tautologyp_18_39_code
	.p2align	2
_camlBoyer__tautologyp_18_39_code:      ; @"\01_camlBoyer__tautologyp_18_39_code"
	.cfi_startproc
; %bb.0:                                ; %L1
	sub	sp, sp, #16
	.cfi_def_cfa_offset 16
	str	x30, [sp, #8]                   ; 8-byte Folded Spill
	.cfi_offset w30, -16
	sub	sp, sp, #48
	.cfi_def_cfa_offset 64
	mov	x9, x0
	ldr	x8, [x28, #40]
	add	x8, x8, #376
	; InlineAsm Start
	mov	x10, sp
	; InlineAsm End
	cmp	x10, x8
	b.lo	LBB17_24
LBB17_1:                                ; %L1013
	str	x2, [sp, #32]
	str	x1, [sp, #40]
	str	x9, [sp, #24]
	mov	x0, x9
	bl	_camlBoyer__truep_16_37_code
Ltmp49:
	cmp	x0, #1
	b.hi	LBB17_21
; %bb.2:
	ldr	x0, [sp, #24]
	ldr	x1, [sp, #32]
	ldr	x9, [sp, #40]
	b	LBB17_5
LBB17_3:                                ;   in Loop: Header=BB17_5 Depth=1
	ldr	x0, [sp, #8]
	ldr	x1, [sp, #24]
LBB17_4:                                ; %L924.backedge
                                        ;   in Loop: Header=BB17_5 Depth=1
	str	x0, [sp, #40]
	bl	_camlBoyer__truep_16_37_code
Ltmp50:
	mov	x8, x0
	ldr	x0, [sp, #40]
	ldr	x9, [sp, #24]
	ldr	x1, [sp, #32]
	cmp	x8, #2
	b.hs	LBB17_21
LBB17_5:                                ; %L930
                                        ; =>This Inner Loop Header: Depth=1
	str	x1, [sp, #32]
	str	x0, [sp, #40]
	str	x9, [sp, #24]
	bl	_camlBoyer__falsep_17_38_code
Ltmp51:
	cmp	x0, #1
	b.hi	LBB17_23
; %bb.6:                                ; %L936
                                        ;   in Loop: Header=BB17_5 Depth=1
	ldr	x8, [sp, #40]
	ldurb	w9, [x8, #-8]
	cbz	w9, LBB17_23
; %bb.7:                                ; %L940
                                        ;   in Loop: Header=BB17_5 Depth=1
	ldr	x20, [x8, #8]
	tbnz	w20, #0, LBB17_25
; %bb.8:                                ; %L946
                                        ;   in Loop: Header=BB17_5 Depth=1
	ldr	x21, [x20, #8]
Lloh79:
	adrp	x1, _camlBoyer__immstring518@PAGE
Lloh80:
	add	x1, x1, _camlBoyer__immstring518@PAGEOFF
	tbnz	w21, #0, LBB17_25
; %bb.9:                                ; %L952
                                        ;   in Loop: Header=BB17_5 Depth=1
	ldr	x22, [x21, #8]
	tbnz	w22, #0, LBB17_25
; %bb.10:                               ; %L958
                                        ;   in Loop: Header=BB17_5 Depth=1
	ldrb	w9, [x22, #8]
	tbz	w9, #0, LBB17_25
; %bb.11:                               ; %L962
                                        ;   in Loop: Header=BB17_5 Depth=1
	ldr	x19, [sp, #24]
	ldr	x8, [x8]
	ldr	x0, [x8]
	cmp	x0, x1
	b.eq	LBB17_13
; %bb.12:                               ; %L964
                                        ;   in Loop: Header=BB17_5 Depth=1
	mov	x29, sp
	.cfi_remember_state
	.cfi_def_cfa_register w29
	ldr	x16, [x28, #104]
	mov	sp, x16
	bl	_caml_string_equal
	mov	sp, x29
	.cfi_restore_state
	cmp	x0, #1
	b.eq	LBB17_22
LBB17_13:                               ; %L969
                                        ;   in Loop: Header=BB17_5 Depth=1
	ldr	x8, [x22]
	ldr	x9, [x21]
	ldr	x0, [x20]
	str	x8, [sp, #16]
	str	x0, [sp, #40]
	str	x9, [sp, #8]
	mov	x1, x19
	bl	_camlBoyer__truep_16_37_code
Ltmp52:
	cmp	x0, #2
	b.hs	LBB17_3
; %bb.14:                               ; %L979
                                        ;   in Loop: Header=BB17_5 Depth=1
	ldr	x1, [sp, #32]
	ldr	x0, [sp, #40]
	bl	_camlBoyer__falsep_17_38_code
Ltmp53:
	mov	x8, x0
	ldr	x0, [sp, #16]
	ldr	x1, [sp, #24]
	cmp	x8, #1
	b.hi	LBB17_4
; %bb.15:                               ; %L986
                                        ;   in Loop: Header=BB17_5 Depth=1
	ldr	x2, [sp, #32]
	ldr	x10, [sp, #40]
	ldr	x9, [sp, #8]
	sub	x27, x27, #24
	ldr	x8, [x28]
	cmp	x8, x27
	b.hi	LBB17_19
LBB17_16:                               ; %L1019
                                        ;   in Loop: Header=BB17_5 Depth=1
	mov	w8, #2048
	str	x8, [x27]
	mov	x8, x27
	str	x10, [x8, #8]!
	str	x1, [x27, #16]
	str	x2, [sp, #32]
	str	x10, [sp, #40]
	str	x1, [sp, #24]
	str	x0, [sp, #16]
	mov	x0, x9
	mov	x1, x8
	bl	_camlBoyer__tautologyp_18_39_code
Ltmp54:
	cmp	x0, #2
	b.lo	LBB17_23
; %bb.17:                               ; %L991
                                        ;   in Loop: Header=BB17_5 Depth=1
	ldr	x0, [sp, #16]
	ldr	x1, [sp, #24]
	ldr	x9, [sp, #32]
	ldr	x10, [sp, #40]
	sub	x27, x27, #24
	ldr	x8, [x28]
	cmp	x8, x27
	b.hi	LBB17_20
LBB17_18:                               ; %L1021
                                        ;   in Loop: Header=BB17_5 Depth=1
	mov	w8, #2048
	str	x8, [x27]
	mov	x8, x27
	str	x10, [x8, #8]!
	str	x9, [x27, #16]
	str	x8, [sp, #32]
	str	x1, [sp, #40]
	str	x0, [sp, #24]
	bl	_camlBoyer__truep_16_37_code
Ltmp55:
	mov	x8, x0
	ldr	x0, [sp, #24]
	ldr	x1, [sp, #32]
	ldr	x9, [sp, #40]
	cmp	x8, #2
	b.lo	LBB17_5
	b	LBB17_21
LBB17_19:                               ; %L1018
                                        ;   in Loop: Header=BB17_5 Depth=1
	bl	_caml_call_gc
Ltmp56:
	b	LBB17_16
LBB17_20:                               ; %L1020
                                        ;   in Loop: Header=BB17_5 Depth=1
	bl	_caml_call_gc
Ltmp57:
	b	LBB17_18
LBB17_21:
	mov	w0, #3
LBB17_22:                               ; %common.ret
	ldr	x30, [sp, #56]                  ; 8-byte Folded Reload
	add	sp, sp, #64
	ret
LBB17_23:
	mov	w0, #1
	ldr	x30, [sp, #56]                  ; 8-byte Folded Reload
	add	sp, sp, #64
	ret
LBB17_24:                               ; %L1012
	mov	w0, #34
	bl	_caml_llvm_call_realloc_stack
Ltmp58:
	b	LBB17_1
LBB17_25:                               ; %L956
Lloh81:
	adrp	x8, _camlBoyer__Pmakeblock2888@PAGE
Lloh82:
	add	x8, x8, _camlBoyer__Pmakeblock2888@PAGEOFF
	mov	x0, x8
	mov	sp, x26
	ldp	x26, x16, [sp], #16
	br	x16
	.loh AdrpAdd	Lloh79, Lloh80
	.loh AdrpAdd	Lloh81, Lloh82
	.cfi_endproc
                                        ; -- End function
	.globl	_camlBoyer__tautp_19_40_code    ; -- Begin function _camlBoyer__tautp_19_40_code
	.p2align	2
_camlBoyer__tautp_19_40_code:           ; @"\01_camlBoyer__tautp_19_40_code"
	.cfi_startproc
; %bb.0:                                ; %L1
	sub	sp, sp, #16
	.cfi_def_cfa_offset 16
	str	x30, [sp, #8]                   ; 8-byte Folded Spill
	.cfi_offset w30, -16
	mov	x9, x0
	ldr	x8, [x28, #40]
	add	x8, x8, #376
	; InlineAsm Start
	mov	x10, sp
	; InlineAsm End
	cmp	x10, x8
	b.lo	LBB18_2
LBB18_1:                                ; %L1028
	mov	x0, x9
	bl	_camlBoyer__rewrite_12_32_code
Ltmp59:
	mov	w1, #1
	mov	w2, #1
	ldr	x30, [sp, #8]                   ; 8-byte Folded Reload
	add	sp, sp, #16
	b	_camlBoyer__tautologyp_18_39_code
LBB18_2:                                ; %L1027
	mov	w0, #34
	bl	_caml_llvm_call_realloc_stack
Ltmp60:
	b	LBB18_1
	.cfi_endproc
                                        ; -- End function
	.globl	_camlBoyer__entry               ; -- Begin function _camlBoyer__entry
	.p2align	2
_camlBoyer__entry:                      ; @"\01_camlBoyer__entry"
	.cfi_startproc
; %bb.0:                                ; %L1
	sub	sp, sp, #16
	.cfi_def_cfa_offset 16
	str	x30, [sp, #8]                   ; 8-byte Folded Spill
	.cfi_offset w30, -16
	sub	sp, sp, #32
	.cfi_def_cfa_offset 48
	sub	x27, x27, #16
	ldr	x8, [x28]
	cmp	x8, x27
	b.hi	LBB19_536
LBB19_1:                                ; %L6193
	mov	w8, #1024
	str	x8, [x27]
	mov	w8, #1
	mov	x19, x27
	str	x8, [x19, #8]!
Lloh83:
	adrp	x0, _camlBoyer@PAGE+8
Lloh84:
	add	x0, x0, _camlBoyer@PAGEOFF+8
	mov	x1, x19
	mov	x29, sp
	.cfi_remember_state
	.cfi_def_cfa_register w29
	ldr	x16, [x28, #104]
	mov	sp, x16
	bl	_caml_initialize
	mov	sp, x29
	.cfi_restore_state
Lloh85:
	adrp	x0, _camlBoyer__get_21@PAGE+16
Lloh86:
	add	x0, x0, _camlBoyer__get_21@PAGEOFF+16
	mov	x1, x19
	mov	x29, sp
	.cfi_remember_state
	.cfi_def_cfa_register w29
	ldr	x16, [x28, #104]
	mov	sp, x16
	bl	_caml_initialize
	mov	sp, x29
	.cfi_restore_state
	mov	w0, #1
	mov	x29, sp
	.cfi_remember_state
	.cfi_def_cfa_register w29
	ldr	x16, [x28, #104]
	mov	sp, x16
	bl	_caml_fresh_oo_id
	mov	sp, x29
	.cfi_restore_state
	mov	x1, x0
Lloh87:
	adrp	x0, _camlBoyer__Unify3423@PAGE+8
Lloh88:
	add	x0, x0, _camlBoyer__Unify3423@PAGEOFF+8
	mov	x29, sp
	.cfi_remember_state
	.cfi_def_cfa_register w29
	ldr	x16, [x28, #104]
	mov	sp, x16
	bl	_caml_initialize
	mov	sp, x29
	.cfi_restore_state
	ldr	x8, [x28, #40]
	add	x8, x8, #376
	; InlineAsm Start
	mov	x9, sp
	; InlineAsm End
	cmp	x9, x8
	b.lo	LBB19_537
; %bb.2:                                ; %L6195
Lloh89:
	adrp	x0, _camlBoyer__const_block371@PAGE
Lloh90:
	add	x0, x0, _camlBoyer__const_block371@PAGEOFF
	bl	_camlBoyer__cterm_to_term_14_35_code
Ltmp61:
	ldurb	w8, [x0, #-8]
	cbz	w8, LBB19_538
LBB19_3:                                ; %L1046
	ldr	x20, [x0, #8]
	tbnz	w20, #0, LBB19_539
; %bb.4:                                ; %L1052
	ldr	x19, [x20]
Lloh91:
	adrp	x0, _camlBoyer__Pmakeblock3807@PAGE
Lloh92:
	add	x0, x0, _camlBoyer__Pmakeblock3807@PAGEOFF
	mov	x1, x19
	mov	x29, sp
	.cfi_remember_state
	.cfi_def_cfa_register w29
	ldr	x16, [x28, #104]
	mov	sp, x16
	bl	_caml_initialize
	mov	sp, x29
	.cfi_restore_state
	ldurb	w8, [x19, #-8]
	cbz	w8, LBB19_538
; %bb.5:                                ; %L1058
	ldr	x21, [x20, #8]
	tbnz	w21, #0, LBB19_539
; %bb.6:                                ; %L1064
	ldrb	w8, [x21, #8]
	tbz	w8, #0, LBB19_538
; %bb.7:                                ; %L1068
	ldr	x19, [x19]
	ldr	x1, [x19, #8]!
Lloh93:
	adrp	x20, _camlBoyer__Pmakeblock3808@PAGE
Lloh94:
	add	x20, x20, _camlBoyer__Pmakeblock3808@PAGEOFF
	add	x0, x20, #8
	mov	x29, sp
	.cfi_remember_state
	.cfi_def_cfa_register w29
	ldr	x16, [x28, #104]
	mov	sp, x16
	bl	_caml_initialize
	mov	sp, x29
	.cfi_restore_state
	ldr	x1, [x21]
Lloh95:
	adrp	x0, _camlBoyer__Pmakeblock3807@PAGE+8
Lloh96:
	add	x0, x0, _camlBoyer__Pmakeblock3807@PAGEOFF+8
	mov	x29, sp
	.cfi_remember_state
	.cfi_def_cfa_register w29
	ldr	x16, [x28, #104]
	mov	sp, x16
	bl	_caml_initialize
	mov	sp, x29
	.cfi_restore_state
	mov	x0, x19
	mov	x1, x20
	mov	x29, sp
	.cfi_remember_state
	.cfi_def_cfa_register w29
	ldr	x16, [x28, #104]
	mov	sp, x16
	bl	_caml_modify
	mov	sp, x29
	.cfi_restore_state
Lloh97:
	adrp	x0, _camlBoyer__const_block404@PAGE
Lloh98:
	add	x0, x0, _camlBoyer__const_block404@PAGEOFF
	bl	_camlBoyer__cterm_to_term_14_35_code
Ltmp62:
	ldurb	w8, [x0, #-8]
	cbz	w8, LBB19_538
; %bb.8:                                ; %L1083
	ldr	x20, [x0, #8]
	tbnz	w20, #0, LBB19_539
; %bb.9:                                ; %L1089
	ldr	x19, [x20]
Lloh99:
	adrp	x0, _camlBoyer__Pmakeblock3840@PAGE
Lloh100:
	add	x0, x0, _camlBoyer__Pmakeblock3840@PAGEOFF
	mov	x1, x19
	mov	x29, sp
	.cfi_remember_state
	.cfi_def_cfa_register w29
	ldr	x16, [x28, #104]
	mov	sp, x16
	bl	_caml_initialize
	mov	sp, x29
	.cfi_restore_state
	ldurb	w8, [x19, #-8]
	cbz	w8, LBB19_538
; %bb.10:                               ; %L1095
	ldr	x21, [x20, #8]
	tbnz	w21, #0, LBB19_539
; %bb.11:                               ; %L1101
	ldrb	w8, [x21, #8]
	tbz	w8, #0, LBB19_538
; %bb.12:                               ; %L1105
	ldr	x19, [x19]
	ldr	x1, [x19, #8]!
Lloh101:
	adrp	x20, _camlBoyer__Pmakeblock3841@PAGE
Lloh102:
	add	x20, x20, _camlBoyer__Pmakeblock3841@PAGEOFF
	add	x0, x20, #8
	mov	x29, sp
	.cfi_remember_state
	.cfi_def_cfa_register w29
	ldr	x16, [x28, #104]
	mov	sp, x16
	bl	_caml_initialize
	mov	sp, x29
	.cfi_restore_state
	ldr	x1, [x21]
Lloh103:
	adrp	x0, _camlBoyer__Pmakeblock3840@PAGE+8
Lloh104:
	add	x0, x0, _camlBoyer__Pmakeblock3840@PAGEOFF+8
	mov	x29, sp
	.cfi_remember_state
	.cfi_def_cfa_register w29
	ldr	x16, [x28, #104]
	mov	sp, x16
	bl	_caml_initialize
	mov	sp, x29
	.cfi_restore_state
	mov	x0, x19
	mov	x1, x20
	mov	x29, sp
	.cfi_remember_state
	.cfi_def_cfa_register w29
	ldr	x16, [x28, #104]
	mov	sp, x16
	bl	_caml_modify
	mov	sp, x29
	.cfi_restore_state
Lloh105:
	adrp	x0, _camlBoyer__const_block421@PAGE
Lloh106:
	add	x0, x0, _camlBoyer__const_block421@PAGEOFF
	bl	_camlBoyer__cterm_to_term_14_35_code
Ltmp63:
	ldurb	w8, [x0, #-8]
	cbz	w8, LBB19_538
; %bb.13:                               ; %L1120
	ldr	x20, [x0, #8]
	tbnz	w20, #0, LBB19_539
; %bb.14:                               ; %L1126
	ldr	x19, [x20]
Lloh107:
	adrp	x0, _camlBoyer__Pmakeblock3873@PAGE
Lloh108:
	add	x0, x0, _camlBoyer__Pmakeblock3873@PAGEOFF
	mov	x1, x19
	mov	x29, sp
	.cfi_remember_state
	.cfi_def_cfa_register w29
	ldr	x16, [x28, #104]
	mov	sp, x16
	bl	_caml_initialize
	mov	sp, x29
	.cfi_restore_state
	ldurb	w8, [x19, #-8]
	cbz	w8, LBB19_538
; %bb.15:                               ; %L1132
	ldr	x21, [x20, #8]
	tbnz	w21, #0, LBB19_539
; %bb.16:                               ; %L1138
	ldrb	w8, [x21, #8]
	tbz	w8, #0, LBB19_538
; %bb.17:                               ; %L1142
	ldr	x19, [x19]
	ldr	x1, [x19, #8]!
Lloh109:
	adrp	x20, _camlBoyer__Pmakeblock3874@PAGE
Lloh110:
	add	x20, x20, _camlBoyer__Pmakeblock3874@PAGEOFF
	add	x0, x20, #8
	mov	x29, sp
	.cfi_remember_state
	.cfi_def_cfa_register w29
	ldr	x16, [x28, #104]
	mov	sp, x16
	bl	_caml_initialize
	mov	sp, x29
	.cfi_restore_state
	ldr	x1, [x21]
Lloh111:
	adrp	x0, _camlBoyer__Pmakeblock3873@PAGE+8
Lloh112:
	add	x0, x0, _camlBoyer__Pmakeblock3873@PAGEOFF+8
	mov	x29, sp
	.cfi_remember_state
	.cfi_def_cfa_register w29
	ldr	x16, [x28, #104]
	mov	sp, x16
	bl	_caml_initialize
	mov	sp, x29
	.cfi_restore_state
	mov	x0, x19
	mov	x1, x20
	mov	x29, sp
	.cfi_remember_state
	.cfi_def_cfa_register w29
	ldr	x16, [x28, #104]
	mov	sp, x16
	bl	_caml_modify
	mov	sp, x29
	.cfi_restore_state
Lloh113:
	adrp	x0, _camlBoyer__const_block436@PAGE
Lloh114:
	add	x0, x0, _camlBoyer__const_block436@PAGEOFF
	bl	_camlBoyer__cterm_to_term_14_35_code
Ltmp64:
	ldurb	w8, [x0, #-8]
	cbz	w8, LBB19_538
; %bb.18:                               ; %L1157
	ldr	x20, [x0, #8]
	tbnz	w20, #0, LBB19_539
; %bb.19:                               ; %L1163
	ldr	x19, [x20]
Lloh115:
	adrp	x0, _camlBoyer__Pmakeblock3906@PAGE
Lloh116:
	add	x0, x0, _camlBoyer__Pmakeblock3906@PAGEOFF
	mov	x1, x19
	mov	x29, sp
	.cfi_remember_state
	.cfi_def_cfa_register w29
	ldr	x16, [x28, #104]
	mov	sp, x16
	bl	_caml_initialize
	mov	sp, x29
	.cfi_restore_state
	ldurb	w8, [x19, #-8]
	cbz	w8, LBB19_538
; %bb.20:                               ; %L1169
	ldr	x21, [x20, #8]
	tbnz	w21, #0, LBB19_539
; %bb.21:                               ; %L1175
	ldrb	w8, [x21, #8]
	tbz	w8, #0, LBB19_538
; %bb.22:                               ; %L1179
	ldr	x19, [x19]
	ldr	x1, [x19, #8]!
Lloh117:
	adrp	x20, _camlBoyer__Pmakeblock3907@PAGE
Lloh118:
	add	x20, x20, _camlBoyer__Pmakeblock3907@PAGEOFF
	add	x0, x20, #8
	mov	x29, sp
	.cfi_remember_state
	.cfi_def_cfa_register w29
	ldr	x16, [x28, #104]
	mov	sp, x16
	bl	_caml_initialize
	mov	sp, x29
	.cfi_restore_state
	ldr	x1, [x21]
Lloh119:
	adrp	x0, _camlBoyer__Pmakeblock3906@PAGE+8
Lloh120:
	add	x0, x0, _camlBoyer__Pmakeblock3906@PAGEOFF+8
	mov	x29, sp
	.cfi_remember_state
	.cfi_def_cfa_register w29
	ldr	x16, [x28, #104]
	mov	sp, x16
	bl	_caml_initialize
	mov	sp, x29
	.cfi_restore_state
	mov	x0, x19
	mov	x1, x20
	mov	x29, sp
	.cfi_remember_state
	.cfi_def_cfa_register w29
	ldr	x16, [x28, #104]
	mov	sp, x16
	bl	_caml_modify
	mov	sp, x29
	.cfi_restore_state
Lloh121:
	adrp	x0, _camlBoyer__const_block447@PAGE
Lloh122:
	add	x0, x0, _camlBoyer__const_block447@PAGEOFF
	bl	_camlBoyer__cterm_to_term_14_35_code
Ltmp65:
	ldurb	w8, [x0, #-8]
	cbz	w8, LBB19_538
; %bb.23:                               ; %L1194
	ldr	x20, [x0, #8]
	tbnz	w20, #0, LBB19_539
; %bb.24:                               ; %L1200
	ldr	x19, [x20]
Lloh123:
	adrp	x0, _camlBoyer__Pmakeblock3939@PAGE
Lloh124:
	add	x0, x0, _camlBoyer__Pmakeblock3939@PAGEOFF
	mov	x1, x19
	mov	x29, sp
	.cfi_remember_state
	.cfi_def_cfa_register w29
	ldr	x16, [x28, #104]
	mov	sp, x16
	bl	_caml_initialize
	mov	sp, x29
	.cfi_restore_state
	ldurb	w8, [x19, #-8]
	cbz	w8, LBB19_538
; %bb.25:                               ; %L1206
	ldr	x21, [x20, #8]
	tbnz	w21, #0, LBB19_539
; %bb.26:                               ; %L1212
	ldrb	w8, [x21, #8]
	tbz	w8, #0, LBB19_538
; %bb.27:                               ; %L1216
	ldr	x19, [x19]
	ldr	x1, [x19, #8]!
Lloh125:
	adrp	x20, _camlBoyer__Pmakeblock3940@PAGE
Lloh126:
	add	x20, x20, _camlBoyer__Pmakeblock3940@PAGEOFF
	add	x0, x20, #8
	mov	x29, sp
	.cfi_remember_state
	.cfi_def_cfa_register w29
	ldr	x16, [x28, #104]
	mov	sp, x16
	bl	_caml_initialize
	mov	sp, x29
	.cfi_restore_state
	ldr	x1, [x21]
Lloh127:
	adrp	x0, _camlBoyer__Pmakeblock3939@PAGE+8
Lloh128:
	add	x0, x0, _camlBoyer__Pmakeblock3939@PAGEOFF+8
	mov	x29, sp
	.cfi_remember_state
	.cfi_def_cfa_register w29
	ldr	x16, [x28, #104]
	mov	sp, x16
	bl	_caml_initialize
	mov	sp, x29
	.cfi_restore_state
	mov	x0, x19
	mov	x1, x20
	mov	x29, sp
	.cfi_remember_state
	.cfi_def_cfa_register w29
	ldr	x16, [x28, #104]
	mov	sp, x16
	bl	_caml_modify
	mov	sp, x29
	.cfi_restore_state
Lloh129:
	adrp	x0, _camlBoyer__const_block486@PAGE
Lloh130:
	add	x0, x0, _camlBoyer__const_block486@PAGEOFF
	bl	_camlBoyer__cterm_to_term_14_35_code
Ltmp66:
	ldurb	w8, [x0, #-8]
	cbz	w8, LBB19_538
; %bb.28:                               ; %L1231
	ldr	x20, [x0, #8]
	tbnz	w20, #0, LBB19_539
; %bb.29:                               ; %L1237
	ldr	x19, [x20]
Lloh131:
	adrp	x0, _camlBoyer__Pmakeblock3972@PAGE
Lloh132:
	add	x0, x0, _camlBoyer__Pmakeblock3972@PAGEOFF
	mov	x1, x19
	mov	x29, sp
	.cfi_remember_state
	.cfi_def_cfa_register w29
	ldr	x16, [x28, #104]
	mov	sp, x16
	bl	_caml_initialize
	mov	sp, x29
	.cfi_restore_state
	ldurb	w8, [x19, #-8]
	cbz	w8, LBB19_538
; %bb.30:                               ; %L1243
	ldr	x21, [x20, #8]
	tbnz	w21, #0, LBB19_539
; %bb.31:                               ; %L1249
	ldrb	w8, [x21, #8]
	tbz	w8, #0, LBB19_538
; %bb.32:                               ; %L1253
	ldr	x19, [x19]
	ldr	x1, [x19, #8]!
Lloh133:
	adrp	x20, _camlBoyer__Pmakeblock3973@PAGE
Lloh134:
	add	x20, x20, _camlBoyer__Pmakeblock3973@PAGEOFF
	add	x0, x20, #8
	mov	x29, sp
	.cfi_remember_state
	.cfi_def_cfa_register w29
	ldr	x16, [x28, #104]
	mov	sp, x16
	bl	_caml_initialize
	mov	sp, x29
	.cfi_restore_state
	ldr	x1, [x21]
Lloh135:
	adrp	x0, _camlBoyer__Pmakeblock3972@PAGE+8
Lloh136:
	add	x0, x0, _camlBoyer__Pmakeblock3972@PAGEOFF+8
	mov	x29, sp
	.cfi_remember_state
	.cfi_def_cfa_register w29
	ldr	x16, [x28, #104]
	mov	sp, x16
	bl	_caml_initialize
	mov	sp, x29
	.cfi_restore_state
	mov	x0, x19
	mov	x1, x20
	mov	x29, sp
	.cfi_remember_state
	.cfi_def_cfa_register w29
	ldr	x16, [x28, #104]
	mov	sp, x16
	bl	_caml_modify
	mov	sp, x29
	.cfi_restore_state
Lloh137:
	adrp	x0, _camlBoyer__const_block511@PAGE
Lloh138:
	add	x0, x0, _camlBoyer__const_block511@PAGEOFF
	bl	_camlBoyer__cterm_to_term_14_35_code
Ltmp67:
	ldurb	w8, [x0, #-8]
	cbz	w8, LBB19_538
; %bb.33:                               ; %L1268
	ldr	x20, [x0, #8]
	tbnz	w20, #0, LBB19_539
; %bb.34:                               ; %L1274
	ldr	x19, [x20]
Lloh139:
	adrp	x0, _camlBoyer__Pmakeblock4005@PAGE
Lloh140:
	add	x0, x0, _camlBoyer__Pmakeblock4005@PAGEOFF
	mov	x1, x19
	mov	x29, sp
	.cfi_remember_state
	.cfi_def_cfa_register w29
	ldr	x16, [x28, #104]
	mov	sp, x16
	bl	_caml_initialize
	mov	sp, x29
	.cfi_restore_state
	ldurb	w8, [x19, #-8]
	cbz	w8, LBB19_538
; %bb.35:                               ; %L1280
	ldr	x21, [x20, #8]
	tbnz	w21, #0, LBB19_539
; %bb.36:                               ; %L1286
	ldrb	w8, [x21, #8]
	tbz	w8, #0, LBB19_538
; %bb.37:                               ; %L1290
	ldr	x19, [x19]
	ldr	x1, [x19, #8]!
Lloh141:
	adrp	x20, _camlBoyer__Pmakeblock4006@PAGE
Lloh142:
	add	x20, x20, _camlBoyer__Pmakeblock4006@PAGEOFF
	add	x0, x20, #8
	mov	x29, sp
	.cfi_remember_state
	.cfi_def_cfa_register w29
	ldr	x16, [x28, #104]
	mov	sp, x16
	bl	_caml_initialize
	mov	sp, x29
	.cfi_restore_state
	ldr	x1, [x21]
Lloh143:
	adrp	x0, _camlBoyer__Pmakeblock4005@PAGE+8
Lloh144:
	add	x0, x0, _camlBoyer__Pmakeblock4005@PAGEOFF+8
	mov	x29, sp
	.cfi_remember_state
	.cfi_def_cfa_register w29
	ldr	x16, [x28, #104]
	mov	sp, x16
	bl	_caml_initialize
	mov	sp, x29
	.cfi_restore_state
	mov	x0, x19
	mov	x1, x20
	mov	x29, sp
	.cfi_remember_state
	.cfi_def_cfa_register w29
	ldr	x16, [x28, #104]
	mov	sp, x16
	bl	_caml_modify
	mov	sp, x29
	.cfi_restore_state
Lloh145:
	adrp	x0, _camlBoyer__const_block546@PAGE
Lloh146:
	add	x0, x0, _camlBoyer__const_block546@PAGEOFF
	bl	_camlBoyer__cterm_to_term_14_35_code
Ltmp68:
	ldurb	w8, [x0, #-8]
	cbz	w8, LBB19_538
; %bb.38:                               ; %L1305
	ldr	x20, [x0, #8]
	tbnz	w20, #0, LBB19_539
; %bb.39:                               ; %L1311
	ldr	x19, [x20]
Lloh147:
	adrp	x0, _camlBoyer__Pmakeblock4038@PAGE
Lloh148:
	add	x0, x0, _camlBoyer__Pmakeblock4038@PAGEOFF
	mov	x1, x19
	mov	x29, sp
	.cfi_remember_state
	.cfi_def_cfa_register w29
	ldr	x16, [x28, #104]
	mov	sp, x16
	bl	_caml_initialize
	mov	sp, x29
	.cfi_restore_state
	ldurb	w8, [x19, #-8]
	cbz	w8, LBB19_538
; %bb.40:                               ; %L1317
	ldr	x21, [x20, #8]
	tbnz	w21, #0, LBB19_539
; %bb.41:                               ; %L1323
	ldrb	w8, [x21, #8]
	tbz	w8, #0, LBB19_538
; %bb.42:                               ; %L1327
	ldr	x19, [x19]
	ldr	x1, [x19, #8]!
Lloh149:
	adrp	x20, _camlBoyer__Pmakeblock4039@PAGE
Lloh150:
	add	x20, x20, _camlBoyer__Pmakeblock4039@PAGEOFF
	add	x0, x20, #8
	mov	x29, sp
	.cfi_remember_state
	.cfi_def_cfa_register w29
	ldr	x16, [x28, #104]
	mov	sp, x16
	bl	_caml_initialize
	mov	sp, x29
	.cfi_restore_state
	ldr	x1, [x21]
Lloh151:
	adrp	x0, _camlBoyer__Pmakeblock4038@PAGE+8
Lloh152:
	add	x0, x0, _camlBoyer__Pmakeblock4038@PAGEOFF+8
	mov	x29, sp
	.cfi_remember_state
	.cfi_def_cfa_register w29
	ldr	x16, [x28, #104]
	mov	sp, x16
	bl	_caml_initialize
	mov	sp, x29
	.cfi_restore_state
	mov	x0, x19
	mov	x1, x20
	mov	x29, sp
	.cfi_remember_state
	.cfi_def_cfa_register w29
	ldr	x16, [x28, #104]
	mov	sp, x16
	bl	_caml_modify
	mov	sp, x29
	.cfi_restore_state
Lloh153:
	adrp	x0, _camlBoyer__const_block579@PAGE
Lloh154:
	add	x0, x0, _camlBoyer__const_block579@PAGEOFF
	bl	_camlBoyer__cterm_to_term_14_35_code
Ltmp69:
	ldurb	w8, [x0, #-8]
	cbz	w8, LBB19_538
; %bb.43:                               ; %L1342
	ldr	x20, [x0, #8]
	tbnz	w20, #0, LBB19_539
; %bb.44:                               ; %L1348
	ldr	x19, [x20]
Lloh155:
	adrp	x0, _camlBoyer__Pmakeblock4071@PAGE
Lloh156:
	add	x0, x0, _camlBoyer__Pmakeblock4071@PAGEOFF
	mov	x1, x19
	mov	x29, sp
	.cfi_remember_state
	.cfi_def_cfa_register w29
	ldr	x16, [x28, #104]
	mov	sp, x16
	bl	_caml_initialize
	mov	sp, x29
	.cfi_restore_state
	ldurb	w8, [x19, #-8]
	cbz	w8, LBB19_538
; %bb.45:                               ; %L1354
	ldr	x21, [x20, #8]
	tbnz	w21, #0, LBB19_539
; %bb.46:                               ; %L1360
	ldrb	w8, [x21, #8]
	tbz	w8, #0, LBB19_538
; %bb.47:                               ; %L1364
	ldr	x19, [x19]
	ldr	x1, [x19, #8]!
Lloh157:
	adrp	x20, _camlBoyer__Pmakeblock4072@PAGE
Lloh158:
	add	x20, x20, _camlBoyer__Pmakeblock4072@PAGEOFF
	add	x0, x20, #8
	mov	x29, sp
	.cfi_remember_state
	.cfi_def_cfa_register w29
	ldr	x16, [x28, #104]
	mov	sp, x16
	bl	_caml_initialize
	mov	sp, x29
	.cfi_restore_state
	ldr	x1, [x21]
Lloh159:
	adrp	x0, _camlBoyer__Pmakeblock4071@PAGE+8
Lloh160:
	add	x0, x0, _camlBoyer__Pmakeblock4071@PAGEOFF+8
	mov	x29, sp
	.cfi_remember_state
	.cfi_def_cfa_register w29
	ldr	x16, [x28, #104]
	mov	sp, x16
	bl	_caml_initialize
	mov	sp, x29
	.cfi_restore_state
	mov	x0, x19
	mov	x1, x20
	mov	x29, sp
	.cfi_remember_state
	.cfi_def_cfa_register w29
	ldr	x16, [x28, #104]
	mov	sp, x16
	bl	_caml_modify
	mov	sp, x29
	.cfi_restore_state
Lloh161:
	adrp	x0, _camlBoyer__const_block606@PAGE
Lloh162:
	add	x0, x0, _camlBoyer__const_block606@PAGEOFF
	bl	_camlBoyer__cterm_to_term_14_35_code
Ltmp70:
	ldurb	w8, [x0, #-8]
	cbz	w8, LBB19_538
; %bb.48:                               ; %L1379
	ldr	x20, [x0, #8]
	tbnz	w20, #0, LBB19_539
; %bb.49:                               ; %L1385
	ldr	x19, [x20]
Lloh163:
	adrp	x0, _camlBoyer__Pmakeblock4104@PAGE
Lloh164:
	add	x0, x0, _camlBoyer__Pmakeblock4104@PAGEOFF
	mov	x1, x19
	mov	x29, sp
	.cfi_remember_state
	.cfi_def_cfa_register w29
	ldr	x16, [x28, #104]
	mov	sp, x16
	bl	_caml_initialize
	mov	sp, x29
	.cfi_restore_state
	ldurb	w8, [x19, #-8]
	cbz	w8, LBB19_538
; %bb.50:                               ; %L1391
	ldr	x21, [x20, #8]
	tbnz	w21, #0, LBB19_539
; %bb.51:                               ; %L1397
	ldrb	w8, [x21, #8]
	tbz	w8, #0, LBB19_538
; %bb.52:                               ; %L1401
	ldr	x19, [x19]
	ldr	x1, [x19, #8]!
Lloh165:
	adrp	x20, _camlBoyer__Pmakeblock4105@PAGE
Lloh166:
	add	x20, x20, _camlBoyer__Pmakeblock4105@PAGEOFF
	add	x0, x20, #8
	mov	x29, sp
	.cfi_remember_state
	.cfi_def_cfa_register w29
	ldr	x16, [x28, #104]
	mov	sp, x16
	bl	_caml_initialize
	mov	sp, x29
	.cfi_restore_state
	ldr	x1, [x21]
Lloh167:
	adrp	x0, _camlBoyer__Pmakeblock4104@PAGE+8
Lloh168:
	add	x0, x0, _camlBoyer__Pmakeblock4104@PAGEOFF+8
	mov	x29, sp
	.cfi_remember_state
	.cfi_def_cfa_register w29
	ldr	x16, [x28, #104]
	mov	sp, x16
	bl	_caml_initialize
	mov	sp, x29
	.cfi_restore_state
	mov	x0, x19
	mov	x1, x20
	mov	x29, sp
	.cfi_remember_state
	.cfi_def_cfa_register w29
	ldr	x16, [x28, #104]
	mov	sp, x16
	bl	_caml_modify
	mov	sp, x29
	.cfi_restore_state
Lloh169:
	adrp	x0, _camlBoyer__const_block623@PAGE
Lloh170:
	add	x0, x0, _camlBoyer__const_block623@PAGEOFF
	bl	_camlBoyer__cterm_to_term_14_35_code
Ltmp71:
	ldurb	w8, [x0, #-8]
	cbz	w8, LBB19_538
; %bb.53:                               ; %L1416
	ldr	x20, [x0, #8]
	tbnz	w20, #0, LBB19_539
; %bb.54:                               ; %L1422
	ldr	x19, [x20]
Lloh171:
	adrp	x0, _camlBoyer__Pmakeblock4137@PAGE
Lloh172:
	add	x0, x0, _camlBoyer__Pmakeblock4137@PAGEOFF
	mov	x1, x19
	mov	x29, sp
	.cfi_remember_state
	.cfi_def_cfa_register w29
	ldr	x16, [x28, #104]
	mov	sp, x16
	bl	_caml_initialize
	mov	sp, x29
	.cfi_restore_state
	ldurb	w8, [x19, #-8]
	cbz	w8, LBB19_538
; %bb.55:                               ; %L1428
	ldr	x21, [x20, #8]
	tbnz	w21, #0, LBB19_539
; %bb.56:                               ; %L1434
	ldrb	w8, [x21, #8]
	tbz	w8, #0, LBB19_538
; %bb.57:                               ; %L1438
	ldr	x19, [x19]
	ldr	x1, [x19, #8]!
Lloh173:
	adrp	x20, _camlBoyer__Pmakeblock4138@PAGE
Lloh174:
	add	x20, x20, _camlBoyer__Pmakeblock4138@PAGEOFF
	add	x0, x20, #8
	mov	x29, sp
	.cfi_remember_state
	.cfi_def_cfa_register w29
	ldr	x16, [x28, #104]
	mov	sp, x16
	bl	_caml_initialize
	mov	sp, x29
	.cfi_restore_state
	ldr	x1, [x21]
Lloh175:
	adrp	x0, _camlBoyer__Pmakeblock4137@PAGE+8
Lloh176:
	add	x0, x0, _camlBoyer__Pmakeblock4137@PAGEOFF+8
	mov	x29, sp
	.cfi_remember_state
	.cfi_def_cfa_register w29
	ldr	x16, [x28, #104]
	mov	sp, x16
	bl	_caml_initialize
	mov	sp, x29
	.cfi_restore_state
	mov	x0, x19
	mov	x1, x20
	mov	x29, sp
	.cfi_remember_state
	.cfi_def_cfa_register w29
	ldr	x16, [x28, #104]
	mov	sp, x16
	bl	_caml_modify
	mov	sp, x29
	.cfi_restore_state
Lloh177:
	adrp	x0, _camlBoyer__const_block642@PAGE
Lloh178:
	add	x0, x0, _camlBoyer__const_block642@PAGEOFF
	bl	_camlBoyer__cterm_to_term_14_35_code
Ltmp72:
	ldurb	w8, [x0, #-8]
	cbz	w8, LBB19_538
; %bb.58:                               ; %L1453
	ldr	x20, [x0, #8]
	tbnz	w20, #0, LBB19_539
; %bb.59:                               ; %L1459
	ldr	x19, [x20]
Lloh179:
	adrp	x0, _camlBoyer__Pmakeblock4170@PAGE
Lloh180:
	add	x0, x0, _camlBoyer__Pmakeblock4170@PAGEOFF
	mov	x1, x19
	mov	x29, sp
	.cfi_remember_state
	.cfi_def_cfa_register w29
	ldr	x16, [x28, #104]
	mov	sp, x16
	bl	_caml_initialize
	mov	sp, x29
	.cfi_restore_state
	ldurb	w8, [x19, #-8]
	cbz	w8, LBB19_538
; %bb.60:                               ; %L1465
	ldr	x21, [x20, #8]
	tbnz	w21, #0, LBB19_539
; %bb.61:                               ; %L1471
	ldrb	w8, [x21, #8]
	tbz	w8, #0, LBB19_538
; %bb.62:                               ; %L1475
	ldr	x19, [x19]
	ldr	x1, [x19, #8]!
Lloh181:
	adrp	x20, _camlBoyer__Pmakeblock4171@PAGE
Lloh182:
	add	x20, x20, _camlBoyer__Pmakeblock4171@PAGEOFF
	add	x0, x20, #8
	mov	x29, sp
	.cfi_remember_state
	.cfi_def_cfa_register w29
	ldr	x16, [x28, #104]
	mov	sp, x16
	bl	_caml_initialize
	mov	sp, x29
	.cfi_restore_state
	ldr	x1, [x21]
Lloh183:
	adrp	x0, _camlBoyer__Pmakeblock4170@PAGE+8
Lloh184:
	add	x0, x0, _camlBoyer__Pmakeblock4170@PAGEOFF+8
	mov	x29, sp
	.cfi_remember_state
	.cfi_def_cfa_register w29
	ldr	x16, [x28, #104]
	mov	sp, x16
	bl	_caml_initialize
	mov	sp, x29
	.cfi_restore_state
	mov	x0, x19
	mov	x1, x20
	mov	x29, sp
	.cfi_remember_state
	.cfi_def_cfa_register w29
	ldr	x16, [x28, #104]
	mov	sp, x16
	bl	_caml_modify
	mov	sp, x29
	.cfi_restore_state
Lloh185:
	adrp	x0, _camlBoyer__const_block671@PAGE
Lloh186:
	add	x0, x0, _camlBoyer__const_block671@PAGEOFF
	bl	_camlBoyer__cterm_to_term_14_35_code
Ltmp73:
	ldurb	w8, [x0, #-8]
	cbz	w8, LBB19_538
; %bb.63:                               ; %L1490
	ldr	x20, [x0, #8]
	tbnz	w20, #0, LBB19_539
; %bb.64:                               ; %L1496
	ldr	x19, [x20]
Lloh187:
	adrp	x0, _camlBoyer__Pmakeblock4203@PAGE
Lloh188:
	add	x0, x0, _camlBoyer__Pmakeblock4203@PAGEOFF
	mov	x1, x19
	mov	x29, sp
	.cfi_remember_state
	.cfi_def_cfa_register w29
	ldr	x16, [x28, #104]
	mov	sp, x16
	bl	_caml_initialize
	mov	sp, x29
	.cfi_restore_state
	ldurb	w8, [x19, #-8]
	cbz	w8, LBB19_538
; %bb.65:                               ; %L1502
	ldr	x21, [x20, #8]
	tbnz	w21, #0, LBB19_539
; %bb.66:                               ; %L1508
	ldrb	w8, [x21, #8]
	tbz	w8, #0, LBB19_538
; %bb.67:                               ; %L1512
	ldr	x19, [x19]
	ldr	x1, [x19, #8]!
Lloh189:
	adrp	x20, _camlBoyer__Pmakeblock4204@PAGE
Lloh190:
	add	x20, x20, _camlBoyer__Pmakeblock4204@PAGEOFF
	add	x0, x20, #8
	mov	x29, sp
	.cfi_remember_state
	.cfi_def_cfa_register w29
	ldr	x16, [x28, #104]
	mov	sp, x16
	bl	_caml_initialize
	mov	sp, x29
	.cfi_restore_state
	ldr	x1, [x21]
Lloh191:
	adrp	x0, _camlBoyer__Pmakeblock4203@PAGE+8
Lloh192:
	add	x0, x0, _camlBoyer__Pmakeblock4203@PAGEOFF+8
	mov	x29, sp
	.cfi_remember_state
	.cfi_def_cfa_register w29
	ldr	x16, [x28, #104]
	mov	sp, x16
	bl	_caml_initialize
	mov	sp, x29
	.cfi_restore_state
	mov	x0, x19
	mov	x1, x20
	mov	x29, sp
	.cfi_remember_state
	.cfi_def_cfa_register w29
	ldr	x16, [x28, #104]
	mov	sp, x16
	bl	_caml_modify
	mov	sp, x29
	.cfi_restore_state
Lloh193:
	adrp	x0, _camlBoyer__const_block690@PAGE
Lloh194:
	add	x0, x0, _camlBoyer__const_block690@PAGEOFF
	bl	_camlBoyer__cterm_to_term_14_35_code
Ltmp74:
	ldurb	w8, [x0, #-8]
	cbz	w8, LBB19_538
; %bb.68:                               ; %L1527
	ldr	x20, [x0, #8]
	tbnz	w20, #0, LBB19_539
; %bb.69:                               ; %L1533
	ldr	x19, [x20]
Lloh195:
	adrp	x0, _camlBoyer__Pmakeblock4236@PAGE
Lloh196:
	add	x0, x0, _camlBoyer__Pmakeblock4236@PAGEOFF
	mov	x1, x19
	mov	x29, sp
	.cfi_remember_state
	.cfi_def_cfa_register w29
	ldr	x16, [x28, #104]
	mov	sp, x16
	bl	_caml_initialize
	mov	sp, x29
	.cfi_restore_state
	ldurb	w8, [x19, #-8]
	cbz	w8, LBB19_538
; %bb.70:                               ; %L1539
	ldr	x21, [x20, #8]
	tbnz	w21, #0, LBB19_539
; %bb.71:                               ; %L1545
	ldrb	w8, [x21, #8]
	tbz	w8, #0, LBB19_538
; %bb.72:                               ; %L1549
	ldr	x19, [x19]
	ldr	x1, [x19, #8]!
Lloh197:
	adrp	x20, _camlBoyer__Pmakeblock4237@PAGE
Lloh198:
	add	x20, x20, _camlBoyer__Pmakeblock4237@PAGEOFF
	add	x0, x20, #8
	mov	x29, sp
	.cfi_remember_state
	.cfi_def_cfa_register w29
	ldr	x16, [x28, #104]
	mov	sp, x16
	bl	_caml_initialize
	mov	sp, x29
	.cfi_restore_state
	ldr	x1, [x21]
Lloh199:
	adrp	x0, _camlBoyer__Pmakeblock4236@PAGE+8
Lloh200:
	add	x0, x0, _camlBoyer__Pmakeblock4236@PAGEOFF+8
	mov	x29, sp
	.cfi_remember_state
	.cfi_def_cfa_register w29
	ldr	x16, [x28, #104]
	mov	sp, x16
	bl	_caml_initialize
	mov	sp, x29
	.cfi_restore_state
	mov	x0, x19
	mov	x1, x20
	mov	x29, sp
	.cfi_remember_state
	.cfi_def_cfa_register w29
	ldr	x16, [x28, #104]
	mov	sp, x16
	bl	_caml_modify
	mov	sp, x29
	.cfi_restore_state
Lloh201:
	adrp	x0, _camlBoyer__const_block711@PAGE
Lloh202:
	add	x0, x0, _camlBoyer__const_block711@PAGEOFF
	bl	_camlBoyer__cterm_to_term_14_35_code
Ltmp75:
	ldurb	w8, [x0, #-8]
	cbz	w8, LBB19_538
; %bb.73:                               ; %L1564
	ldr	x20, [x0, #8]
	tbnz	w20, #0, LBB19_539
; %bb.74:                               ; %L1570
	ldr	x19, [x20]
Lloh203:
	adrp	x0, _camlBoyer__Pmakeblock4269@PAGE
Lloh204:
	add	x0, x0, _camlBoyer__Pmakeblock4269@PAGEOFF
	mov	x1, x19
	mov	x29, sp
	.cfi_remember_state
	.cfi_def_cfa_register w29
	ldr	x16, [x28, #104]
	mov	sp, x16
	bl	_caml_initialize
	mov	sp, x29
	.cfi_restore_state
	ldurb	w8, [x19, #-8]
	cbz	w8, LBB19_538
; %bb.75:                               ; %L1576
	ldr	x21, [x20, #8]
	tbnz	w21, #0, LBB19_539
; %bb.76:                               ; %L1582
	ldrb	w8, [x21, #8]
	tbz	w8, #0, LBB19_538
; %bb.77:                               ; %L1586
	ldr	x19, [x19]
	ldr	x1, [x19, #8]!
Lloh205:
	adrp	x20, _camlBoyer__Pmakeblock4270@PAGE
Lloh206:
	add	x20, x20, _camlBoyer__Pmakeblock4270@PAGEOFF
	add	x0, x20, #8
	mov	x29, sp
	.cfi_remember_state
	.cfi_def_cfa_register w29
	ldr	x16, [x28, #104]
	mov	sp, x16
	bl	_caml_initialize
	mov	sp, x29
	.cfi_restore_state
	ldr	x1, [x21]
Lloh207:
	adrp	x0, _camlBoyer__Pmakeblock4269@PAGE+8
Lloh208:
	add	x0, x0, _camlBoyer__Pmakeblock4269@PAGEOFF+8
	mov	x29, sp
	.cfi_remember_state
	.cfi_def_cfa_register w29
	ldr	x16, [x28, #104]
	mov	sp, x16
	bl	_caml_initialize
	mov	sp, x29
	.cfi_restore_state
	mov	x0, x19
	mov	x1, x20
	mov	x29, sp
	.cfi_remember_state
	.cfi_def_cfa_register w29
	ldr	x16, [x28, #104]
	mov	sp, x16
	bl	_caml_modify
	mov	sp, x29
	.cfi_restore_state
Lloh209:
	adrp	x0, _camlBoyer__const_block726@PAGE
Lloh210:
	add	x0, x0, _camlBoyer__const_block726@PAGEOFF
	bl	_camlBoyer__cterm_to_term_14_35_code
Ltmp76:
	ldurb	w8, [x0, #-8]
	cbz	w8, LBB19_538
; %bb.78:                               ; %L1601
	ldr	x20, [x0, #8]
	tbnz	w20, #0, LBB19_539
; %bb.79:                               ; %L1607
	ldr	x19, [x20]
Lloh211:
	adrp	x0, _camlBoyer__Pmakeblock4302@PAGE
Lloh212:
	add	x0, x0, _camlBoyer__Pmakeblock4302@PAGEOFF
	mov	x1, x19
	mov	x29, sp
	.cfi_remember_state
	.cfi_def_cfa_register w29
	ldr	x16, [x28, #104]
	mov	sp, x16
	bl	_caml_initialize
	mov	sp, x29
	.cfi_restore_state
	ldurb	w8, [x19, #-8]
	cbz	w8, LBB19_538
; %bb.80:                               ; %L1613
	ldr	x21, [x20, #8]
	tbnz	w21, #0, LBB19_539
; %bb.81:                               ; %L1619
	ldrb	w8, [x21, #8]
	tbz	w8, #0, LBB19_538
; %bb.82:                               ; %L1623
	ldr	x19, [x19]
	ldr	x1, [x19, #8]!
Lloh213:
	adrp	x20, _camlBoyer__Pmakeblock4303@PAGE
Lloh214:
	add	x20, x20, _camlBoyer__Pmakeblock4303@PAGEOFF
	add	x0, x20, #8
	mov	x29, sp
	.cfi_remember_state
	.cfi_def_cfa_register w29
	ldr	x16, [x28, #104]
	mov	sp, x16
	bl	_caml_initialize
	mov	sp, x29
	.cfi_restore_state
	ldr	x1, [x21]
Lloh215:
	adrp	x0, _camlBoyer__Pmakeblock4302@PAGE+8
Lloh216:
	add	x0, x0, _camlBoyer__Pmakeblock4302@PAGEOFF+8
	mov	x29, sp
	.cfi_remember_state
	.cfi_def_cfa_register w29
	ldr	x16, [x28, #104]
	mov	sp, x16
	bl	_caml_initialize
	mov	sp, x29
	.cfi_restore_state
	mov	x0, x19
	mov	x1, x20
	mov	x29, sp
	.cfi_remember_state
	.cfi_def_cfa_register w29
	ldr	x16, [x28, #104]
	mov	sp, x16
	bl	_caml_modify
	mov	sp, x29
	.cfi_restore_state
Lloh217:
	adrp	x0, _camlBoyer__const_block771@PAGE
Lloh218:
	add	x0, x0, _camlBoyer__const_block771@PAGEOFF
	bl	_camlBoyer__cterm_to_term_14_35_code
Ltmp77:
	ldurb	w8, [x0, #-8]
	cbz	w8, LBB19_538
; %bb.83:                               ; %L1638
	ldr	x20, [x0, #8]
	tbnz	w20, #0, LBB19_539
; %bb.84:                               ; %L1644
	ldr	x19, [x20]
Lloh219:
	adrp	x0, _camlBoyer__Pmakeblock4335@PAGE
Lloh220:
	add	x0, x0, _camlBoyer__Pmakeblock4335@PAGEOFF
	mov	x1, x19
	mov	x29, sp
	.cfi_remember_state
	.cfi_def_cfa_register w29
	ldr	x16, [x28, #104]
	mov	sp, x16
	bl	_caml_initialize
	mov	sp, x29
	.cfi_restore_state
	ldurb	w8, [x19, #-8]
	cbz	w8, LBB19_538
; %bb.85:                               ; %L1650
	ldr	x21, [x20, #8]
	tbnz	w21, #0, LBB19_539
; %bb.86:                               ; %L1656
	ldrb	w8, [x21, #8]
	tbz	w8, #0, LBB19_538
; %bb.87:                               ; %L1660
	ldr	x19, [x19]
	ldr	x1, [x19, #8]!
Lloh221:
	adrp	x20, _camlBoyer__Pmakeblock4336@PAGE
Lloh222:
	add	x20, x20, _camlBoyer__Pmakeblock4336@PAGEOFF
	add	x0, x20, #8
	mov	x29, sp
	.cfi_remember_state
	.cfi_def_cfa_register w29
	ldr	x16, [x28, #104]
	mov	sp, x16
	bl	_caml_initialize
	mov	sp, x29
	.cfi_restore_state
	ldr	x1, [x21]
Lloh223:
	adrp	x0, _camlBoyer__Pmakeblock4335@PAGE+8
Lloh224:
	add	x0, x0, _camlBoyer__Pmakeblock4335@PAGEOFF+8
	mov	x29, sp
	.cfi_remember_state
	.cfi_def_cfa_register w29
	ldr	x16, [x28, #104]
	mov	sp, x16
	bl	_caml_initialize
	mov	sp, x29
	.cfi_restore_state
	mov	x0, x19
	mov	x1, x20
	mov	x29, sp
	.cfi_remember_state
	.cfi_def_cfa_register w29
	ldr	x16, [x28, #104]
	mov	sp, x16
	bl	_caml_modify
	mov	sp, x29
	.cfi_restore_state
Lloh225:
	adrp	x0, _camlBoyer__const_block798@PAGE
Lloh226:
	add	x0, x0, _camlBoyer__const_block798@PAGEOFF
	bl	_camlBoyer__cterm_to_term_14_35_code
Ltmp78:
	ldurb	w8, [x0, #-8]
	cbz	w8, LBB19_538
; %bb.88:                               ; %L1675
	ldr	x20, [x0, #8]
	tbnz	w20, #0, LBB19_539
; %bb.89:                               ; %L1681
	ldr	x19, [x20]
Lloh227:
	adrp	x0, _camlBoyer__Pmakeblock4368@PAGE
Lloh228:
	add	x0, x0, _camlBoyer__Pmakeblock4368@PAGEOFF
	mov	x1, x19
	mov	x29, sp
	.cfi_remember_state
	.cfi_def_cfa_register w29
	ldr	x16, [x28, #104]
	mov	sp, x16
	bl	_caml_initialize
	mov	sp, x29
	.cfi_restore_state
	ldurb	w8, [x19, #-8]
	cbz	w8, LBB19_538
; %bb.90:                               ; %L1687
	ldr	x21, [x20, #8]
	tbnz	w21, #0, LBB19_539
; %bb.91:                               ; %L1693
	ldrb	w8, [x21, #8]
	tbz	w8, #0, LBB19_538
; %bb.92:                               ; %L1697
	ldr	x19, [x19]
	ldr	x1, [x19, #8]!
Lloh229:
	adrp	x20, _camlBoyer__Pmakeblock4369@PAGE
Lloh230:
	add	x20, x20, _camlBoyer__Pmakeblock4369@PAGEOFF
	add	x0, x20, #8
	mov	x29, sp
	.cfi_remember_state
	.cfi_def_cfa_register w29
	ldr	x16, [x28, #104]
	mov	sp, x16
	bl	_caml_initialize
	mov	sp, x29
	.cfi_restore_state
	ldr	x1, [x21]
Lloh231:
	adrp	x0, _camlBoyer__Pmakeblock4368@PAGE+8
Lloh232:
	add	x0, x0, _camlBoyer__Pmakeblock4368@PAGEOFF+8
	mov	x29, sp
	.cfi_remember_state
	.cfi_def_cfa_register w29
	ldr	x16, [x28, #104]
	mov	sp, x16
	bl	_caml_initialize
	mov	sp, x29
	.cfi_restore_state
	mov	x0, x19
	mov	x1, x20
	mov	x29, sp
	.cfi_remember_state
	.cfi_def_cfa_register w29
	ldr	x16, [x28, #104]
	mov	sp, x16
	bl	_caml_modify
	mov	sp, x29
	.cfi_restore_state
Lloh233:
	adrp	x0, _camlBoyer__const_block813@PAGE
Lloh234:
	add	x0, x0, _camlBoyer__const_block813@PAGEOFF
	bl	_camlBoyer__cterm_to_term_14_35_code
Ltmp79:
	ldurb	w8, [x0, #-8]
	cbz	w8, LBB19_538
; %bb.93:                               ; %L1712
	ldr	x20, [x0, #8]
	tbnz	w20, #0, LBB19_539
; %bb.94:                               ; %L1718
	ldr	x19, [x20]
Lloh235:
	adrp	x0, _camlBoyer__Pmakeblock4401@PAGE
Lloh236:
	add	x0, x0, _camlBoyer__Pmakeblock4401@PAGEOFF
	mov	x1, x19
	mov	x29, sp
	.cfi_remember_state
	.cfi_def_cfa_register w29
	ldr	x16, [x28, #104]
	mov	sp, x16
	bl	_caml_initialize
	mov	sp, x29
	.cfi_restore_state
	ldurb	w8, [x19, #-8]
	cbz	w8, LBB19_538
; %bb.95:                               ; %L1724
	ldr	x21, [x20, #8]
	tbnz	w21, #0, LBB19_539
; %bb.96:                               ; %L1730
	ldrb	w8, [x21, #8]
	tbz	w8, #0, LBB19_538
; %bb.97:                               ; %L1734
	ldr	x19, [x19]
	ldr	x1, [x19, #8]!
Lloh237:
	adrp	x20, _camlBoyer__Pmakeblock4402@PAGE
Lloh238:
	add	x20, x20, _camlBoyer__Pmakeblock4402@PAGEOFF
	add	x0, x20, #8
	mov	x29, sp
	.cfi_remember_state
	.cfi_def_cfa_register w29
	ldr	x16, [x28, #104]
	mov	sp, x16
	bl	_caml_initialize
	mov	sp, x29
	.cfi_restore_state
	ldr	x1, [x21]
Lloh239:
	adrp	x0, _camlBoyer__Pmakeblock4401@PAGE+8
Lloh240:
	add	x0, x0, _camlBoyer__Pmakeblock4401@PAGEOFF+8
	mov	x29, sp
	.cfi_remember_state
	.cfi_def_cfa_register w29
	ldr	x16, [x28, #104]
	mov	sp, x16
	bl	_caml_initialize
	mov	sp, x29
	.cfi_restore_state
	mov	x0, x19
	mov	x1, x20
	mov	x29, sp
	.cfi_remember_state
	.cfi_def_cfa_register w29
	ldr	x16, [x28, #104]
	mov	sp, x16
	bl	_caml_modify
	mov	sp, x29
	.cfi_restore_state
Lloh241:
	adrp	x0, _camlBoyer__const_block828@PAGE
Lloh242:
	add	x0, x0, _camlBoyer__const_block828@PAGEOFF
	bl	_camlBoyer__cterm_to_term_14_35_code
Ltmp80:
	ldurb	w8, [x0, #-8]
	cbz	w8, LBB19_538
; %bb.98:                               ; %L1749
	ldr	x20, [x0, #8]
	tbnz	w20, #0, LBB19_539
; %bb.99:                               ; %L1755
	ldr	x19, [x20]
Lloh243:
	adrp	x0, _camlBoyer__Pmakeblock4434@PAGE
Lloh244:
	add	x0, x0, _camlBoyer__Pmakeblock4434@PAGEOFF
	mov	x1, x19
	mov	x29, sp
	.cfi_remember_state
	.cfi_def_cfa_register w29
	ldr	x16, [x28, #104]
	mov	sp, x16
	bl	_caml_initialize
	mov	sp, x29
	.cfi_restore_state
	ldurb	w8, [x19, #-8]
	cbz	w8, LBB19_538
; %bb.100:                              ; %L1761
	ldr	x21, [x20, #8]
	tbnz	w21, #0, LBB19_539
; %bb.101:                              ; %L1767
	ldrb	w8, [x21, #8]
	tbz	w8, #0, LBB19_538
; %bb.102:                              ; %L1771
	ldr	x19, [x19]
	ldr	x1, [x19, #8]!
Lloh245:
	adrp	x20, _camlBoyer__Pmakeblock4435@PAGE
Lloh246:
	add	x20, x20, _camlBoyer__Pmakeblock4435@PAGEOFF
	add	x0, x20, #8
	mov	x29, sp
	.cfi_remember_state
	.cfi_def_cfa_register w29
	ldr	x16, [x28, #104]
	mov	sp, x16
	bl	_caml_initialize
	mov	sp, x29
	.cfi_restore_state
	ldr	x1, [x21]
Lloh247:
	adrp	x0, _camlBoyer__Pmakeblock4434@PAGE+8
Lloh248:
	add	x0, x0, _camlBoyer__Pmakeblock4434@PAGEOFF+8
	mov	x29, sp
	.cfi_remember_state
	.cfi_def_cfa_register w29
	ldr	x16, [x28, #104]
	mov	sp, x16
	bl	_caml_initialize
	mov	sp, x29
	.cfi_restore_state
	mov	x0, x19
	mov	x1, x20
	mov	x29, sp
	.cfi_remember_state
	.cfi_def_cfa_register w29
	ldr	x16, [x28, #104]
	mov	sp, x16
	bl	_caml_modify
	mov	sp, x29
	.cfi_restore_state
Lloh249:
	adrp	x0, _camlBoyer__const_block843@PAGE
Lloh250:
	add	x0, x0, _camlBoyer__const_block843@PAGEOFF
	bl	_camlBoyer__cterm_to_term_14_35_code
Ltmp81:
	ldurb	w8, [x0, #-8]
	cbz	w8, LBB19_538
; %bb.103:                              ; %L1786
	ldr	x20, [x0, #8]
	tbnz	w20, #0, LBB19_539
; %bb.104:                              ; %L1792
	ldr	x19, [x20]
Lloh251:
	adrp	x0, _camlBoyer__Pmakeblock4467@PAGE
Lloh252:
	add	x0, x0, _camlBoyer__Pmakeblock4467@PAGEOFF
	mov	x1, x19
	mov	x29, sp
	.cfi_remember_state
	.cfi_def_cfa_register w29
	ldr	x16, [x28, #104]
	mov	sp, x16
	bl	_caml_initialize
	mov	sp, x29
	.cfi_restore_state
	ldurb	w8, [x19, #-8]
	cbz	w8, LBB19_538
; %bb.105:                              ; %L1798
	ldr	x21, [x20, #8]
	tbnz	w21, #0, LBB19_539
; %bb.106:                              ; %L1804
	ldrb	w8, [x21, #8]
	tbz	w8, #0, LBB19_538
; %bb.107:                              ; %L1808
	ldr	x19, [x19]
	ldr	x1, [x19, #8]!
Lloh253:
	adrp	x20, _camlBoyer__Pmakeblock4468@PAGE
Lloh254:
	add	x20, x20, _camlBoyer__Pmakeblock4468@PAGEOFF
	add	x0, x20, #8
	mov	x29, sp
	.cfi_remember_state
	.cfi_def_cfa_register w29
	ldr	x16, [x28, #104]
	mov	sp, x16
	bl	_caml_initialize
	mov	sp, x29
	.cfi_restore_state
	ldr	x1, [x21]
Lloh255:
	adrp	x0, _camlBoyer__Pmakeblock4467@PAGE+8
Lloh256:
	add	x0, x0, _camlBoyer__Pmakeblock4467@PAGEOFF+8
	mov	x29, sp
	.cfi_remember_state
	.cfi_def_cfa_register w29
	ldr	x16, [x28, #104]
	mov	sp, x16
	bl	_caml_initialize
	mov	sp, x29
	.cfi_restore_state
	mov	x0, x19
	mov	x1, x20
	mov	x29, sp
	.cfi_remember_state
	.cfi_def_cfa_register w29
	ldr	x16, [x28, #104]
	mov	sp, x16
	bl	_caml_modify
	mov	sp, x29
	.cfi_restore_state
Lloh257:
	adrp	x0, _camlBoyer__const_block860@PAGE
Lloh258:
	add	x0, x0, _camlBoyer__const_block860@PAGEOFF
	bl	_camlBoyer__cterm_to_term_14_35_code
Ltmp82:
	ldurb	w8, [x0, #-8]
	cbz	w8, LBB19_538
; %bb.108:                              ; %L1823
	ldr	x20, [x0, #8]
	tbnz	w20, #0, LBB19_539
; %bb.109:                              ; %L1829
	ldr	x19, [x20]
Lloh259:
	adrp	x0, _camlBoyer__Pmakeblock4500@PAGE
Lloh260:
	add	x0, x0, _camlBoyer__Pmakeblock4500@PAGEOFF
	mov	x1, x19
	mov	x29, sp
	.cfi_remember_state
	.cfi_def_cfa_register w29
	ldr	x16, [x28, #104]
	mov	sp, x16
	bl	_caml_initialize
	mov	sp, x29
	.cfi_restore_state
	ldurb	w8, [x19, #-8]
	cbz	w8, LBB19_538
; %bb.110:                              ; %L1835
	ldr	x21, [x20, #8]
	tbnz	w21, #0, LBB19_539
; %bb.111:                              ; %L1841
	ldrb	w8, [x21, #8]
	tbz	w8, #0, LBB19_538
; %bb.112:                              ; %L1845
	ldr	x19, [x19]
	ldr	x1, [x19, #8]!
Lloh261:
	adrp	x20, _camlBoyer__Pmakeblock4501@PAGE
Lloh262:
	add	x20, x20, _camlBoyer__Pmakeblock4501@PAGEOFF
	add	x0, x20, #8
	mov	x29, sp
	.cfi_remember_state
	.cfi_def_cfa_register w29
	ldr	x16, [x28, #104]
	mov	sp, x16
	bl	_caml_initialize
	mov	sp, x29
	.cfi_restore_state
	ldr	x1, [x21]
Lloh263:
	adrp	x0, _camlBoyer__Pmakeblock4500@PAGE+8
Lloh264:
	add	x0, x0, _camlBoyer__Pmakeblock4500@PAGEOFF+8
	mov	x29, sp
	.cfi_remember_state
	.cfi_def_cfa_register w29
	ldr	x16, [x28, #104]
	mov	sp, x16
	bl	_caml_initialize
	mov	sp, x29
	.cfi_restore_state
	mov	x0, x19
	mov	x1, x20
	mov	x29, sp
	.cfi_remember_state
	.cfi_def_cfa_register w29
	ldr	x16, [x28, #104]
	mov	sp, x16
	bl	_caml_modify
	mov	sp, x29
	.cfi_restore_state
Lloh265:
	adrp	x0, _camlBoyer__const_block907@PAGE
Lloh266:
	add	x0, x0, _camlBoyer__const_block907@PAGEOFF
	bl	_camlBoyer__cterm_to_term_14_35_code
Ltmp83:
	ldurb	w8, [x0, #-8]
	cbz	w8, LBB19_538
; %bb.113:                              ; %L1860
	ldr	x20, [x0, #8]
	tbnz	w20, #0, LBB19_539
; %bb.114:                              ; %L1866
	ldr	x19, [x20]
Lloh267:
	adrp	x0, _camlBoyer__Pmakeblock4533@PAGE
Lloh268:
	add	x0, x0, _camlBoyer__Pmakeblock4533@PAGEOFF
	mov	x1, x19
	mov	x29, sp
	.cfi_remember_state
	.cfi_def_cfa_register w29
	ldr	x16, [x28, #104]
	mov	sp, x16
	bl	_caml_initialize
	mov	sp, x29
	.cfi_restore_state
	ldurb	w8, [x19, #-8]
	cbz	w8, LBB19_538
; %bb.115:                              ; %L1872
	ldr	x21, [x20, #8]
	tbnz	w21, #0, LBB19_539
; %bb.116:                              ; %L1878
	ldrb	w8, [x21, #8]
	tbz	w8, #0, LBB19_538
; %bb.117:                              ; %L1882
	ldr	x19, [x19]
	ldr	x1, [x19, #8]!
Lloh269:
	adrp	x20, _camlBoyer__Pmakeblock4534@PAGE
Lloh270:
	add	x20, x20, _camlBoyer__Pmakeblock4534@PAGEOFF
	add	x0, x20, #8
	mov	x29, sp
	.cfi_remember_state
	.cfi_def_cfa_register w29
	ldr	x16, [x28, #104]
	mov	sp, x16
	bl	_caml_initialize
	mov	sp, x29
	.cfi_restore_state
	ldr	x1, [x21]
Lloh271:
	adrp	x0, _camlBoyer__Pmakeblock4533@PAGE+8
Lloh272:
	add	x0, x0, _camlBoyer__Pmakeblock4533@PAGEOFF+8
	mov	x29, sp
	.cfi_remember_state
	.cfi_def_cfa_register w29
	ldr	x16, [x28, #104]
	mov	sp, x16
	bl	_caml_initialize
	mov	sp, x29
	.cfi_restore_state
	mov	x0, x19
	mov	x1, x20
	mov	x29, sp
	.cfi_remember_state
	.cfi_def_cfa_register w29
	ldr	x16, [x28, #104]
	mov	sp, x16
	bl	_caml_modify
	mov	sp, x29
	.cfi_restore_state
Lloh273:
	adrp	x0, _camlBoyer__const_block926@PAGE
Lloh274:
	add	x0, x0, _camlBoyer__const_block926@PAGEOFF
	bl	_camlBoyer__cterm_to_term_14_35_code
Ltmp84:
	ldurb	w8, [x0, #-8]
	cbz	w8, LBB19_538
; %bb.118:                              ; %L1897
	ldr	x20, [x0, #8]
	tbnz	w20, #0, LBB19_539
; %bb.119:                              ; %L1903
	ldr	x19, [x20]
Lloh275:
	adrp	x0, _camlBoyer__Pmakeblock4566@PAGE
Lloh276:
	add	x0, x0, _camlBoyer__Pmakeblock4566@PAGEOFF
	mov	x1, x19
	mov	x29, sp
	.cfi_remember_state
	.cfi_def_cfa_register w29
	ldr	x16, [x28, #104]
	mov	sp, x16
	bl	_caml_initialize
	mov	sp, x29
	.cfi_restore_state
	ldurb	w8, [x19, #-8]
	cbz	w8, LBB19_538
; %bb.120:                              ; %L1909
	ldr	x21, [x20, #8]
	tbnz	w21, #0, LBB19_539
; %bb.121:                              ; %L1915
	ldrb	w8, [x21, #8]
	tbz	w8, #0, LBB19_538
; %bb.122:                              ; %L1919
	ldr	x19, [x19]
	ldr	x1, [x19, #8]!
Lloh277:
	adrp	x20, _camlBoyer__Pmakeblock4567@PAGE
Lloh278:
	add	x20, x20, _camlBoyer__Pmakeblock4567@PAGEOFF
	add	x0, x20, #8
	mov	x29, sp
	.cfi_remember_state
	.cfi_def_cfa_register w29
	ldr	x16, [x28, #104]
	mov	sp, x16
	bl	_caml_initialize
	mov	sp, x29
	.cfi_restore_state
	ldr	x1, [x21]
Lloh279:
	adrp	x0, _camlBoyer__Pmakeblock4566@PAGE+8
Lloh280:
	add	x0, x0, _camlBoyer__Pmakeblock4566@PAGEOFF+8
	mov	x29, sp
	.cfi_remember_state
	.cfi_def_cfa_register w29
	ldr	x16, [x28, #104]
	mov	sp, x16
	bl	_caml_initialize
	mov	sp, x29
	.cfi_restore_state
	mov	x0, x19
	mov	x1, x20
	mov	x29, sp
	.cfi_remember_state
	.cfi_def_cfa_register w29
	ldr	x16, [x28, #104]
	mov	sp, x16
	bl	_caml_modify
	mov	sp, x29
	.cfi_restore_state
Lloh281:
	adrp	x0, _camlBoyer__const_block955@PAGE
Lloh282:
	add	x0, x0, _camlBoyer__const_block955@PAGEOFF
	bl	_camlBoyer__cterm_to_term_14_35_code
Ltmp85:
	ldurb	w8, [x0, #-8]
	cbz	w8, LBB19_538
; %bb.123:                              ; %L1934
	ldr	x20, [x0, #8]
	tbnz	w20, #0, LBB19_539
; %bb.124:                              ; %L1940
	ldr	x19, [x20]
Lloh283:
	adrp	x0, _camlBoyer__Pmakeblock4599@PAGE
Lloh284:
	add	x0, x0, _camlBoyer__Pmakeblock4599@PAGEOFF
	mov	x1, x19
	mov	x29, sp
	.cfi_remember_state
	.cfi_def_cfa_register w29
	ldr	x16, [x28, #104]
	mov	sp, x16
	bl	_caml_initialize
	mov	sp, x29
	.cfi_restore_state
	ldurb	w8, [x19, #-8]
	cbz	w8, LBB19_538
; %bb.125:                              ; %L1946
	ldr	x21, [x20, #8]
	tbnz	w21, #0, LBB19_539
; %bb.126:                              ; %L1952
	ldrb	w8, [x21, #8]
	tbz	w8, #0, LBB19_538
; %bb.127:                              ; %L1956
	ldr	x19, [x19]
	ldr	x1, [x19, #8]!
Lloh285:
	adrp	x20, _camlBoyer__Pmakeblock4600@PAGE
Lloh286:
	add	x20, x20, _camlBoyer__Pmakeblock4600@PAGEOFF
	add	x0, x20, #8
	mov	x29, sp
	.cfi_remember_state
	.cfi_def_cfa_register w29
	ldr	x16, [x28, #104]
	mov	sp, x16
	bl	_caml_initialize
	mov	sp, x29
	.cfi_restore_state
	ldr	x1, [x21]
Lloh287:
	adrp	x0, _camlBoyer__Pmakeblock4599@PAGE+8
Lloh288:
	add	x0, x0, _camlBoyer__Pmakeblock4599@PAGEOFF+8
	mov	x29, sp
	.cfi_remember_state
	.cfi_def_cfa_register w29
	ldr	x16, [x28, #104]
	mov	sp, x16
	bl	_caml_initialize
	mov	sp, x29
	.cfi_restore_state
	mov	x0, x19
	mov	x1, x20
	mov	x29, sp
	.cfi_remember_state
	.cfi_def_cfa_register w29
	ldr	x16, [x28, #104]
	mov	sp, x16
	bl	_caml_modify
	mov	sp, x29
	.cfi_restore_state
Lloh289:
	adrp	x0, _camlBoyer__const_block982@PAGE
Lloh290:
	add	x0, x0, _camlBoyer__const_block982@PAGEOFF
	bl	_camlBoyer__cterm_to_term_14_35_code
Ltmp86:
	ldurb	w8, [x0, #-8]
	cbz	w8, LBB19_538
; %bb.128:                              ; %L1971
	ldr	x20, [x0, #8]
	tbnz	w20, #0, LBB19_539
; %bb.129:                              ; %L1977
	ldr	x19, [x20]
Lloh291:
	adrp	x0, _camlBoyer__Pmakeblock4632@PAGE
Lloh292:
	add	x0, x0, _camlBoyer__Pmakeblock4632@PAGEOFF
	mov	x1, x19
	mov	x29, sp
	.cfi_remember_state
	.cfi_def_cfa_register w29
	ldr	x16, [x28, #104]
	mov	sp, x16
	bl	_caml_initialize
	mov	sp, x29
	.cfi_restore_state
	ldurb	w8, [x19, #-8]
	cbz	w8, LBB19_538
; %bb.130:                              ; %L1983
	ldr	x21, [x20, #8]
	tbnz	w21, #0, LBB19_539
; %bb.131:                              ; %L1989
	ldrb	w8, [x21, #8]
	tbz	w8, #0, LBB19_538
; %bb.132:                              ; %L1993
	ldr	x19, [x19]
	ldr	x1, [x19, #8]!
Lloh293:
	adrp	x20, _camlBoyer__Pmakeblock4633@PAGE
Lloh294:
	add	x20, x20, _camlBoyer__Pmakeblock4633@PAGEOFF
	add	x0, x20, #8
	mov	x29, sp
	.cfi_remember_state
	.cfi_def_cfa_register w29
	ldr	x16, [x28, #104]
	mov	sp, x16
	bl	_caml_initialize
	mov	sp, x29
	.cfi_restore_state
	ldr	x1, [x21]
Lloh295:
	adrp	x0, _camlBoyer__Pmakeblock4632@PAGE+8
Lloh296:
	add	x0, x0, _camlBoyer__Pmakeblock4632@PAGEOFF+8
	mov	x29, sp
	.cfi_remember_state
	.cfi_def_cfa_register w29
	ldr	x16, [x28, #104]
	mov	sp, x16
	bl	_caml_initialize
	mov	sp, x29
	.cfi_restore_state
	mov	x0, x19
	mov	x1, x20
	mov	x29, sp
	.cfi_remember_state
	.cfi_def_cfa_register w29
	ldr	x16, [x28, #104]
	mov	sp, x16
	bl	_caml_modify
	mov	sp, x29
	.cfi_restore_state
Lloh297:
	adrp	x0, _camlBoyer__const_block993@PAGE
Lloh298:
	add	x0, x0, _camlBoyer__const_block993@PAGEOFF
	bl	_camlBoyer__cterm_to_term_14_35_code
Ltmp87:
	ldurb	w8, [x0, #-8]
	cbz	w8, LBB19_538
; %bb.133:                              ; %L2008
	ldr	x20, [x0, #8]
	tbnz	w20, #0, LBB19_539
; %bb.134:                              ; %L2014
	ldr	x19, [x20]
Lloh299:
	adrp	x0, _camlBoyer__Pmakeblock4665@PAGE
Lloh300:
	add	x0, x0, _camlBoyer__Pmakeblock4665@PAGEOFF
	mov	x1, x19
	mov	x29, sp
	.cfi_remember_state
	.cfi_def_cfa_register w29
	ldr	x16, [x28, #104]
	mov	sp, x16
	bl	_caml_initialize
	mov	sp, x29
	.cfi_restore_state
	ldurb	w8, [x19, #-8]
	cbz	w8, LBB19_538
; %bb.135:                              ; %L2020
	ldr	x21, [x20, #8]
	tbnz	w21, #0, LBB19_539
; %bb.136:                              ; %L2026
	ldrb	w8, [x21, #8]
	tbz	w8, #0, LBB19_538
; %bb.137:                              ; %L2030
	ldr	x19, [x19]
	ldr	x1, [x19, #8]!
Lloh301:
	adrp	x20, _camlBoyer__Pmakeblock4666@PAGE
Lloh302:
	add	x20, x20, _camlBoyer__Pmakeblock4666@PAGEOFF
	add	x0, x20, #8
	mov	x29, sp
	.cfi_remember_state
	.cfi_def_cfa_register w29
	ldr	x16, [x28, #104]
	mov	sp, x16
	bl	_caml_initialize
	mov	sp, x29
	.cfi_restore_state
	ldr	x1, [x21]
Lloh303:
	adrp	x0, _camlBoyer__Pmakeblock4665@PAGE+8
Lloh304:
	add	x0, x0, _camlBoyer__Pmakeblock4665@PAGEOFF+8
	mov	x29, sp
	.cfi_remember_state
	.cfi_def_cfa_register w29
	ldr	x16, [x28, #104]
	mov	sp, x16
	bl	_caml_initialize
	mov	sp, x29
	.cfi_restore_state
	mov	x0, x19
	mov	x1, x20
	mov	x29, sp
	.cfi_remember_state
	.cfi_def_cfa_register w29
	ldr	x16, [x28, #104]
	mov	sp, x16
	bl	_caml_modify
	mov	sp, x29
	.cfi_restore_state
Lloh305:
	adrp	x0, _camlBoyer__const_block1020@PAGE
Lloh306:
	add	x0, x0, _camlBoyer__const_block1020@PAGEOFF
	bl	_camlBoyer__cterm_to_term_14_35_code
Ltmp88:
	ldurb	w8, [x0, #-8]
	cbz	w8, LBB19_538
; %bb.138:                              ; %L2045
	ldr	x20, [x0, #8]
	tbnz	w20, #0, LBB19_539
; %bb.139:                              ; %L2051
	ldr	x19, [x20]
Lloh307:
	adrp	x0, _camlBoyer__Pmakeblock4698@PAGE
Lloh308:
	add	x0, x0, _camlBoyer__Pmakeblock4698@PAGEOFF
	mov	x1, x19
	mov	x29, sp
	.cfi_remember_state
	.cfi_def_cfa_register w29
	ldr	x16, [x28, #104]
	mov	sp, x16
	bl	_caml_initialize
	mov	sp, x29
	.cfi_restore_state
	ldurb	w8, [x19, #-8]
	cbz	w8, LBB19_538
; %bb.140:                              ; %L2057
	ldr	x21, [x20, #8]
	tbnz	w21, #0, LBB19_539
; %bb.141:                              ; %L2063
	ldrb	w8, [x21, #8]
	tbz	w8, #0, LBB19_538
; %bb.142:                              ; %L2067
	ldr	x19, [x19]
	ldr	x1, [x19, #8]!
Lloh309:
	adrp	x20, _camlBoyer__Pmakeblock4699@PAGE
Lloh310:
	add	x20, x20, _camlBoyer__Pmakeblock4699@PAGEOFF
	add	x0, x20, #8
	mov	x29, sp
	.cfi_remember_state
	.cfi_def_cfa_register w29
	ldr	x16, [x28, #104]
	mov	sp, x16
	bl	_caml_initialize
	mov	sp, x29
	.cfi_restore_state
	ldr	x1, [x21]
Lloh311:
	adrp	x0, _camlBoyer__Pmakeblock4698@PAGE+8
Lloh312:
	add	x0, x0, _camlBoyer__Pmakeblock4698@PAGEOFF+8
	mov	x29, sp
	.cfi_remember_state
	.cfi_def_cfa_register w29
	ldr	x16, [x28, #104]
	mov	sp, x16
	bl	_caml_initialize
	mov	sp, x29
	.cfi_restore_state
	mov	x0, x19
	mov	x1, x20
	mov	x29, sp
	.cfi_remember_state
	.cfi_def_cfa_register w29
	ldr	x16, [x28, #104]
	mov	sp, x16
	bl	_caml_modify
	mov	sp, x29
	.cfi_restore_state
Lloh313:
	adrp	x0, _camlBoyer__const_block1041@PAGE
Lloh314:
	add	x0, x0, _camlBoyer__const_block1041@PAGEOFF
	bl	_camlBoyer__cterm_to_term_14_35_code
Ltmp89:
	ldurb	w8, [x0, #-8]
	cbz	w8, LBB19_538
; %bb.143:                              ; %L2082
	ldr	x20, [x0, #8]
	tbnz	w20, #0, LBB19_539
; %bb.144:                              ; %L2088
	ldr	x19, [x20]
Lloh315:
	adrp	x0, _camlBoyer__Pmakeblock4731@PAGE
Lloh316:
	add	x0, x0, _camlBoyer__Pmakeblock4731@PAGEOFF
	mov	x1, x19
	mov	x29, sp
	.cfi_remember_state
	.cfi_def_cfa_register w29
	ldr	x16, [x28, #104]
	mov	sp, x16
	bl	_caml_initialize
	mov	sp, x29
	.cfi_restore_state
	ldurb	w8, [x19, #-8]
	cbz	w8, LBB19_538
; %bb.145:                              ; %L2094
	ldr	x21, [x20, #8]
	tbnz	w21, #0, LBB19_539
; %bb.146:                              ; %L2100
	ldrb	w8, [x21, #8]
	tbz	w8, #0, LBB19_538
; %bb.147:                              ; %L2104
	ldr	x19, [x19]
	ldr	x1, [x19, #8]!
Lloh317:
	adrp	x20, _camlBoyer__Pmakeblock4732@PAGE
Lloh318:
	add	x20, x20, _camlBoyer__Pmakeblock4732@PAGEOFF
	add	x0, x20, #8
	mov	x29, sp
	.cfi_remember_state
	.cfi_def_cfa_register w29
	ldr	x16, [x28, #104]
	mov	sp, x16
	bl	_caml_initialize
	mov	sp, x29
	.cfi_restore_state
	ldr	x1, [x21]
Lloh319:
	adrp	x0, _camlBoyer__Pmakeblock4731@PAGE+8
Lloh320:
	add	x0, x0, _camlBoyer__Pmakeblock4731@PAGEOFF+8
	mov	x29, sp
	.cfi_remember_state
	.cfi_def_cfa_register w29
	ldr	x16, [x28, #104]
	mov	sp, x16
	bl	_caml_initialize
	mov	sp, x29
	.cfi_restore_state
	mov	x0, x19
	mov	x1, x20
	mov	x29, sp
	.cfi_remember_state
	.cfi_def_cfa_register w29
	ldr	x16, [x28, #104]
	mov	sp, x16
	bl	_caml_modify
	mov	sp, x29
	.cfi_restore_state
Lloh321:
	adrp	x0, _camlBoyer__const_block1066@PAGE
Lloh322:
	add	x0, x0, _camlBoyer__const_block1066@PAGEOFF
	bl	_camlBoyer__cterm_to_term_14_35_code
Ltmp90:
	ldurb	w8, [x0, #-8]
	cbz	w8, LBB19_538
; %bb.148:                              ; %L2119
	ldr	x20, [x0, #8]
	tbnz	w20, #0, LBB19_539
; %bb.149:                              ; %L2125
	ldr	x19, [x20]
Lloh323:
	adrp	x0, _camlBoyer__Pmakeblock4764@PAGE
Lloh324:
	add	x0, x0, _camlBoyer__Pmakeblock4764@PAGEOFF
	mov	x1, x19
	mov	x29, sp
	.cfi_remember_state
	.cfi_def_cfa_register w29
	ldr	x16, [x28, #104]
	mov	sp, x16
	bl	_caml_initialize
	mov	sp, x29
	.cfi_restore_state
	ldurb	w8, [x19, #-8]
	cbz	w8, LBB19_538
; %bb.150:                              ; %L2131
	ldr	x21, [x20, #8]
	tbnz	w21, #0, LBB19_539
; %bb.151:                              ; %L2137
	ldrb	w8, [x21, #8]
	tbz	w8, #0, LBB19_538
; %bb.152:                              ; %L2141
	ldr	x19, [x19]
	ldr	x1, [x19, #8]!
Lloh325:
	adrp	x20, _camlBoyer__Pmakeblock4765@PAGE
Lloh326:
	add	x20, x20, _camlBoyer__Pmakeblock4765@PAGEOFF
	add	x0, x20, #8
	mov	x29, sp
	.cfi_remember_state
	.cfi_def_cfa_register w29
	ldr	x16, [x28, #104]
	mov	sp, x16
	bl	_caml_initialize
	mov	sp, x29
	.cfi_restore_state
	ldr	x1, [x21]
Lloh327:
	adrp	x0, _camlBoyer__Pmakeblock4764@PAGE+8
Lloh328:
	add	x0, x0, _camlBoyer__Pmakeblock4764@PAGEOFF+8
	mov	x29, sp
	.cfi_remember_state
	.cfi_def_cfa_register w29
	ldr	x16, [x28, #104]
	mov	sp, x16
	bl	_caml_initialize
	mov	sp, x29
	.cfi_restore_state
	mov	x0, x19
	mov	x1, x20
	mov	x29, sp
	.cfi_remember_state
	.cfi_def_cfa_register w29
	ldr	x16, [x28, #104]
	mov	sp, x16
	bl	_caml_modify
	mov	sp, x29
	.cfi_restore_state
Lloh329:
	adrp	x0, _camlBoyer__const_block1107@PAGE
Lloh330:
	add	x0, x0, _camlBoyer__const_block1107@PAGEOFF
	bl	_camlBoyer__cterm_to_term_14_35_code
Ltmp91:
	ldurb	w8, [x0, #-8]
	cbz	w8, LBB19_538
; %bb.153:                              ; %L2156
	ldr	x20, [x0, #8]
	tbnz	w20, #0, LBB19_539
; %bb.154:                              ; %L2162
	ldr	x19, [x20]
Lloh331:
	adrp	x0, _camlBoyer__Pmakeblock4797@PAGE
Lloh332:
	add	x0, x0, _camlBoyer__Pmakeblock4797@PAGEOFF
	mov	x1, x19
	mov	x29, sp
	.cfi_remember_state
	.cfi_def_cfa_register w29
	ldr	x16, [x28, #104]
	mov	sp, x16
	bl	_caml_initialize
	mov	sp, x29
	.cfi_restore_state
	ldurb	w8, [x19, #-8]
	cbz	w8, LBB19_538
; %bb.155:                              ; %L2168
	ldr	x21, [x20, #8]
	tbnz	w21, #0, LBB19_539
; %bb.156:                              ; %L2174
	ldrb	w8, [x21, #8]
	tbz	w8, #0, LBB19_538
; %bb.157:                              ; %L2178
	ldr	x19, [x19]
	ldr	x1, [x19, #8]!
Lloh333:
	adrp	x20, _camlBoyer__Pmakeblock4798@PAGE
Lloh334:
	add	x20, x20, _camlBoyer__Pmakeblock4798@PAGEOFF
	add	x0, x20, #8
	mov	x29, sp
	.cfi_remember_state
	.cfi_def_cfa_register w29
	ldr	x16, [x28, #104]
	mov	sp, x16
	bl	_caml_initialize
	mov	sp, x29
	.cfi_restore_state
	ldr	x1, [x21]
Lloh335:
	adrp	x0, _camlBoyer__Pmakeblock4797@PAGE+8
Lloh336:
	add	x0, x0, _camlBoyer__Pmakeblock4797@PAGEOFF+8
	mov	x29, sp
	.cfi_remember_state
	.cfi_def_cfa_register w29
	ldr	x16, [x28, #104]
	mov	sp, x16
	bl	_caml_initialize
	mov	sp, x29
	.cfi_restore_state
	mov	x0, x19
	mov	x1, x20
	mov	x29, sp
	.cfi_remember_state
	.cfi_def_cfa_register w29
	ldr	x16, [x28, #104]
	mov	sp, x16
	bl	_caml_modify
	mov	sp, x29
	.cfi_restore_state
Lloh337:
	adrp	x0, _camlBoyer__const_block1134@PAGE
Lloh338:
	add	x0, x0, _camlBoyer__const_block1134@PAGEOFF
	bl	_camlBoyer__cterm_to_term_14_35_code
Ltmp92:
	ldurb	w8, [x0, #-8]
	cbz	w8, LBB19_538
; %bb.158:                              ; %L2193
	ldr	x20, [x0, #8]
	tbnz	w20, #0, LBB19_539
; %bb.159:                              ; %L2199
	ldr	x19, [x20]
Lloh339:
	adrp	x0, _camlBoyer__Pmakeblock4830@PAGE
Lloh340:
	add	x0, x0, _camlBoyer__Pmakeblock4830@PAGEOFF
	mov	x1, x19
	mov	x29, sp
	.cfi_remember_state
	.cfi_def_cfa_register w29
	ldr	x16, [x28, #104]
	mov	sp, x16
	bl	_caml_initialize
	mov	sp, x29
	.cfi_restore_state
	ldurb	w8, [x19, #-8]
	cbz	w8, LBB19_538
; %bb.160:                              ; %L2205
	ldr	x21, [x20, #8]
	tbnz	w21, #0, LBB19_539
; %bb.161:                              ; %L2211
	ldrb	w8, [x21, #8]
	tbz	w8, #0, LBB19_538
; %bb.162:                              ; %L2215
	ldr	x19, [x19]
	ldr	x1, [x19, #8]!
Lloh341:
	adrp	x20, _camlBoyer__Pmakeblock4831@PAGE
Lloh342:
	add	x20, x20, _camlBoyer__Pmakeblock4831@PAGEOFF
	add	x0, x20, #8
	mov	x29, sp
	.cfi_remember_state
	.cfi_def_cfa_register w29
	ldr	x16, [x28, #104]
	mov	sp, x16
	bl	_caml_initialize
	mov	sp, x29
	.cfi_restore_state
	ldr	x1, [x21]
Lloh343:
	adrp	x0, _camlBoyer__Pmakeblock4830@PAGE+8
Lloh344:
	add	x0, x0, _camlBoyer__Pmakeblock4830@PAGEOFF+8
	mov	x29, sp
	.cfi_remember_state
	.cfi_def_cfa_register w29
	ldr	x16, [x28, #104]
	mov	sp, x16
	bl	_caml_initialize
	mov	sp, x29
	.cfi_restore_state
	mov	x0, x19
	mov	x1, x20
	mov	x29, sp
	.cfi_remember_state
	.cfi_def_cfa_register w29
	ldr	x16, [x28, #104]
	mov	sp, x16
	bl	_caml_modify
	mov	sp, x29
	.cfi_restore_state
Lloh345:
	adrp	x0, _camlBoyer__const_block1153@PAGE
Lloh346:
	add	x0, x0, _camlBoyer__const_block1153@PAGEOFF
	bl	_camlBoyer__cterm_to_term_14_35_code
Ltmp93:
	ldurb	w8, [x0, #-8]
	cbz	w8, LBB19_538
; %bb.163:                              ; %L2230
	ldr	x20, [x0, #8]
	tbnz	w20, #0, LBB19_539
; %bb.164:                              ; %L2236
	ldr	x19, [x20]
Lloh347:
	adrp	x0, _camlBoyer__Pmakeblock4863@PAGE
Lloh348:
	add	x0, x0, _camlBoyer__Pmakeblock4863@PAGEOFF
	mov	x1, x19
	mov	x29, sp
	.cfi_remember_state
	.cfi_def_cfa_register w29
	ldr	x16, [x28, #104]
	mov	sp, x16
	bl	_caml_initialize
	mov	sp, x29
	.cfi_restore_state
	ldurb	w8, [x19, #-8]
	cbz	w8, LBB19_538
; %bb.165:                              ; %L2242
	ldr	x21, [x20, #8]
	tbnz	w21, #0, LBB19_539
; %bb.166:                              ; %L2248
	ldrb	w8, [x21, #8]
	tbz	w8, #0, LBB19_538
; %bb.167:                              ; %L2252
	ldr	x19, [x19]
	ldr	x1, [x19, #8]!
Lloh349:
	adrp	x20, _camlBoyer__Pmakeblock4864@PAGE
Lloh350:
	add	x20, x20, _camlBoyer__Pmakeblock4864@PAGEOFF
	add	x0, x20, #8
	mov	x29, sp
	.cfi_remember_state
	.cfi_def_cfa_register w29
	ldr	x16, [x28, #104]
	mov	sp, x16
	bl	_caml_initialize
	mov	sp, x29
	.cfi_restore_state
	ldr	x1, [x21]
Lloh351:
	adrp	x0, _camlBoyer__Pmakeblock4863@PAGE+8
Lloh352:
	add	x0, x0, _camlBoyer__Pmakeblock4863@PAGEOFF+8
	mov	x29, sp
	.cfi_remember_state
	.cfi_def_cfa_register w29
	ldr	x16, [x28, #104]
	mov	sp, x16
	bl	_caml_initialize
	mov	sp, x29
	.cfi_restore_state
	mov	x0, x19
	mov	x1, x20
	mov	x29, sp
	.cfi_remember_state
	.cfi_def_cfa_register w29
	ldr	x16, [x28, #104]
	mov	sp, x16
	bl	_caml_modify
	mov	sp, x29
	.cfi_restore_state
Lloh353:
	adrp	x0, _camlBoyer__const_block1176@PAGE
Lloh354:
	add	x0, x0, _camlBoyer__const_block1176@PAGEOFF
	bl	_camlBoyer__cterm_to_term_14_35_code
Ltmp94:
	ldurb	w8, [x0, #-8]
	cbz	w8, LBB19_538
; %bb.168:                              ; %L2267
	ldr	x20, [x0, #8]
	tbnz	w20, #0, LBB19_539
; %bb.169:                              ; %L2273
	ldr	x19, [x20]
Lloh355:
	adrp	x0, _camlBoyer__Pmakeblock4896@PAGE
Lloh356:
	add	x0, x0, _camlBoyer__Pmakeblock4896@PAGEOFF
	mov	x1, x19
	mov	x29, sp
	.cfi_remember_state
	.cfi_def_cfa_register w29
	ldr	x16, [x28, #104]
	mov	sp, x16
	bl	_caml_initialize
	mov	sp, x29
	.cfi_restore_state
	ldurb	w8, [x19, #-8]
	cbz	w8, LBB19_538
; %bb.170:                              ; %L2279
	ldr	x21, [x20, #8]
	tbnz	w21, #0, LBB19_539
; %bb.171:                              ; %L2285
	ldrb	w8, [x21, #8]
	tbz	w8, #0, LBB19_538
; %bb.172:                              ; %L2289
	ldr	x19, [x19]
	ldr	x1, [x19, #8]!
Lloh357:
	adrp	x20, _camlBoyer__Pmakeblock4897@PAGE
Lloh358:
	add	x20, x20, _camlBoyer__Pmakeblock4897@PAGEOFF
	add	x0, x20, #8
	mov	x29, sp
	.cfi_remember_state
	.cfi_def_cfa_register w29
	ldr	x16, [x28, #104]
	mov	sp, x16
	bl	_caml_initialize
	mov	sp, x29
	.cfi_restore_state
	ldr	x1, [x21]
Lloh359:
	adrp	x0, _camlBoyer__Pmakeblock4896@PAGE+8
Lloh360:
	add	x0, x0, _camlBoyer__Pmakeblock4896@PAGEOFF+8
	mov	x29, sp
	.cfi_remember_state
	.cfi_def_cfa_register w29
	ldr	x16, [x28, #104]
	mov	sp, x16
	bl	_caml_initialize
	mov	sp, x29
	.cfi_restore_state
	mov	x0, x19
	mov	x1, x20
	mov	x29, sp
	.cfi_remember_state
	.cfi_def_cfa_register w29
	ldr	x16, [x28, #104]
	mov	sp, x16
	bl	_caml_modify
	mov	sp, x29
	.cfi_restore_state
Lloh361:
	adrp	x0, _camlBoyer__const_block1199@PAGE
Lloh362:
	add	x0, x0, _camlBoyer__const_block1199@PAGEOFF
	bl	_camlBoyer__cterm_to_term_14_35_code
Ltmp95:
	ldurb	w8, [x0, #-8]
	cbz	w8, LBB19_538
; %bb.173:                              ; %L2304
	ldr	x20, [x0, #8]
	tbnz	w20, #0, LBB19_539
; %bb.174:                              ; %L2310
	ldr	x19, [x20]
Lloh363:
	adrp	x0, _camlBoyer__Pmakeblock4929@PAGE
Lloh364:
	add	x0, x0, _camlBoyer__Pmakeblock4929@PAGEOFF
	mov	x1, x19
	mov	x29, sp
	.cfi_remember_state
	.cfi_def_cfa_register w29
	ldr	x16, [x28, #104]
	mov	sp, x16
	bl	_caml_initialize
	mov	sp, x29
	.cfi_restore_state
	ldurb	w8, [x19, #-8]
	cbz	w8, LBB19_538
; %bb.175:                              ; %L2316
	ldr	x21, [x20, #8]
	tbnz	w21, #0, LBB19_539
; %bb.176:                              ; %L2322
	ldrb	w8, [x21, #8]
	tbz	w8, #0, LBB19_538
; %bb.177:                              ; %L2326
	ldr	x19, [x19]
	ldr	x1, [x19, #8]!
Lloh365:
	adrp	x20, _camlBoyer__Pmakeblock4930@PAGE
Lloh366:
	add	x20, x20, _camlBoyer__Pmakeblock4930@PAGEOFF
	add	x0, x20, #8
	mov	x29, sp
	.cfi_remember_state
	.cfi_def_cfa_register w29
	ldr	x16, [x28, #104]
	mov	sp, x16
	bl	_caml_initialize
	mov	sp, x29
	.cfi_restore_state
	ldr	x1, [x21]
Lloh367:
	adrp	x0, _camlBoyer__Pmakeblock4929@PAGE+8
Lloh368:
	add	x0, x0, _camlBoyer__Pmakeblock4929@PAGEOFF+8
	mov	x29, sp
	.cfi_remember_state
	.cfi_def_cfa_register w29
	ldr	x16, [x28, #104]
	mov	sp, x16
	bl	_caml_initialize
	mov	sp, x29
	.cfi_restore_state
	mov	x0, x19
	mov	x1, x20
	mov	x29, sp
	.cfi_remember_state
	.cfi_def_cfa_register w29
	ldr	x16, [x28, #104]
	mov	sp, x16
	bl	_caml_modify
	mov	sp, x29
	.cfi_restore_state
Lloh369:
	adrp	x0, _camlBoyer__const_block1218@PAGE
Lloh370:
	add	x0, x0, _camlBoyer__const_block1218@PAGEOFF
	bl	_camlBoyer__cterm_to_term_14_35_code
Ltmp96:
	ldurb	w8, [x0, #-8]
	cbz	w8, LBB19_538
; %bb.178:                              ; %L2341
	ldr	x20, [x0, #8]
	tbnz	w20, #0, LBB19_539
; %bb.179:                              ; %L2347
	ldr	x19, [x20]
Lloh371:
	adrp	x0, _camlBoyer__Pmakeblock4962@PAGE
Lloh372:
	add	x0, x0, _camlBoyer__Pmakeblock4962@PAGEOFF
	mov	x1, x19
	mov	x29, sp
	.cfi_remember_state
	.cfi_def_cfa_register w29
	ldr	x16, [x28, #104]
	mov	sp, x16
	bl	_caml_initialize
	mov	sp, x29
	.cfi_restore_state
	ldurb	w8, [x19, #-8]
	cbz	w8, LBB19_538
; %bb.180:                              ; %L2353
	ldr	x21, [x20, #8]
	tbnz	w21, #0, LBB19_539
; %bb.181:                              ; %L2359
	ldrb	w8, [x21, #8]
	tbz	w8, #0, LBB19_538
; %bb.182:                              ; %L2363
	ldr	x19, [x19]
	ldr	x1, [x19, #8]!
Lloh373:
	adrp	x20, _camlBoyer__Pmakeblock4963@PAGE
Lloh374:
	add	x20, x20, _camlBoyer__Pmakeblock4963@PAGEOFF
	add	x0, x20, #8
	mov	x29, sp
	.cfi_remember_state
	.cfi_def_cfa_register w29
	ldr	x16, [x28, #104]
	mov	sp, x16
	bl	_caml_initialize
	mov	sp, x29
	.cfi_restore_state
	ldr	x1, [x21]
Lloh375:
	adrp	x0, _camlBoyer__Pmakeblock4962@PAGE+8
Lloh376:
	add	x0, x0, _camlBoyer__Pmakeblock4962@PAGEOFF+8
	mov	x29, sp
	.cfi_remember_state
	.cfi_def_cfa_register w29
	ldr	x16, [x28, #104]
	mov	sp, x16
	bl	_caml_initialize
	mov	sp, x29
	.cfi_restore_state
	mov	x0, x19
	mov	x1, x20
	mov	x29, sp
	.cfi_remember_state
	.cfi_def_cfa_register w29
	ldr	x16, [x28, #104]
	mov	sp, x16
	bl	_caml_modify
	mov	sp, x29
	.cfi_restore_state
Lloh377:
	adrp	x0, _camlBoyer__const_block1233@PAGE
Lloh378:
	add	x0, x0, _camlBoyer__const_block1233@PAGEOFF
	bl	_camlBoyer__cterm_to_term_14_35_code
Ltmp97:
	ldurb	w8, [x0, #-8]
	cbz	w8, LBB19_538
; %bb.183:                              ; %L2378
	ldr	x20, [x0, #8]
	tbnz	w20, #0, LBB19_539
; %bb.184:                              ; %L2384
	ldr	x19, [x20]
Lloh379:
	adrp	x0, _camlBoyer__Pmakeblock4995@PAGE
Lloh380:
	add	x0, x0, _camlBoyer__Pmakeblock4995@PAGEOFF
	mov	x1, x19
	mov	x29, sp
	.cfi_remember_state
	.cfi_def_cfa_register w29
	ldr	x16, [x28, #104]
	mov	sp, x16
	bl	_caml_initialize
	mov	sp, x29
	.cfi_restore_state
	ldurb	w8, [x19, #-8]
	cbz	w8, LBB19_538
; %bb.185:                              ; %L2390
	ldr	x21, [x20, #8]
	tbnz	w21, #0, LBB19_539
; %bb.186:                              ; %L2396
	ldrb	w8, [x21, #8]
	tbz	w8, #0, LBB19_538
; %bb.187:                              ; %L2400
	ldr	x19, [x19]
	ldr	x1, [x19, #8]!
Lloh381:
	adrp	x20, _camlBoyer__Pmakeblock4996@PAGE
Lloh382:
	add	x20, x20, _camlBoyer__Pmakeblock4996@PAGEOFF
	add	x0, x20, #8
	mov	x29, sp
	.cfi_remember_state
	.cfi_def_cfa_register w29
	ldr	x16, [x28, #104]
	mov	sp, x16
	bl	_caml_initialize
	mov	sp, x29
	.cfi_restore_state
	ldr	x1, [x21]
Lloh383:
	adrp	x0, _camlBoyer__Pmakeblock4995@PAGE+8
Lloh384:
	add	x0, x0, _camlBoyer__Pmakeblock4995@PAGEOFF+8
	mov	x29, sp
	.cfi_remember_state
	.cfi_def_cfa_register w29
	ldr	x16, [x28, #104]
	mov	sp, x16
	bl	_caml_initialize
	mov	sp, x29
	.cfi_restore_state
	mov	x0, x19
	mov	x1, x20
	mov	x29, sp
	.cfi_remember_state
	.cfi_def_cfa_register w29
	ldr	x16, [x28, #104]
	mov	sp, x16
	bl	_caml_modify
	mov	sp, x29
	.cfi_restore_state
Lloh385:
	adrp	x0, _camlBoyer__const_block1258@PAGE
Lloh386:
	add	x0, x0, _camlBoyer__const_block1258@PAGEOFF
	bl	_camlBoyer__cterm_to_term_14_35_code
Ltmp98:
	ldurb	w8, [x0, #-8]
	cbz	w8, LBB19_538
; %bb.188:                              ; %L2415
	ldr	x20, [x0, #8]
	tbnz	w20, #0, LBB19_539
; %bb.189:                              ; %L2421
	ldr	x19, [x20]
Lloh387:
	adrp	x0, _camlBoyer__Pmakeblock5028@PAGE
Lloh388:
	add	x0, x0, _camlBoyer__Pmakeblock5028@PAGEOFF
	mov	x1, x19
	mov	x29, sp
	.cfi_remember_state
	.cfi_def_cfa_register w29
	ldr	x16, [x28, #104]
	mov	sp, x16
	bl	_caml_initialize
	mov	sp, x29
	.cfi_restore_state
	ldurb	w8, [x19, #-8]
	cbz	w8, LBB19_538
; %bb.190:                              ; %L2427
	ldr	x21, [x20, #8]
	tbnz	w21, #0, LBB19_539
; %bb.191:                              ; %L2433
	ldrb	w8, [x21, #8]
	tbz	w8, #0, LBB19_538
; %bb.192:                              ; %L2437
	ldr	x19, [x19]
	ldr	x1, [x19, #8]!
Lloh389:
	adrp	x20, _camlBoyer__Pmakeblock5029@PAGE
Lloh390:
	add	x20, x20, _camlBoyer__Pmakeblock5029@PAGEOFF
	add	x0, x20, #8
	mov	x29, sp
	.cfi_remember_state
	.cfi_def_cfa_register w29
	ldr	x16, [x28, #104]
	mov	sp, x16
	bl	_caml_initialize
	mov	sp, x29
	.cfi_restore_state
	ldr	x1, [x21]
Lloh391:
	adrp	x0, _camlBoyer__Pmakeblock5028@PAGE+8
Lloh392:
	add	x0, x0, _camlBoyer__Pmakeblock5028@PAGEOFF+8
	mov	x29, sp
	.cfi_remember_state
	.cfi_def_cfa_register w29
	ldr	x16, [x28, #104]
	mov	sp, x16
	bl	_caml_initialize
	mov	sp, x29
	.cfi_restore_state
	mov	x0, x19
	mov	x1, x20
	mov	x29, sp
	.cfi_remember_state
	.cfi_def_cfa_register w29
	ldr	x16, [x28, #104]
	mov	sp, x16
	bl	_caml_modify
	mov	sp, x29
	.cfi_restore_state
Lloh393:
	adrp	x0, _camlBoyer__const_block1277@PAGE
Lloh394:
	add	x0, x0, _camlBoyer__const_block1277@PAGEOFF
	bl	_camlBoyer__cterm_to_term_14_35_code
Ltmp99:
	ldurb	w8, [x0, #-8]
	cbz	w8, LBB19_538
; %bb.193:                              ; %L2452
	ldr	x20, [x0, #8]
	tbnz	w20, #0, LBB19_539
; %bb.194:                              ; %L2458
	ldr	x19, [x20]
Lloh395:
	adrp	x0, _camlBoyer__Pmakeblock5061@PAGE
Lloh396:
	add	x0, x0, _camlBoyer__Pmakeblock5061@PAGEOFF
	mov	x1, x19
	mov	x29, sp
	.cfi_remember_state
	.cfi_def_cfa_register w29
	ldr	x16, [x28, #104]
	mov	sp, x16
	bl	_caml_initialize
	mov	sp, x29
	.cfi_restore_state
	ldurb	w8, [x19, #-8]
	cbz	w8, LBB19_538
; %bb.195:                              ; %L2464
	ldr	x21, [x20, #8]
	tbnz	w21, #0, LBB19_539
; %bb.196:                              ; %L2470
	ldrb	w8, [x21, #8]
	tbz	w8, #0, LBB19_538
; %bb.197:                              ; %L2474
	ldr	x19, [x19]
	ldr	x1, [x19, #8]!
Lloh397:
	adrp	x20, _camlBoyer__Pmakeblock5062@PAGE
Lloh398:
	add	x20, x20, _camlBoyer__Pmakeblock5062@PAGEOFF
	add	x0, x20, #8
	mov	x29, sp
	.cfi_remember_state
	.cfi_def_cfa_register w29
	ldr	x16, [x28, #104]
	mov	sp, x16
	bl	_caml_initialize
	mov	sp, x29
	.cfi_restore_state
	ldr	x1, [x21]
Lloh399:
	adrp	x0, _camlBoyer__Pmakeblock5061@PAGE+8
Lloh400:
	add	x0, x0, _camlBoyer__Pmakeblock5061@PAGEOFF+8
	mov	x29, sp
	.cfi_remember_state
	.cfi_def_cfa_register w29
	ldr	x16, [x28, #104]
	mov	sp, x16
	bl	_caml_initialize
	mov	sp, x29
	.cfi_restore_state
	mov	x0, x19
	mov	x1, x20
	mov	x29, sp
	.cfi_remember_state
	.cfi_def_cfa_register w29
	ldr	x16, [x28, #104]
	mov	sp, x16
	bl	_caml_modify
	mov	sp, x29
	.cfi_restore_state
Lloh401:
	adrp	x0, _camlBoyer__const_block1302@PAGE
Lloh402:
	add	x0, x0, _camlBoyer__const_block1302@PAGEOFF
	bl	_camlBoyer__cterm_to_term_14_35_code
Ltmp100:
	ldurb	w8, [x0, #-8]
	cbz	w8, LBB19_538
; %bb.198:                              ; %L2489
	ldr	x20, [x0, #8]
	tbnz	w20, #0, LBB19_539
; %bb.199:                              ; %L2495
	ldr	x19, [x20]
Lloh403:
	adrp	x0, _camlBoyer__Pmakeblock5094@PAGE
Lloh404:
	add	x0, x0, _camlBoyer__Pmakeblock5094@PAGEOFF
	mov	x1, x19
	mov	x29, sp
	.cfi_remember_state
	.cfi_def_cfa_register w29
	ldr	x16, [x28, #104]
	mov	sp, x16
	bl	_caml_initialize
	mov	sp, x29
	.cfi_restore_state
	ldurb	w8, [x19, #-8]
	cbz	w8, LBB19_538
; %bb.200:                              ; %L2501
	ldr	x21, [x20, #8]
	tbnz	w21, #0, LBB19_539
; %bb.201:                              ; %L2507
	ldrb	w8, [x21, #8]
	tbz	w8, #0, LBB19_538
; %bb.202:                              ; %L2511
	ldr	x19, [x19]
	ldr	x1, [x19, #8]!
Lloh405:
	adrp	x20, _camlBoyer__Pmakeblock5095@PAGE
Lloh406:
	add	x20, x20, _camlBoyer__Pmakeblock5095@PAGEOFF
	add	x0, x20, #8
	mov	x29, sp
	.cfi_remember_state
	.cfi_def_cfa_register w29
	ldr	x16, [x28, #104]
	mov	sp, x16
	bl	_caml_initialize
	mov	sp, x29
	.cfi_restore_state
	ldr	x1, [x21]
Lloh407:
	adrp	x0, _camlBoyer__Pmakeblock5094@PAGE+8
Lloh408:
	add	x0, x0, _camlBoyer__Pmakeblock5094@PAGEOFF+8
	mov	x29, sp
	.cfi_remember_state
	.cfi_def_cfa_register w29
	ldr	x16, [x28, #104]
	mov	sp, x16
	bl	_caml_initialize
	mov	sp, x29
	.cfi_restore_state
	mov	x0, x19
	mov	x1, x20
	mov	x29, sp
	.cfi_remember_state
	.cfi_def_cfa_register w29
	ldr	x16, [x28, #104]
	mov	sp, x16
	bl	_caml_modify
	mov	sp, x29
	.cfi_restore_state
Lloh409:
	adrp	x0, _camlBoyer__const_block1319@PAGE
Lloh410:
	add	x0, x0, _camlBoyer__const_block1319@PAGEOFF
	bl	_camlBoyer__cterm_to_term_14_35_code
Ltmp101:
	ldurb	w8, [x0, #-8]
	cbz	w8, LBB19_538
; %bb.203:                              ; %L2526
	ldr	x20, [x0, #8]
	tbnz	w20, #0, LBB19_539
; %bb.204:                              ; %L2532
	ldr	x19, [x20]
Lloh411:
	adrp	x0, _camlBoyer__Pmakeblock5127@PAGE
Lloh412:
	add	x0, x0, _camlBoyer__Pmakeblock5127@PAGEOFF
	mov	x1, x19
	mov	x29, sp
	.cfi_remember_state
	.cfi_def_cfa_register w29
	ldr	x16, [x28, #104]
	mov	sp, x16
	bl	_caml_initialize
	mov	sp, x29
	.cfi_restore_state
	ldurb	w8, [x19, #-8]
	cbz	w8, LBB19_538
; %bb.205:                              ; %L2538
	ldr	x21, [x20, #8]
	tbnz	w21, #0, LBB19_539
; %bb.206:                              ; %L2544
	ldrb	w8, [x21, #8]
	tbz	w8, #0, LBB19_538
; %bb.207:                              ; %L2548
	ldr	x19, [x19]
	ldr	x1, [x19, #8]!
Lloh413:
	adrp	x20, _camlBoyer__Pmakeblock5128@PAGE
Lloh414:
	add	x20, x20, _camlBoyer__Pmakeblock5128@PAGEOFF
	add	x0, x20, #8
	mov	x29, sp
	.cfi_remember_state
	.cfi_def_cfa_register w29
	ldr	x16, [x28, #104]
	mov	sp, x16
	bl	_caml_initialize
	mov	sp, x29
	.cfi_restore_state
	ldr	x1, [x21]
Lloh415:
	adrp	x0, _camlBoyer__Pmakeblock5127@PAGE+8
Lloh416:
	add	x0, x0, _camlBoyer__Pmakeblock5127@PAGEOFF+8
	mov	x29, sp
	.cfi_remember_state
	.cfi_def_cfa_register w29
	ldr	x16, [x28, #104]
	mov	sp, x16
	bl	_caml_initialize
	mov	sp, x29
	.cfi_restore_state
	mov	x0, x19
	mov	x1, x20
	mov	x29, sp
	.cfi_remember_state
	.cfi_def_cfa_register w29
	ldr	x16, [x28, #104]
	mov	sp, x16
	bl	_caml_modify
	mov	sp, x29
	.cfi_restore_state
Lloh417:
	adrp	x0, _camlBoyer__const_block1336@PAGE
Lloh418:
	add	x0, x0, _camlBoyer__const_block1336@PAGEOFF
	bl	_camlBoyer__cterm_to_term_14_35_code
Ltmp102:
	ldurb	w8, [x0, #-8]
	cbz	w8, LBB19_538
; %bb.208:                              ; %L2563
	ldr	x20, [x0, #8]
	tbnz	w20, #0, LBB19_539
; %bb.209:                              ; %L2569
	ldr	x19, [x20]
Lloh419:
	adrp	x0, _camlBoyer__Pmakeblock5160@PAGE
Lloh420:
	add	x0, x0, _camlBoyer__Pmakeblock5160@PAGEOFF
	mov	x1, x19
	mov	x29, sp
	.cfi_remember_state
	.cfi_def_cfa_register w29
	ldr	x16, [x28, #104]
	mov	sp, x16
	bl	_caml_initialize
	mov	sp, x29
	.cfi_restore_state
	ldurb	w8, [x19, #-8]
	cbz	w8, LBB19_538
; %bb.210:                              ; %L2575
	ldr	x21, [x20, #8]
	tbnz	w21, #0, LBB19_539
; %bb.211:                              ; %L2581
	ldrb	w8, [x21, #8]
	tbz	w8, #0, LBB19_538
; %bb.212:                              ; %L2585
	ldr	x19, [x19]
	ldr	x1, [x19, #8]!
Lloh421:
	adrp	x20, _camlBoyer__Pmakeblock5161@PAGE
Lloh422:
	add	x20, x20, _camlBoyer__Pmakeblock5161@PAGEOFF
	add	x0, x20, #8
	mov	x29, sp
	.cfi_remember_state
	.cfi_def_cfa_register w29
	ldr	x16, [x28, #104]
	mov	sp, x16
	bl	_caml_initialize
	mov	sp, x29
	.cfi_restore_state
	ldr	x1, [x21]
Lloh423:
	adrp	x0, _camlBoyer__Pmakeblock5160@PAGE+8
Lloh424:
	add	x0, x0, _camlBoyer__Pmakeblock5160@PAGEOFF+8
	mov	x29, sp
	.cfi_remember_state
	.cfi_def_cfa_register w29
	ldr	x16, [x28, #104]
	mov	sp, x16
	bl	_caml_initialize
	mov	sp, x29
	.cfi_restore_state
	mov	x0, x19
	mov	x1, x20
	mov	x29, sp
	.cfi_remember_state
	.cfi_def_cfa_register w29
	ldr	x16, [x28, #104]
	mov	sp, x16
	bl	_caml_modify
	mov	sp, x29
	.cfi_restore_state
Lloh425:
	adrp	x0, _camlBoyer__const_block1363@PAGE
Lloh426:
	add	x0, x0, _camlBoyer__const_block1363@PAGEOFF
	bl	_camlBoyer__cterm_to_term_14_35_code
Ltmp103:
	ldurb	w8, [x0, #-8]
	cbz	w8, LBB19_538
; %bb.213:                              ; %L2600
	ldr	x20, [x0, #8]
	tbnz	w20, #0, LBB19_539
; %bb.214:                              ; %L2606
	ldr	x19, [x20]
Lloh427:
	adrp	x0, _camlBoyer__Pmakeblock5193@PAGE
Lloh428:
	add	x0, x0, _camlBoyer__Pmakeblock5193@PAGEOFF
	mov	x1, x19
	mov	x29, sp
	.cfi_remember_state
	.cfi_def_cfa_register w29
	ldr	x16, [x28, #104]
	mov	sp, x16
	bl	_caml_initialize
	mov	sp, x29
	.cfi_restore_state
	ldurb	w8, [x19, #-8]
	cbz	w8, LBB19_538
; %bb.215:                              ; %L2612
	ldr	x21, [x20, #8]
	tbnz	w21, #0, LBB19_539
; %bb.216:                              ; %L2618
	ldrb	w8, [x21, #8]
	tbz	w8, #0, LBB19_538
; %bb.217:                              ; %L2622
	ldr	x19, [x19]
	ldr	x1, [x19, #8]!
Lloh429:
	adrp	x20, _camlBoyer__Pmakeblock5194@PAGE
Lloh430:
	add	x20, x20, _camlBoyer__Pmakeblock5194@PAGEOFF
	add	x0, x20, #8
	mov	x29, sp
	.cfi_remember_state
	.cfi_def_cfa_register w29
	ldr	x16, [x28, #104]
	mov	sp, x16
	bl	_caml_initialize
	mov	sp, x29
	.cfi_restore_state
	ldr	x1, [x21]
Lloh431:
	adrp	x0, _camlBoyer__Pmakeblock5193@PAGE+8
Lloh432:
	add	x0, x0, _camlBoyer__Pmakeblock5193@PAGEOFF+8
	mov	x29, sp
	.cfi_remember_state
	.cfi_def_cfa_register w29
	ldr	x16, [x28, #104]
	mov	sp, x16
	bl	_caml_initialize
	mov	sp, x29
	.cfi_restore_state
	mov	x0, x19
	mov	x1, x20
	mov	x29, sp
	.cfi_remember_state
	.cfi_def_cfa_register w29
	ldr	x16, [x28, #104]
	mov	sp, x16
	bl	_caml_modify
	mov	sp, x29
	.cfi_restore_state
Lloh433:
	adrp	x0, _camlBoyer__const_block1374@PAGE
Lloh434:
	add	x0, x0, _camlBoyer__const_block1374@PAGEOFF
	bl	_camlBoyer__cterm_to_term_14_35_code
Ltmp104:
	ldurb	w8, [x0, #-8]
	cbz	w8, LBB19_538
; %bb.218:                              ; %L2637
	ldr	x20, [x0, #8]
	tbnz	w20, #0, LBB19_539
; %bb.219:                              ; %L2643
	ldr	x19, [x20]
Lloh435:
	adrp	x0, _camlBoyer__Pmakeblock5226@PAGE
Lloh436:
	add	x0, x0, _camlBoyer__Pmakeblock5226@PAGEOFF
	mov	x1, x19
	mov	x29, sp
	.cfi_remember_state
	.cfi_def_cfa_register w29
	ldr	x16, [x28, #104]
	mov	sp, x16
	bl	_caml_initialize
	mov	sp, x29
	.cfi_restore_state
	ldurb	w8, [x19, #-8]
	cbz	w8, LBB19_538
; %bb.220:                              ; %L2649
	ldr	x21, [x20, #8]
	tbnz	w21, #0, LBB19_539
; %bb.221:                              ; %L2655
	ldrb	w8, [x21, #8]
	tbz	w8, #0, LBB19_538
; %bb.222:                              ; %L2659
	ldr	x19, [x19]
	ldr	x1, [x19, #8]!
Lloh437:
	adrp	x20, _camlBoyer__Pmakeblock5227@PAGE
Lloh438:
	add	x20, x20, _camlBoyer__Pmakeblock5227@PAGEOFF
	add	x0, x20, #8
	mov	x29, sp
	.cfi_remember_state
	.cfi_def_cfa_register w29
	ldr	x16, [x28, #104]
	mov	sp, x16
	bl	_caml_initialize
	mov	sp, x29
	.cfi_restore_state
	ldr	x1, [x21]
Lloh439:
	adrp	x0, _camlBoyer__Pmakeblock5226@PAGE+8
Lloh440:
	add	x0, x0, _camlBoyer__Pmakeblock5226@PAGEOFF+8
	mov	x29, sp
	.cfi_remember_state
	.cfi_def_cfa_register w29
	ldr	x16, [x28, #104]
	mov	sp, x16
	bl	_caml_initialize
	mov	sp, x29
	.cfi_restore_state
	mov	x0, x19
	mov	x1, x20
	mov	x29, sp
	.cfi_remember_state
	.cfi_def_cfa_register w29
	ldr	x16, [x28, #104]
	mov	sp, x16
	bl	_caml_modify
	mov	sp, x29
	.cfi_restore_state
Lloh441:
	adrp	x0, _camlBoyer__const_block1415@PAGE
Lloh442:
	add	x0, x0, _camlBoyer__const_block1415@PAGEOFF
	bl	_camlBoyer__cterm_to_term_14_35_code
Ltmp105:
	ldurb	w8, [x0, #-8]
	cbz	w8, LBB19_538
; %bb.223:                              ; %L2674
	ldr	x20, [x0, #8]
	tbnz	w20, #0, LBB19_539
; %bb.224:                              ; %L2680
	ldr	x19, [x20]
Lloh443:
	adrp	x0, _camlBoyer__Pmakeblock5259@PAGE
Lloh444:
	add	x0, x0, _camlBoyer__Pmakeblock5259@PAGEOFF
	mov	x1, x19
	mov	x29, sp
	.cfi_remember_state
	.cfi_def_cfa_register w29
	ldr	x16, [x28, #104]
	mov	sp, x16
	bl	_caml_initialize
	mov	sp, x29
	.cfi_restore_state
	ldurb	w8, [x19, #-8]
	cbz	w8, LBB19_538
; %bb.225:                              ; %L2686
	ldr	x21, [x20, #8]
	tbnz	w21, #0, LBB19_539
; %bb.226:                              ; %L2692
	ldrb	w8, [x21, #8]
	tbz	w8, #0, LBB19_538
; %bb.227:                              ; %L2696
	ldr	x19, [x19]
	ldr	x1, [x19, #8]!
Lloh445:
	adrp	x20, _camlBoyer__Pmakeblock5260@PAGE
Lloh446:
	add	x20, x20, _camlBoyer__Pmakeblock5260@PAGEOFF
	add	x0, x20, #8
	mov	x29, sp
	.cfi_remember_state
	.cfi_def_cfa_register w29
	ldr	x16, [x28, #104]
	mov	sp, x16
	bl	_caml_initialize
	mov	sp, x29
	.cfi_restore_state
	ldr	x1, [x21]
Lloh447:
	adrp	x0, _camlBoyer__Pmakeblock5259@PAGE+8
Lloh448:
	add	x0, x0, _camlBoyer__Pmakeblock5259@PAGEOFF+8
	mov	x29, sp
	.cfi_remember_state
	.cfi_def_cfa_register w29
	ldr	x16, [x28, #104]
	mov	sp, x16
	bl	_caml_initialize
	mov	sp, x29
	.cfi_restore_state
	mov	x0, x19
	mov	x1, x20
	mov	x29, sp
	.cfi_remember_state
	.cfi_def_cfa_register w29
	ldr	x16, [x28, #104]
	mov	sp, x16
	bl	_caml_modify
	mov	sp, x29
	.cfi_restore_state
Lloh449:
	adrp	x0, _camlBoyer__const_block1434@PAGE
Lloh450:
	add	x0, x0, _camlBoyer__const_block1434@PAGEOFF
	bl	_camlBoyer__cterm_to_term_14_35_code
Ltmp106:
	ldurb	w8, [x0, #-8]
	cbz	w8, LBB19_538
; %bb.228:                              ; %L2711
	ldr	x20, [x0, #8]
	tbnz	w20, #0, LBB19_539
; %bb.229:                              ; %L2717
	ldr	x19, [x20]
Lloh451:
	adrp	x0, _camlBoyer__Pmakeblock5292@PAGE
Lloh452:
	add	x0, x0, _camlBoyer__Pmakeblock5292@PAGEOFF
	mov	x1, x19
	mov	x29, sp
	.cfi_remember_state
	.cfi_def_cfa_register w29
	ldr	x16, [x28, #104]
	mov	sp, x16
	bl	_caml_initialize
	mov	sp, x29
	.cfi_restore_state
	ldurb	w8, [x19, #-8]
	cbz	w8, LBB19_538
; %bb.230:                              ; %L2723
	ldr	x21, [x20, #8]
	tbnz	w21, #0, LBB19_539
; %bb.231:                              ; %L2729
	ldrb	w8, [x21, #8]
	tbz	w8, #0, LBB19_538
; %bb.232:                              ; %L2733
	ldr	x19, [x19]
	ldr	x1, [x19, #8]!
Lloh453:
	adrp	x20, _camlBoyer__Pmakeblock5293@PAGE
Lloh454:
	add	x20, x20, _camlBoyer__Pmakeblock5293@PAGEOFF
	add	x0, x20, #8
	mov	x29, sp
	.cfi_remember_state
	.cfi_def_cfa_register w29
	ldr	x16, [x28, #104]
	mov	sp, x16
	bl	_caml_initialize
	mov	sp, x29
	.cfi_restore_state
	ldr	x1, [x21]
Lloh455:
	adrp	x0, _camlBoyer__Pmakeblock5292@PAGE+8
Lloh456:
	add	x0, x0, _camlBoyer__Pmakeblock5292@PAGEOFF+8
	mov	x29, sp
	.cfi_remember_state
	.cfi_def_cfa_register w29
	ldr	x16, [x28, #104]
	mov	sp, x16
	bl	_caml_initialize
	mov	sp, x29
	.cfi_restore_state
	mov	x0, x19
	mov	x1, x20
	mov	x29, sp
	.cfi_remember_state
	.cfi_def_cfa_register w29
	ldr	x16, [x28, #104]
	mov	sp, x16
	bl	_caml_modify
	mov	sp, x29
	.cfi_restore_state
Lloh457:
	adrp	x0, _camlBoyer__const_block1447@PAGE
Lloh458:
	add	x0, x0, _camlBoyer__const_block1447@PAGEOFF
	bl	_camlBoyer__cterm_to_term_14_35_code
Ltmp107:
	ldurb	w8, [x0, #-8]
	cbz	w8, LBB19_538
; %bb.233:                              ; %L2748
	ldr	x20, [x0, #8]
	tbnz	w20, #0, LBB19_539
; %bb.234:                              ; %L2754
	ldr	x19, [x20]
Lloh459:
	adrp	x0, _camlBoyer__Pmakeblock5325@PAGE
Lloh460:
	add	x0, x0, _camlBoyer__Pmakeblock5325@PAGEOFF
	mov	x1, x19
	mov	x29, sp
	.cfi_remember_state
	.cfi_def_cfa_register w29
	ldr	x16, [x28, #104]
	mov	sp, x16
	bl	_caml_initialize
	mov	sp, x29
	.cfi_restore_state
	ldurb	w8, [x19, #-8]
	cbz	w8, LBB19_538
; %bb.235:                              ; %L2760
	ldr	x21, [x20, #8]
	tbnz	w21, #0, LBB19_539
; %bb.236:                              ; %L2766
	ldrb	w8, [x21, #8]
	tbz	w8, #0, LBB19_538
; %bb.237:                              ; %L2770
	ldr	x19, [x19]
	ldr	x1, [x19, #8]!
Lloh461:
	adrp	x20, _camlBoyer__Pmakeblock5326@PAGE
Lloh462:
	add	x20, x20, _camlBoyer__Pmakeblock5326@PAGEOFF
	add	x0, x20, #8
	mov	x29, sp
	.cfi_remember_state
	.cfi_def_cfa_register w29
	ldr	x16, [x28, #104]
	mov	sp, x16
	bl	_caml_initialize
	mov	sp, x29
	.cfi_restore_state
	ldr	x1, [x21]
Lloh463:
	adrp	x0, _camlBoyer__Pmakeblock5325@PAGE+8
Lloh464:
	add	x0, x0, _camlBoyer__Pmakeblock5325@PAGEOFF+8
	mov	x29, sp
	.cfi_remember_state
	.cfi_def_cfa_register w29
	ldr	x16, [x28, #104]
	mov	sp, x16
	bl	_caml_initialize
	mov	sp, x29
	.cfi_restore_state
	mov	x0, x19
	mov	x1, x20
	mov	x29, sp
	.cfi_remember_state
	.cfi_def_cfa_register w29
	ldr	x16, [x28, #104]
	mov	sp, x16
	bl	_caml_modify
	mov	sp, x29
	.cfi_restore_state
Lloh465:
	adrp	x0, _camlBoyer__const_block1452@PAGE
Lloh466:
	add	x0, x0, _camlBoyer__const_block1452@PAGEOFF
	bl	_camlBoyer__cterm_to_term_14_35_code
Ltmp108:
	ldurb	w8, [x0, #-8]
	cbz	w8, LBB19_538
; %bb.238:                              ; %L2785
	ldr	x20, [x0, #8]
	tbnz	w20, #0, LBB19_539
; %bb.239:                              ; %L2791
	ldr	x19, [x20]
Lloh467:
	adrp	x0, _camlBoyer__Pmakeblock5358@PAGE
Lloh468:
	add	x0, x0, _camlBoyer__Pmakeblock5358@PAGEOFF
	mov	x1, x19
	mov	x29, sp
	.cfi_remember_state
	.cfi_def_cfa_register w29
	ldr	x16, [x28, #104]
	mov	sp, x16
	bl	_caml_initialize
	mov	sp, x29
	.cfi_restore_state
	ldurb	w8, [x19, #-8]
	cbz	w8, LBB19_538
; %bb.240:                              ; %L2797
	ldr	x21, [x20, #8]
	tbnz	w21, #0, LBB19_539
; %bb.241:                              ; %L2803
	ldrb	w8, [x21, #8]
	tbz	w8, #0, LBB19_538
; %bb.242:                              ; %L2807
	ldr	x19, [x19]
	ldr	x1, [x19, #8]!
Lloh469:
	adrp	x20, _camlBoyer__Pmakeblock5359@PAGE
Lloh470:
	add	x20, x20, _camlBoyer__Pmakeblock5359@PAGEOFF
	add	x0, x20, #8
	mov	x29, sp
	.cfi_remember_state
	.cfi_def_cfa_register w29
	ldr	x16, [x28, #104]
	mov	sp, x16
	bl	_caml_initialize
	mov	sp, x29
	.cfi_restore_state
	ldr	x1, [x21]
Lloh471:
	adrp	x0, _camlBoyer__Pmakeblock5358@PAGE+8
Lloh472:
	add	x0, x0, _camlBoyer__Pmakeblock5358@PAGEOFF+8
	mov	x29, sp
	.cfi_remember_state
	.cfi_def_cfa_register w29
	ldr	x16, [x28, #104]
	mov	sp, x16
	bl	_caml_initialize
	mov	sp, x29
	.cfi_restore_state
	mov	x0, x19
	mov	x1, x20
	mov	x29, sp
	.cfi_remember_state
	.cfi_def_cfa_register w29
	ldr	x16, [x28, #104]
	mov	sp, x16
	bl	_caml_modify
	mov	sp, x29
	.cfi_restore_state
Lloh473:
	adrp	x0, _camlBoyer__const_block1485@PAGE
Lloh474:
	add	x0, x0, _camlBoyer__const_block1485@PAGEOFF
	bl	_camlBoyer__cterm_to_term_14_35_code
Ltmp109:
	ldurb	w8, [x0, #-8]
	cbz	w8, LBB19_538
; %bb.243:                              ; %L2822
	ldr	x20, [x0, #8]
	tbnz	w20, #0, LBB19_539
; %bb.244:                              ; %L2828
	ldr	x19, [x20]
Lloh475:
	adrp	x0, _camlBoyer__Pmakeblock5391@PAGE
Lloh476:
	add	x0, x0, _camlBoyer__Pmakeblock5391@PAGEOFF
	mov	x1, x19
	mov	x29, sp
	.cfi_remember_state
	.cfi_def_cfa_register w29
	ldr	x16, [x28, #104]
	mov	sp, x16
	bl	_caml_initialize
	mov	sp, x29
	.cfi_restore_state
	ldurb	w8, [x19, #-8]
	cbz	w8, LBB19_538
; %bb.245:                              ; %L2834
	ldr	x21, [x20, #8]
	tbnz	w21, #0, LBB19_539
; %bb.246:                              ; %L2840
	ldrb	w8, [x21, #8]
	tbz	w8, #0, LBB19_538
; %bb.247:                              ; %L2844
	ldr	x19, [x19]
	ldr	x1, [x19, #8]!
Lloh477:
	adrp	x20, _camlBoyer__Pmakeblock5392@PAGE
Lloh478:
	add	x20, x20, _camlBoyer__Pmakeblock5392@PAGEOFF
	add	x0, x20, #8
	mov	x29, sp
	.cfi_remember_state
	.cfi_def_cfa_register w29
	ldr	x16, [x28, #104]
	mov	sp, x16
	bl	_caml_initialize
	mov	sp, x29
	.cfi_restore_state
	ldr	x1, [x21]
Lloh479:
	adrp	x0, _camlBoyer__Pmakeblock5391@PAGE+8
Lloh480:
	add	x0, x0, _camlBoyer__Pmakeblock5391@PAGEOFF+8
	mov	x29, sp
	.cfi_remember_state
	.cfi_def_cfa_register w29
	ldr	x16, [x28, #104]
	mov	sp, x16
	bl	_caml_initialize
	mov	sp, x29
	.cfi_restore_state
	mov	x0, x19
	mov	x1, x20
	mov	x29, sp
	.cfi_remember_state
	.cfi_def_cfa_register w29
	ldr	x16, [x28, #104]
	mov	sp, x16
	bl	_caml_modify
	mov	sp, x29
	.cfi_restore_state
Lloh481:
	adrp	x0, _camlBoyer__const_block1502@PAGE
Lloh482:
	add	x0, x0, _camlBoyer__const_block1502@PAGEOFF
	bl	_camlBoyer__cterm_to_term_14_35_code
Ltmp110:
	ldurb	w8, [x0, #-8]
	cbz	w8, LBB19_538
; %bb.248:                              ; %L2859
	ldr	x20, [x0, #8]
	tbnz	w20, #0, LBB19_539
; %bb.249:                              ; %L2865
	ldr	x19, [x20]
Lloh483:
	adrp	x0, _camlBoyer__Pmakeblock5424@PAGE
Lloh484:
	add	x0, x0, _camlBoyer__Pmakeblock5424@PAGEOFF
	mov	x1, x19
	mov	x29, sp
	.cfi_remember_state
	.cfi_def_cfa_register w29
	ldr	x16, [x28, #104]
	mov	sp, x16
	bl	_caml_initialize
	mov	sp, x29
	.cfi_restore_state
	ldurb	w8, [x19, #-8]
	cbz	w8, LBB19_538
; %bb.250:                              ; %L2871
	ldr	x21, [x20, #8]
	tbnz	w21, #0, LBB19_539
; %bb.251:                              ; %L2877
	ldrb	w8, [x21, #8]
	tbz	w8, #0, LBB19_538
; %bb.252:                              ; %L2881
	ldr	x19, [x19]
	ldr	x1, [x19, #8]!
Lloh485:
	adrp	x20, _camlBoyer__Pmakeblock5425@PAGE
Lloh486:
	add	x20, x20, _camlBoyer__Pmakeblock5425@PAGEOFF
	add	x0, x20, #8
	mov	x29, sp
	.cfi_remember_state
	.cfi_def_cfa_register w29
	ldr	x16, [x28, #104]
	mov	sp, x16
	bl	_caml_initialize
	mov	sp, x29
	.cfi_restore_state
	ldr	x1, [x21]
Lloh487:
	adrp	x0, _camlBoyer__Pmakeblock5424@PAGE+8
Lloh488:
	add	x0, x0, _camlBoyer__Pmakeblock5424@PAGEOFF+8
	mov	x29, sp
	.cfi_remember_state
	.cfi_def_cfa_register w29
	ldr	x16, [x28, #104]
	mov	sp, x16
	bl	_caml_initialize
	mov	sp, x29
	.cfi_restore_state
	mov	x0, x19
	mov	x1, x20
	mov	x29, sp
	.cfi_remember_state
	.cfi_def_cfa_register w29
	ldr	x16, [x28, #104]
	mov	sp, x16
	bl	_caml_modify
	mov	sp, x29
	.cfi_restore_state
Lloh489:
	adrp	x0, _camlBoyer__const_block1527@PAGE
Lloh490:
	add	x0, x0, _camlBoyer__const_block1527@PAGEOFF
	bl	_camlBoyer__cterm_to_term_14_35_code
Ltmp111:
	ldurb	w8, [x0, #-8]
	cbz	w8, LBB19_538
; %bb.253:                              ; %L2896
	ldr	x20, [x0, #8]
	tbnz	w20, #0, LBB19_539
; %bb.254:                              ; %L2902
	ldr	x19, [x20]
Lloh491:
	adrp	x0, _camlBoyer__Pmakeblock5457@PAGE
Lloh492:
	add	x0, x0, _camlBoyer__Pmakeblock5457@PAGEOFF
	mov	x1, x19
	mov	x29, sp
	.cfi_remember_state
	.cfi_def_cfa_register w29
	ldr	x16, [x28, #104]
	mov	sp, x16
	bl	_caml_initialize
	mov	sp, x29
	.cfi_restore_state
	ldurb	w8, [x19, #-8]
	cbz	w8, LBB19_538
; %bb.255:                              ; %L2908
	ldr	x21, [x20, #8]
	tbnz	w21, #0, LBB19_539
; %bb.256:                              ; %L2914
	ldrb	w8, [x21, #8]
	tbz	w8, #0, LBB19_538
; %bb.257:                              ; %L2918
	ldr	x19, [x19]
	ldr	x1, [x19, #8]!
Lloh493:
	adrp	x20, _camlBoyer__Pmakeblock5458@PAGE
Lloh494:
	add	x20, x20, _camlBoyer__Pmakeblock5458@PAGEOFF
	add	x0, x20, #8
	mov	x29, sp
	.cfi_remember_state
	.cfi_def_cfa_register w29
	ldr	x16, [x28, #104]
	mov	sp, x16
	bl	_caml_initialize
	mov	sp, x29
	.cfi_restore_state
	ldr	x1, [x21]
Lloh495:
	adrp	x0, _camlBoyer__Pmakeblock5457@PAGE+8
Lloh496:
	add	x0, x0, _camlBoyer__Pmakeblock5457@PAGEOFF+8
	mov	x29, sp
	.cfi_remember_state
	.cfi_def_cfa_register w29
	ldr	x16, [x28, #104]
	mov	sp, x16
	bl	_caml_initialize
	mov	sp, x29
	.cfi_restore_state
	mov	x0, x19
	mov	x1, x20
	mov	x29, sp
	.cfi_remember_state
	.cfi_def_cfa_register w29
	ldr	x16, [x28, #104]
	mov	sp, x16
	bl	_caml_modify
	mov	sp, x29
	.cfi_restore_state
Lloh497:
	adrp	x0, _camlBoyer__const_block1556@PAGE
Lloh498:
	add	x0, x0, _camlBoyer__const_block1556@PAGEOFF
	bl	_camlBoyer__cterm_to_term_14_35_code
Ltmp112:
	ldurb	w8, [x0, #-8]
	cbz	w8, LBB19_538
; %bb.258:                              ; %L2933
	ldr	x20, [x0, #8]
	tbnz	w20, #0, LBB19_539
; %bb.259:                              ; %L2939
	ldr	x19, [x20]
Lloh499:
	adrp	x0, _camlBoyer__Pmakeblock5490@PAGE
Lloh500:
	add	x0, x0, _camlBoyer__Pmakeblock5490@PAGEOFF
	mov	x1, x19
	mov	x29, sp
	.cfi_remember_state
	.cfi_def_cfa_register w29
	ldr	x16, [x28, #104]
	mov	sp, x16
	bl	_caml_initialize
	mov	sp, x29
	.cfi_restore_state
	ldurb	w8, [x19, #-8]
	cbz	w8, LBB19_538
; %bb.260:                              ; %L2945
	ldr	x21, [x20, #8]
	tbnz	w21, #0, LBB19_539
; %bb.261:                              ; %L2951
	ldrb	w8, [x21, #8]
	tbz	w8, #0, LBB19_538
; %bb.262:                              ; %L2955
	ldr	x19, [x19]
	ldr	x1, [x19, #8]!
Lloh501:
	adrp	x20, _camlBoyer__Pmakeblock5491@PAGE
Lloh502:
	add	x20, x20, _camlBoyer__Pmakeblock5491@PAGEOFF
	add	x0, x20, #8
	mov	x29, sp
	.cfi_remember_state
	.cfi_def_cfa_register w29
	ldr	x16, [x28, #104]
	mov	sp, x16
	bl	_caml_initialize
	mov	sp, x29
	.cfi_restore_state
	ldr	x1, [x21]
Lloh503:
	adrp	x0, _camlBoyer__Pmakeblock5490@PAGE+8
Lloh504:
	add	x0, x0, _camlBoyer__Pmakeblock5490@PAGEOFF+8
	mov	x29, sp
	.cfi_remember_state
	.cfi_def_cfa_register w29
	ldr	x16, [x28, #104]
	mov	sp, x16
	bl	_caml_initialize
	mov	sp, x29
	.cfi_restore_state
	mov	x0, x19
	mov	x1, x20
	mov	x29, sp
	.cfi_remember_state
	.cfi_def_cfa_register w29
	ldr	x16, [x28, #104]
	mov	sp, x16
	bl	_caml_modify
	mov	sp, x29
	.cfi_restore_state
Lloh505:
	adrp	x0, _camlBoyer__const_block1591@PAGE
Lloh506:
	add	x0, x0, _camlBoyer__const_block1591@PAGEOFF
	bl	_camlBoyer__cterm_to_term_14_35_code
Ltmp113:
	ldurb	w8, [x0, #-8]
	cbz	w8, LBB19_538
; %bb.263:                              ; %L2970
	ldr	x20, [x0, #8]
	tbnz	w20, #0, LBB19_539
; %bb.264:                              ; %L2976
	ldr	x19, [x20]
Lloh507:
	adrp	x0, _camlBoyer__Pmakeblock5523@PAGE
Lloh508:
	add	x0, x0, _camlBoyer__Pmakeblock5523@PAGEOFF
	mov	x1, x19
	mov	x29, sp
	.cfi_remember_state
	.cfi_def_cfa_register w29
	ldr	x16, [x28, #104]
	mov	sp, x16
	bl	_caml_initialize
	mov	sp, x29
	.cfi_restore_state
	ldurb	w8, [x19, #-8]
	cbz	w8, LBB19_538
; %bb.265:                              ; %L2982
	ldr	x21, [x20, #8]
	tbnz	w21, #0, LBB19_539
; %bb.266:                              ; %L2988
	ldrb	w8, [x21, #8]
	tbz	w8, #0, LBB19_538
; %bb.267:                              ; %L2992
	ldr	x19, [x19]
	ldr	x1, [x19, #8]!
Lloh509:
	adrp	x20, _camlBoyer__Pmakeblock5524@PAGE
Lloh510:
	add	x20, x20, _camlBoyer__Pmakeblock5524@PAGEOFF
	add	x0, x20, #8
	mov	x29, sp
	.cfi_remember_state
	.cfi_def_cfa_register w29
	ldr	x16, [x28, #104]
	mov	sp, x16
	bl	_caml_initialize
	mov	sp, x29
	.cfi_restore_state
	ldr	x1, [x21]
Lloh511:
	adrp	x0, _camlBoyer__Pmakeblock5523@PAGE+8
Lloh512:
	add	x0, x0, _camlBoyer__Pmakeblock5523@PAGEOFF+8
	mov	x29, sp
	.cfi_remember_state
	.cfi_def_cfa_register w29
	ldr	x16, [x28, #104]
	mov	sp, x16
	bl	_caml_initialize
	mov	sp, x29
	.cfi_restore_state
	mov	x0, x19
	mov	x1, x20
	mov	x29, sp
	.cfi_remember_state
	.cfi_def_cfa_register w29
	ldr	x16, [x28, #104]
	mov	sp, x16
	bl	_caml_modify
	mov	sp, x29
	.cfi_restore_state
Lloh513:
	adrp	x0, _camlBoyer__const_block1600@PAGE
Lloh514:
	add	x0, x0, _camlBoyer__const_block1600@PAGEOFF
	bl	_camlBoyer__cterm_to_term_14_35_code
Ltmp114:
	ldurb	w8, [x0, #-8]
	cbz	w8, LBB19_538
; %bb.268:                              ; %L3007
	ldr	x20, [x0, #8]
	tbnz	w20, #0, LBB19_539
; %bb.269:                              ; %L3013
	ldr	x19, [x20]
Lloh515:
	adrp	x0, _camlBoyer__Pmakeblock5556@PAGE
Lloh516:
	add	x0, x0, _camlBoyer__Pmakeblock5556@PAGEOFF
	mov	x1, x19
	mov	x29, sp
	.cfi_remember_state
	.cfi_def_cfa_register w29
	ldr	x16, [x28, #104]
	mov	sp, x16
	bl	_caml_initialize
	mov	sp, x29
	.cfi_restore_state
	ldurb	w8, [x19, #-8]
	cbz	w8, LBB19_538
; %bb.270:                              ; %L3019
	ldr	x21, [x20, #8]
	tbnz	w21, #0, LBB19_539
; %bb.271:                              ; %L3025
	ldrb	w8, [x21, #8]
	tbz	w8, #0, LBB19_538
; %bb.272:                              ; %L3029
	ldr	x19, [x19]
	ldr	x1, [x19, #8]!
Lloh517:
	adrp	x20, _camlBoyer__Pmakeblock5557@PAGE
Lloh518:
	add	x20, x20, _camlBoyer__Pmakeblock5557@PAGEOFF
	add	x0, x20, #8
	mov	x29, sp
	.cfi_remember_state
	.cfi_def_cfa_register w29
	ldr	x16, [x28, #104]
	mov	sp, x16
	bl	_caml_initialize
	mov	sp, x29
	.cfi_restore_state
	ldr	x1, [x21]
Lloh519:
	adrp	x0, _camlBoyer__Pmakeblock5556@PAGE+8
Lloh520:
	add	x0, x0, _camlBoyer__Pmakeblock5556@PAGEOFF+8
	mov	x29, sp
	.cfi_remember_state
	.cfi_def_cfa_register w29
	ldr	x16, [x28, #104]
	mov	sp, x16
	bl	_caml_initialize
	mov	sp, x29
	.cfi_restore_state
	mov	x0, x19
	mov	x1, x20
	mov	x29, sp
	.cfi_remember_state
	.cfi_def_cfa_register w29
	ldr	x16, [x28, #104]
	mov	sp, x16
	bl	_caml_modify
	mov	sp, x29
	.cfi_restore_state
Lloh521:
	adrp	x0, _camlBoyer__const_block1613@PAGE
Lloh522:
	add	x0, x0, _camlBoyer__const_block1613@PAGEOFF
	bl	_camlBoyer__cterm_to_term_14_35_code
Ltmp115:
	ldurb	w8, [x0, #-8]
	cbz	w8, LBB19_538
; %bb.273:                              ; %L3044
	ldr	x20, [x0, #8]
	tbnz	w20, #0, LBB19_539
; %bb.274:                              ; %L3050
	ldr	x19, [x20]
Lloh523:
	adrp	x0, _camlBoyer__Pmakeblock5589@PAGE
Lloh524:
	add	x0, x0, _camlBoyer__Pmakeblock5589@PAGEOFF
	mov	x1, x19
	mov	x29, sp
	.cfi_remember_state
	.cfi_def_cfa_register w29
	ldr	x16, [x28, #104]
	mov	sp, x16
	bl	_caml_initialize
	mov	sp, x29
	.cfi_restore_state
	ldurb	w8, [x19, #-8]
	cbz	w8, LBB19_538
; %bb.275:                              ; %L3056
	ldr	x21, [x20, #8]
	tbnz	w21, #0, LBB19_539
; %bb.276:                              ; %L3062
	ldrb	w8, [x21, #8]
	tbz	w8, #0, LBB19_538
; %bb.277:                              ; %L3066
	ldr	x19, [x19]
	ldr	x1, [x19, #8]!
Lloh525:
	adrp	x20, _camlBoyer__Pmakeblock5590@PAGE
Lloh526:
	add	x20, x20, _camlBoyer__Pmakeblock5590@PAGEOFF
	add	x0, x20, #8
	mov	x29, sp
	.cfi_remember_state
	.cfi_def_cfa_register w29
	ldr	x16, [x28, #104]
	mov	sp, x16
	bl	_caml_initialize
	mov	sp, x29
	.cfi_restore_state
	ldr	x1, [x21]
Lloh527:
	adrp	x0, _camlBoyer__Pmakeblock5589@PAGE+8
Lloh528:
	add	x0, x0, _camlBoyer__Pmakeblock5589@PAGEOFF+8
	mov	x29, sp
	.cfi_remember_state
	.cfi_def_cfa_register w29
	ldr	x16, [x28, #104]
	mov	sp, x16
	bl	_caml_initialize
	mov	sp, x29
	.cfi_restore_state
	mov	x0, x19
	mov	x1, x20
	mov	x29, sp
	.cfi_remember_state
	.cfi_def_cfa_register w29
	ldr	x16, [x28, #104]
	mov	sp, x16
	bl	_caml_modify
	mov	sp, x29
	.cfi_restore_state
Lloh529:
	adrp	x0, _camlBoyer__const_block1620@PAGE
Lloh530:
	add	x0, x0, _camlBoyer__const_block1620@PAGEOFF
	bl	_camlBoyer__cterm_to_term_14_35_code
Ltmp116:
	ldurb	w8, [x0, #-8]
	cbz	w8, LBB19_538
; %bb.278:                              ; %L3081
	ldr	x20, [x0, #8]
	tbnz	w20, #0, LBB19_539
; %bb.279:                              ; %L3087
	ldr	x19, [x20]
Lloh531:
	adrp	x0, _camlBoyer__Pmakeblock5622@PAGE
Lloh532:
	add	x0, x0, _camlBoyer__Pmakeblock5622@PAGEOFF
	mov	x1, x19
	mov	x29, sp
	.cfi_remember_state
	.cfi_def_cfa_register w29
	ldr	x16, [x28, #104]
	mov	sp, x16
	bl	_caml_initialize
	mov	sp, x29
	.cfi_restore_state
	ldurb	w8, [x19, #-8]
	cbz	w8, LBB19_538
; %bb.280:                              ; %L3093
	ldr	x21, [x20, #8]
	tbnz	w21, #0, LBB19_539
; %bb.281:                              ; %L3099
	ldrb	w8, [x21, #8]
	tbz	w8, #0, LBB19_538
; %bb.282:                              ; %L3103
	ldr	x19, [x19]
	ldr	x1, [x19, #8]!
Lloh533:
	adrp	x20, _camlBoyer__Pmakeblock5623@PAGE
Lloh534:
	add	x20, x20, _camlBoyer__Pmakeblock5623@PAGEOFF
	add	x0, x20, #8
	mov	x29, sp
	.cfi_remember_state
	.cfi_def_cfa_register w29
	ldr	x16, [x28, #104]
	mov	sp, x16
	bl	_caml_initialize
	mov	sp, x29
	.cfi_restore_state
	ldr	x1, [x21]
Lloh535:
	adrp	x0, _camlBoyer__Pmakeblock5622@PAGE+8
Lloh536:
	add	x0, x0, _camlBoyer__Pmakeblock5622@PAGEOFF+8
	mov	x29, sp
	.cfi_remember_state
	.cfi_def_cfa_register w29
	ldr	x16, [x28, #104]
	mov	sp, x16
	bl	_caml_initialize
	mov	sp, x29
	.cfi_restore_state
	mov	x0, x19
	mov	x1, x20
	mov	x29, sp
	.cfi_remember_state
	.cfi_def_cfa_register w29
	ldr	x16, [x28, #104]
	mov	sp, x16
	bl	_caml_modify
	mov	sp, x29
	.cfi_restore_state
Lloh537:
	adrp	x0, _camlBoyer__const_block1661@PAGE
Lloh538:
	add	x0, x0, _camlBoyer__const_block1661@PAGEOFF
	bl	_camlBoyer__cterm_to_term_14_35_code
Ltmp117:
	ldurb	w8, [x0, #-8]
	cbz	w8, LBB19_538
; %bb.283:                              ; %L3118
	ldr	x20, [x0, #8]
	tbnz	w20, #0, LBB19_539
; %bb.284:                              ; %L3124
	ldr	x19, [x20]
Lloh539:
	adrp	x0, _camlBoyer__Pmakeblock5655@PAGE
Lloh540:
	add	x0, x0, _camlBoyer__Pmakeblock5655@PAGEOFF
	mov	x1, x19
	mov	x29, sp
	.cfi_remember_state
	.cfi_def_cfa_register w29
	ldr	x16, [x28, #104]
	mov	sp, x16
	bl	_caml_initialize
	mov	sp, x29
	.cfi_restore_state
	ldurb	w8, [x19, #-8]
	cbz	w8, LBB19_538
; %bb.285:                              ; %L3130
	ldr	x21, [x20, #8]
	tbnz	w21, #0, LBB19_539
; %bb.286:                              ; %L3136
	ldrb	w8, [x21, #8]
	tbz	w8, #0, LBB19_538
; %bb.287:                              ; %L3140
	ldr	x19, [x19]
	ldr	x1, [x19, #8]!
Lloh541:
	adrp	x20, _camlBoyer__Pmakeblock5656@PAGE
Lloh542:
	add	x20, x20, _camlBoyer__Pmakeblock5656@PAGEOFF
	add	x0, x20, #8
	mov	x29, sp
	.cfi_remember_state
	.cfi_def_cfa_register w29
	ldr	x16, [x28, #104]
	mov	sp, x16
	bl	_caml_initialize
	mov	sp, x29
	.cfi_restore_state
	ldr	x1, [x21]
Lloh543:
	adrp	x0, _camlBoyer__Pmakeblock5655@PAGE+8
Lloh544:
	add	x0, x0, _camlBoyer__Pmakeblock5655@PAGEOFF+8
	mov	x29, sp
	.cfi_remember_state
	.cfi_def_cfa_register w29
	ldr	x16, [x28, #104]
	mov	sp, x16
	bl	_caml_initialize
	mov	sp, x29
	.cfi_restore_state
	mov	x0, x19
	mov	x1, x20
	mov	x29, sp
	.cfi_remember_state
	.cfi_def_cfa_register w29
	ldr	x16, [x28, #104]
	mov	sp, x16
	bl	_caml_modify
	mov	sp, x29
	.cfi_restore_state
Lloh545:
	adrp	x0, _camlBoyer__const_block1686@PAGE
Lloh546:
	add	x0, x0, _camlBoyer__const_block1686@PAGEOFF
	bl	_camlBoyer__cterm_to_term_14_35_code
Ltmp118:
	ldurb	w8, [x0, #-8]
	cbz	w8, LBB19_538
; %bb.288:                              ; %L3155
	ldr	x20, [x0, #8]
	tbnz	w20, #0, LBB19_539
; %bb.289:                              ; %L3161
	ldr	x19, [x20]
Lloh547:
	adrp	x0, _camlBoyer__Pmakeblock5688@PAGE
Lloh548:
	add	x0, x0, _camlBoyer__Pmakeblock5688@PAGEOFF
	mov	x1, x19
	mov	x29, sp
	.cfi_remember_state
	.cfi_def_cfa_register w29
	ldr	x16, [x28, #104]
	mov	sp, x16
	bl	_caml_initialize
	mov	sp, x29
	.cfi_restore_state
	ldurb	w8, [x19, #-8]
	cbz	w8, LBB19_538
; %bb.290:                              ; %L3167
	ldr	x21, [x20, #8]
	tbnz	w21, #0, LBB19_539
; %bb.291:                              ; %L3173
	ldrb	w8, [x21, #8]
	tbz	w8, #0, LBB19_538
; %bb.292:                              ; %L3177
	ldr	x19, [x19]
	ldr	x1, [x19, #8]!
Lloh549:
	adrp	x20, _camlBoyer__Pmakeblock5689@PAGE
Lloh550:
	add	x20, x20, _camlBoyer__Pmakeblock5689@PAGEOFF
	add	x0, x20, #8
	mov	x29, sp
	.cfi_remember_state
	.cfi_def_cfa_register w29
	ldr	x16, [x28, #104]
	mov	sp, x16
	bl	_caml_initialize
	mov	sp, x29
	.cfi_restore_state
	ldr	x1, [x21]
Lloh551:
	adrp	x0, _camlBoyer__Pmakeblock5688@PAGE+8
Lloh552:
	add	x0, x0, _camlBoyer__Pmakeblock5688@PAGEOFF+8
	mov	x29, sp
	.cfi_remember_state
	.cfi_def_cfa_register w29
	ldr	x16, [x28, #104]
	mov	sp, x16
	bl	_caml_initialize
	mov	sp, x29
	.cfi_restore_state
	mov	x0, x19
	mov	x1, x20
	mov	x29, sp
	.cfi_remember_state
	.cfi_def_cfa_register w29
	ldr	x16, [x28, #104]
	mov	sp, x16
	bl	_caml_modify
	mov	sp, x29
	.cfi_restore_state
Lloh553:
	adrp	x0, _camlBoyer__const_block1703@PAGE
Lloh554:
	add	x0, x0, _camlBoyer__const_block1703@PAGEOFF
	bl	_camlBoyer__cterm_to_term_14_35_code
Ltmp119:
	ldurb	w8, [x0, #-8]
	cbz	w8, LBB19_538
; %bb.293:                              ; %L3192
	ldr	x20, [x0, #8]
	tbnz	w20, #0, LBB19_539
; %bb.294:                              ; %L3198
	ldr	x19, [x20]
Lloh555:
	adrp	x0, _camlBoyer__Pmakeblock5721@PAGE
Lloh556:
	add	x0, x0, _camlBoyer__Pmakeblock5721@PAGEOFF
	mov	x1, x19
	mov	x29, sp
	.cfi_remember_state
	.cfi_def_cfa_register w29
	ldr	x16, [x28, #104]
	mov	sp, x16
	bl	_caml_initialize
	mov	sp, x29
	.cfi_restore_state
	ldurb	w8, [x19, #-8]
	cbz	w8, LBB19_538
; %bb.295:                              ; %L3204
	ldr	x21, [x20, #8]
	tbnz	w21, #0, LBB19_539
; %bb.296:                              ; %L3210
	ldrb	w8, [x21, #8]
	tbz	w8, #0, LBB19_538
; %bb.297:                              ; %L3214
	ldr	x19, [x19]
	ldr	x1, [x19, #8]!
Lloh557:
	adrp	x20, _camlBoyer__Pmakeblock5722@PAGE
Lloh558:
	add	x20, x20, _camlBoyer__Pmakeblock5722@PAGEOFF
	add	x0, x20, #8
	mov	x29, sp
	.cfi_remember_state
	.cfi_def_cfa_register w29
	ldr	x16, [x28, #104]
	mov	sp, x16
	bl	_caml_initialize
	mov	sp, x29
	.cfi_restore_state
	ldr	x1, [x21]
Lloh559:
	adrp	x0, _camlBoyer__Pmakeblock5721@PAGE+8
Lloh560:
	add	x0, x0, _camlBoyer__Pmakeblock5721@PAGEOFF+8
	mov	x29, sp
	.cfi_remember_state
	.cfi_def_cfa_register w29
	ldr	x16, [x28, #104]
	mov	sp, x16
	bl	_caml_initialize
	mov	sp, x29
	.cfi_restore_state
	mov	x0, x19
	mov	x1, x20
	mov	x29, sp
	.cfi_remember_state
	.cfi_def_cfa_register w29
	ldr	x16, [x28, #104]
	mov	sp, x16
	bl	_caml_modify
	mov	sp, x29
	.cfi_restore_state
Lloh561:
	adrp	x0, _camlBoyer__const_block1728@PAGE
Lloh562:
	add	x0, x0, _camlBoyer__const_block1728@PAGEOFF
	bl	_camlBoyer__cterm_to_term_14_35_code
Ltmp120:
	ldurb	w8, [x0, #-8]
	cbz	w8, LBB19_538
; %bb.298:                              ; %L3229
	ldr	x20, [x0, #8]
	tbnz	w20, #0, LBB19_539
; %bb.299:                              ; %L3235
	ldr	x19, [x20]
Lloh563:
	adrp	x0, _camlBoyer__Pmakeblock5754@PAGE
Lloh564:
	add	x0, x0, _camlBoyer__Pmakeblock5754@PAGEOFF
	mov	x1, x19
	mov	x29, sp
	.cfi_remember_state
	.cfi_def_cfa_register w29
	ldr	x16, [x28, #104]
	mov	sp, x16
	bl	_caml_initialize
	mov	sp, x29
	.cfi_restore_state
	ldurb	w8, [x19, #-8]
	cbz	w8, LBB19_538
; %bb.300:                              ; %L3241
	ldr	x21, [x20, #8]
	tbnz	w21, #0, LBB19_539
; %bb.301:                              ; %L3247
	ldrb	w8, [x21, #8]
	tbz	w8, #0, LBB19_538
; %bb.302:                              ; %L3251
	ldr	x19, [x19]
	ldr	x1, [x19, #8]!
Lloh565:
	adrp	x20, _camlBoyer__Pmakeblock5755@PAGE
Lloh566:
	add	x20, x20, _camlBoyer__Pmakeblock5755@PAGEOFF
	add	x0, x20, #8
	mov	x29, sp
	.cfi_remember_state
	.cfi_def_cfa_register w29
	ldr	x16, [x28, #104]
	mov	sp, x16
	bl	_caml_initialize
	mov	sp, x29
	.cfi_restore_state
	ldr	x1, [x21]
Lloh567:
	adrp	x0, _camlBoyer__Pmakeblock5754@PAGE+8
Lloh568:
	add	x0, x0, _camlBoyer__Pmakeblock5754@PAGEOFF+8
	mov	x29, sp
	.cfi_remember_state
	.cfi_def_cfa_register w29
	ldr	x16, [x28, #104]
	mov	sp, x16
	bl	_caml_initialize
	mov	sp, x29
	.cfi_restore_state
	mov	x0, x19
	mov	x1, x20
	mov	x29, sp
	.cfi_remember_state
	.cfi_def_cfa_register w29
	ldr	x16, [x28, #104]
	mov	sp, x16
	bl	_caml_modify
	mov	sp, x29
	.cfi_restore_state
Lloh569:
	adrp	x0, _camlBoyer__const_block1741@PAGE
Lloh570:
	add	x0, x0, _camlBoyer__const_block1741@PAGEOFF
	bl	_camlBoyer__cterm_to_term_14_35_code
Ltmp121:
	ldurb	w8, [x0, #-8]
	cbz	w8, LBB19_538
; %bb.303:                              ; %L3266
	ldr	x20, [x0, #8]
	tbnz	w20, #0, LBB19_539
; %bb.304:                              ; %L3272
	ldr	x19, [x20]
Lloh571:
	adrp	x0, _camlBoyer__Pmakeblock5787@PAGE
Lloh572:
	add	x0, x0, _camlBoyer__Pmakeblock5787@PAGEOFF
	mov	x1, x19
	mov	x29, sp
	.cfi_remember_state
	.cfi_def_cfa_register w29
	ldr	x16, [x28, #104]
	mov	sp, x16
	bl	_caml_initialize
	mov	sp, x29
	.cfi_restore_state
	ldurb	w8, [x19, #-8]
	cbz	w8, LBB19_538
; %bb.305:                              ; %L3278
	ldr	x21, [x20, #8]
	tbnz	w21, #0, LBB19_539
; %bb.306:                              ; %L3284
	ldrb	w8, [x21, #8]
	tbz	w8, #0, LBB19_538
; %bb.307:                              ; %L3288
	ldr	x19, [x19]
	ldr	x1, [x19, #8]!
Lloh573:
	adrp	x20, _camlBoyer__Pmakeblock5788@PAGE
Lloh574:
	add	x20, x20, _camlBoyer__Pmakeblock5788@PAGEOFF
	add	x0, x20, #8
	mov	x29, sp
	.cfi_remember_state
	.cfi_def_cfa_register w29
	ldr	x16, [x28, #104]
	mov	sp, x16
	bl	_caml_initialize
	mov	sp, x29
	.cfi_restore_state
	ldr	x1, [x21]
Lloh575:
	adrp	x0, _camlBoyer__Pmakeblock5787@PAGE+8
Lloh576:
	add	x0, x0, _camlBoyer__Pmakeblock5787@PAGEOFF+8
	mov	x29, sp
	.cfi_remember_state
	.cfi_def_cfa_register w29
	ldr	x16, [x28, #104]
	mov	sp, x16
	bl	_caml_initialize
	mov	sp, x29
	.cfi_restore_state
	mov	x0, x19
	mov	x1, x20
	mov	x29, sp
	.cfi_remember_state
	.cfi_def_cfa_register w29
	ldr	x16, [x28, #104]
	mov	sp, x16
	bl	_caml_modify
	mov	sp, x29
	.cfi_restore_state
Lloh577:
	adrp	x0, _camlBoyer__const_block1776@PAGE
Lloh578:
	add	x0, x0, _camlBoyer__const_block1776@PAGEOFF
	bl	_camlBoyer__cterm_to_term_14_35_code
Ltmp122:
	ldurb	w8, [x0, #-8]
	cbz	w8, LBB19_538
; %bb.308:                              ; %L3303
	ldr	x20, [x0, #8]
	tbnz	w20, #0, LBB19_539
; %bb.309:                              ; %L3309
	ldr	x19, [x20]
Lloh579:
	adrp	x0, _camlBoyer__Pmakeblock5820@PAGE
Lloh580:
	add	x0, x0, _camlBoyer__Pmakeblock5820@PAGEOFF
	mov	x1, x19
	mov	x29, sp
	.cfi_remember_state
	.cfi_def_cfa_register w29
	ldr	x16, [x28, #104]
	mov	sp, x16
	bl	_caml_initialize
	mov	sp, x29
	.cfi_restore_state
	ldurb	w8, [x19, #-8]
	cbz	w8, LBB19_538
; %bb.310:                              ; %L3315
	ldr	x21, [x20, #8]
	tbnz	w21, #0, LBB19_539
; %bb.311:                              ; %L3321
	ldrb	w8, [x21, #8]
	tbz	w8, #0, LBB19_538
; %bb.312:                              ; %L3325
	ldr	x19, [x19]
	ldr	x1, [x19, #8]!
Lloh581:
	adrp	x20, _camlBoyer__Pmakeblock5821@PAGE
Lloh582:
	add	x20, x20, _camlBoyer__Pmakeblock5821@PAGEOFF
	add	x0, x20, #8
	mov	x29, sp
	.cfi_remember_state
	.cfi_def_cfa_register w29
	ldr	x16, [x28, #104]
	mov	sp, x16
	bl	_caml_initialize
	mov	sp, x29
	.cfi_restore_state
	ldr	x1, [x21]
Lloh583:
	adrp	x0, _camlBoyer__Pmakeblock5820@PAGE+8
Lloh584:
	add	x0, x0, _camlBoyer__Pmakeblock5820@PAGEOFF+8
	mov	x29, sp
	.cfi_remember_state
	.cfi_def_cfa_register w29
	ldr	x16, [x28, #104]
	mov	sp, x16
	bl	_caml_initialize
	mov	sp, x29
	.cfi_restore_state
	mov	x0, x19
	mov	x1, x20
	mov	x29, sp
	.cfi_remember_state
	.cfi_def_cfa_register w29
	ldr	x16, [x28, #104]
	mov	sp, x16
	bl	_caml_modify
	mov	sp, x29
	.cfi_restore_state
Lloh585:
	adrp	x0, _camlBoyer__const_block1785@PAGE
Lloh586:
	add	x0, x0, _camlBoyer__const_block1785@PAGEOFF
	bl	_camlBoyer__cterm_to_term_14_35_code
Ltmp123:
	ldurb	w8, [x0, #-8]
	cbz	w8, LBB19_538
; %bb.313:                              ; %L3340
	ldr	x20, [x0, #8]
	tbnz	w20, #0, LBB19_539
; %bb.314:                              ; %L3346
	ldr	x19, [x20]
Lloh587:
	adrp	x0, _camlBoyer__Pmakeblock5853@PAGE
Lloh588:
	add	x0, x0, _camlBoyer__Pmakeblock5853@PAGEOFF
	mov	x1, x19
	mov	x29, sp
	.cfi_remember_state
	.cfi_def_cfa_register w29
	ldr	x16, [x28, #104]
	mov	sp, x16
	bl	_caml_initialize
	mov	sp, x29
	.cfi_restore_state
	ldurb	w8, [x19, #-8]
	cbz	w8, LBB19_538
; %bb.315:                              ; %L3352
	ldr	x21, [x20, #8]
	tbnz	w21, #0, LBB19_539
; %bb.316:                              ; %L3358
	ldrb	w8, [x21, #8]
	tbz	w8, #0, LBB19_538
; %bb.317:                              ; %L3362
	ldr	x19, [x19]
	ldr	x1, [x19, #8]!
Lloh589:
	adrp	x20, _camlBoyer__Pmakeblock5854@PAGE
Lloh590:
	add	x20, x20, _camlBoyer__Pmakeblock5854@PAGEOFF
	add	x0, x20, #8
	mov	x29, sp
	.cfi_remember_state
	.cfi_def_cfa_register w29
	ldr	x16, [x28, #104]
	mov	sp, x16
	bl	_caml_initialize
	mov	sp, x29
	.cfi_restore_state
	ldr	x1, [x21]
Lloh591:
	adrp	x0, _camlBoyer__Pmakeblock5853@PAGE+8
Lloh592:
	add	x0, x0, _camlBoyer__Pmakeblock5853@PAGEOFF+8
	mov	x29, sp
	.cfi_remember_state
	.cfi_def_cfa_register w29
	ldr	x16, [x28, #104]
	mov	sp, x16
	bl	_caml_initialize
	mov	sp, x29
	.cfi_restore_state
	mov	x0, x19
	mov	x1, x20
	mov	x29, sp
	.cfi_remember_state
	.cfi_def_cfa_register w29
	ldr	x16, [x28, #104]
	mov	sp, x16
	bl	_caml_modify
	mov	sp, x29
	.cfi_restore_state
Lloh593:
	adrp	x0, _camlBoyer__const_block1796@PAGE
Lloh594:
	add	x0, x0, _camlBoyer__const_block1796@PAGEOFF
	bl	_camlBoyer__cterm_to_term_14_35_code
Ltmp124:
	ldurb	w8, [x0, #-8]
	cbz	w8, LBB19_538
; %bb.318:                              ; %L3377
	ldr	x20, [x0, #8]
	tbnz	w20, #0, LBB19_539
; %bb.319:                              ; %L3383
	ldr	x19, [x20]
Lloh595:
	adrp	x0, _camlBoyer__Pmakeblock5886@PAGE
Lloh596:
	add	x0, x0, _camlBoyer__Pmakeblock5886@PAGEOFF
	mov	x1, x19
	mov	x29, sp
	.cfi_remember_state
	.cfi_def_cfa_register w29
	ldr	x16, [x28, #104]
	mov	sp, x16
	bl	_caml_initialize
	mov	sp, x29
	.cfi_restore_state
	ldurb	w8, [x19, #-8]
	cbz	w8, LBB19_538
; %bb.320:                              ; %L3389
	ldr	x21, [x20, #8]
	tbnz	w21, #0, LBB19_539
; %bb.321:                              ; %L3395
	ldrb	w8, [x21, #8]
	tbz	w8, #0, LBB19_538
; %bb.322:                              ; %L3399
	ldr	x19, [x19]
	ldr	x1, [x19, #8]!
Lloh597:
	adrp	x20, _camlBoyer__Pmakeblock5887@PAGE
Lloh598:
	add	x20, x20, _camlBoyer__Pmakeblock5887@PAGEOFF
	add	x0, x20, #8
	mov	x29, sp
	.cfi_remember_state
	.cfi_def_cfa_register w29
	ldr	x16, [x28, #104]
	mov	sp, x16
	bl	_caml_initialize
	mov	sp, x29
	.cfi_restore_state
	ldr	x1, [x21]
Lloh599:
	adrp	x0, _camlBoyer__Pmakeblock5886@PAGE+8
Lloh600:
	add	x0, x0, _camlBoyer__Pmakeblock5886@PAGEOFF+8
	mov	x29, sp
	.cfi_remember_state
	.cfi_def_cfa_register w29
	ldr	x16, [x28, #104]
	mov	sp, x16
	bl	_caml_initialize
	mov	sp, x29
	.cfi_restore_state
	mov	x0, x19
	mov	x1, x20
	mov	x29, sp
	.cfi_remember_state
	.cfi_def_cfa_register w29
	ldr	x16, [x28, #104]
	mov	sp, x16
	bl	_caml_modify
	mov	sp, x29
	.cfi_restore_state
Lloh601:
	adrp	x0, _camlBoyer__const_block1813@PAGE
Lloh602:
	add	x0, x0, _camlBoyer__const_block1813@PAGEOFF
	bl	_camlBoyer__cterm_to_term_14_35_code
Ltmp125:
	ldurb	w8, [x0, #-8]
	cbz	w8, LBB19_538
; %bb.323:                              ; %L3414
	ldr	x20, [x0, #8]
	tbnz	w20, #0, LBB19_539
; %bb.324:                              ; %L3420
	ldr	x19, [x20]
Lloh603:
	adrp	x0, _camlBoyer__Pmakeblock5919@PAGE
Lloh604:
	add	x0, x0, _camlBoyer__Pmakeblock5919@PAGEOFF
	mov	x1, x19
	mov	x29, sp
	.cfi_remember_state
	.cfi_def_cfa_register w29
	ldr	x16, [x28, #104]
	mov	sp, x16
	bl	_caml_initialize
	mov	sp, x29
	.cfi_restore_state
	ldurb	w8, [x19, #-8]
	cbz	w8, LBB19_538
; %bb.325:                              ; %L3426
	ldr	x21, [x20, #8]
	tbnz	w21, #0, LBB19_539
; %bb.326:                              ; %L3432
	ldrb	w8, [x21, #8]
	tbz	w8, #0, LBB19_538
; %bb.327:                              ; %L3436
	ldr	x19, [x19]
	ldr	x1, [x19, #8]!
Lloh605:
	adrp	x20, _camlBoyer__Pmakeblock5920@PAGE
Lloh606:
	add	x20, x20, _camlBoyer__Pmakeblock5920@PAGEOFF
	add	x0, x20, #8
	mov	x29, sp
	.cfi_remember_state
	.cfi_def_cfa_register w29
	ldr	x16, [x28, #104]
	mov	sp, x16
	bl	_caml_initialize
	mov	sp, x29
	.cfi_restore_state
	ldr	x1, [x21]
Lloh607:
	adrp	x0, _camlBoyer__Pmakeblock5919@PAGE+8
Lloh608:
	add	x0, x0, _camlBoyer__Pmakeblock5919@PAGEOFF+8
	mov	x29, sp
	.cfi_remember_state
	.cfi_def_cfa_register w29
	ldr	x16, [x28, #104]
	mov	sp, x16
	bl	_caml_initialize
	mov	sp, x29
	.cfi_restore_state
	mov	x0, x19
	mov	x1, x20
	mov	x29, sp
	.cfi_remember_state
	.cfi_def_cfa_register w29
	ldr	x16, [x28, #104]
	mov	sp, x16
	bl	_caml_modify
	mov	sp, x29
	.cfi_restore_state
Lloh609:
	adrp	x0, _camlBoyer__const_block1848@PAGE
Lloh610:
	add	x0, x0, _camlBoyer__const_block1848@PAGEOFF
	bl	_camlBoyer__cterm_to_term_14_35_code
Ltmp126:
	ldurb	w8, [x0, #-8]
	cbz	w8, LBB19_538
; %bb.328:                              ; %L3451
	ldr	x20, [x0, #8]
	tbnz	w20, #0, LBB19_539
; %bb.329:                              ; %L3457
	ldr	x19, [x20]
Lloh611:
	adrp	x0, _camlBoyer__Pmakeblock5952@PAGE
Lloh612:
	add	x0, x0, _camlBoyer__Pmakeblock5952@PAGEOFF
	mov	x1, x19
	mov	x29, sp
	.cfi_remember_state
	.cfi_def_cfa_register w29
	ldr	x16, [x28, #104]
	mov	sp, x16
	bl	_caml_initialize
	mov	sp, x29
	.cfi_restore_state
	ldurb	w8, [x19, #-8]
	cbz	w8, LBB19_538
; %bb.330:                              ; %L3463
	ldr	x21, [x20, #8]
	tbnz	w21, #0, LBB19_539
; %bb.331:                              ; %L3469
	ldrb	w8, [x21, #8]
	tbz	w8, #0, LBB19_538
; %bb.332:                              ; %L3473
	ldr	x19, [x19]
	ldr	x1, [x19, #8]!
Lloh613:
	adrp	x20, _camlBoyer__Pmakeblock5953@PAGE
Lloh614:
	add	x20, x20, _camlBoyer__Pmakeblock5953@PAGEOFF
	add	x0, x20, #8
	mov	x29, sp
	.cfi_remember_state
	.cfi_def_cfa_register w29
	ldr	x16, [x28, #104]
	mov	sp, x16
	bl	_caml_initialize
	mov	sp, x29
	.cfi_restore_state
	ldr	x1, [x21]
Lloh615:
	adrp	x0, _camlBoyer__Pmakeblock5952@PAGE+8
Lloh616:
	add	x0, x0, _camlBoyer__Pmakeblock5952@PAGEOFF+8
	mov	x29, sp
	.cfi_remember_state
	.cfi_def_cfa_register w29
	ldr	x16, [x28, #104]
	mov	sp, x16
	bl	_caml_initialize
	mov	sp, x29
	.cfi_restore_state
	mov	x0, x19
	mov	x1, x20
	mov	x29, sp
	.cfi_remember_state
	.cfi_def_cfa_register w29
	ldr	x16, [x28, #104]
	mov	sp, x16
	bl	_caml_modify
	mov	sp, x29
	.cfi_restore_state
Lloh617:
	adrp	x0, _camlBoyer__const_block1857@PAGE
Lloh618:
	add	x0, x0, _camlBoyer__const_block1857@PAGEOFF
	bl	_camlBoyer__cterm_to_term_14_35_code
Ltmp127:
	ldurb	w8, [x0, #-8]
	cbz	w8, LBB19_538
; %bb.333:                              ; %L3488
	ldr	x20, [x0, #8]
	tbnz	w20, #0, LBB19_539
; %bb.334:                              ; %L3494
	ldr	x19, [x20]
Lloh619:
	adrp	x0, _camlBoyer__Pmakeblock5985@PAGE
Lloh620:
	add	x0, x0, _camlBoyer__Pmakeblock5985@PAGEOFF
	mov	x1, x19
	mov	x29, sp
	.cfi_remember_state
	.cfi_def_cfa_register w29
	ldr	x16, [x28, #104]
	mov	sp, x16
	bl	_caml_initialize
	mov	sp, x29
	.cfi_restore_state
	ldurb	w8, [x19, #-8]
	cbz	w8, LBB19_538
; %bb.335:                              ; %L3500
	ldr	x21, [x20, #8]
	tbnz	w21, #0, LBB19_539
; %bb.336:                              ; %L3506
	ldrb	w8, [x21, #8]
	tbz	w8, #0, LBB19_538
; %bb.337:                              ; %L3510
	ldr	x19, [x19]
	ldr	x1, [x19, #8]!
Lloh621:
	adrp	x20, _camlBoyer__Pmakeblock5986@PAGE
Lloh622:
	add	x20, x20, _camlBoyer__Pmakeblock5986@PAGEOFF
	add	x0, x20, #8
	mov	x29, sp
	.cfi_remember_state
	.cfi_def_cfa_register w29
	ldr	x16, [x28, #104]
	mov	sp, x16
	bl	_caml_initialize
	mov	sp, x29
	.cfi_restore_state
	ldr	x1, [x21]
Lloh623:
	adrp	x0, _camlBoyer__Pmakeblock5985@PAGE+8
Lloh624:
	add	x0, x0, _camlBoyer__Pmakeblock5985@PAGEOFF+8
	mov	x29, sp
	.cfi_remember_state
	.cfi_def_cfa_register w29
	ldr	x16, [x28, #104]
	mov	sp, x16
	bl	_caml_initialize
	mov	sp, x29
	.cfi_restore_state
	mov	x0, x19
	mov	x1, x20
	mov	x29, sp
	.cfi_remember_state
	.cfi_def_cfa_register w29
	ldr	x16, [x28, #104]
	mov	sp, x16
	bl	_caml_modify
	mov	sp, x29
	.cfi_restore_state
Lloh625:
	adrp	x0, _camlBoyer__const_block1874@PAGE
Lloh626:
	add	x0, x0, _camlBoyer__const_block1874@PAGEOFF
	bl	_camlBoyer__cterm_to_term_14_35_code
Ltmp128:
	ldurb	w8, [x0, #-8]
	cbz	w8, LBB19_538
; %bb.338:                              ; %L3525
	ldr	x20, [x0, #8]
	tbnz	w20, #0, LBB19_539
; %bb.339:                              ; %L3531
	ldr	x19, [x20]
Lloh627:
	adrp	x0, _camlBoyer__Pmakeblock6018@PAGE
Lloh628:
	add	x0, x0, _camlBoyer__Pmakeblock6018@PAGEOFF
	mov	x1, x19
	mov	x29, sp
	.cfi_remember_state
	.cfi_def_cfa_register w29
	ldr	x16, [x28, #104]
	mov	sp, x16
	bl	_caml_initialize
	mov	sp, x29
	.cfi_restore_state
	ldurb	w8, [x19, #-8]
	cbz	w8, LBB19_538
; %bb.340:                              ; %L3537
	ldr	x21, [x20, #8]
	tbnz	w21, #0, LBB19_539
; %bb.341:                              ; %L3543
	ldrb	w8, [x21, #8]
	tbz	w8, #0, LBB19_538
; %bb.342:                              ; %L3547
	ldr	x19, [x19]
	ldr	x1, [x19, #8]!
Lloh629:
	adrp	x20, _camlBoyer__Pmakeblock6019@PAGE
Lloh630:
	add	x20, x20, _camlBoyer__Pmakeblock6019@PAGEOFF
	add	x0, x20, #8
	mov	x29, sp
	.cfi_remember_state
	.cfi_def_cfa_register w29
	ldr	x16, [x28, #104]
	mov	sp, x16
	bl	_caml_initialize
	mov	sp, x29
	.cfi_restore_state
	ldr	x1, [x21]
Lloh631:
	adrp	x0, _camlBoyer__Pmakeblock6018@PAGE+8
Lloh632:
	add	x0, x0, _camlBoyer__Pmakeblock6018@PAGEOFF+8
	mov	x29, sp
	.cfi_remember_state
	.cfi_def_cfa_register w29
	ldr	x16, [x28, #104]
	mov	sp, x16
	bl	_caml_initialize
	mov	sp, x29
	.cfi_restore_state
	mov	x0, x19
	mov	x1, x20
	mov	x29, sp
	.cfi_remember_state
	.cfi_def_cfa_register w29
	ldr	x16, [x28, #104]
	mov	sp, x16
	bl	_caml_modify
	mov	sp, x29
	.cfi_restore_state
Lloh633:
	adrp	x0, _camlBoyer__const_block1889@PAGE
Lloh634:
	add	x0, x0, _camlBoyer__const_block1889@PAGEOFF
	bl	_camlBoyer__cterm_to_term_14_35_code
Ltmp129:
	ldurb	w8, [x0, #-8]
	cbz	w8, LBB19_538
; %bb.343:                              ; %L3562
	ldr	x20, [x0, #8]
	tbnz	w20, #0, LBB19_539
; %bb.344:                              ; %L3568
	ldr	x19, [x20]
Lloh635:
	adrp	x0, _camlBoyer__Pmakeblock6051@PAGE
Lloh636:
	add	x0, x0, _camlBoyer__Pmakeblock6051@PAGEOFF
	mov	x1, x19
	mov	x29, sp
	.cfi_remember_state
	.cfi_def_cfa_register w29
	ldr	x16, [x28, #104]
	mov	sp, x16
	bl	_caml_initialize
	mov	sp, x29
	.cfi_restore_state
	ldurb	w8, [x19, #-8]
	cbz	w8, LBB19_538
; %bb.345:                              ; %L3574
	ldr	x21, [x20, #8]
	tbnz	w21, #0, LBB19_539
; %bb.346:                              ; %L3580
	ldrb	w8, [x21, #8]
	tbz	w8, #0, LBB19_538
; %bb.347:                              ; %L3584
	ldr	x19, [x19]
	ldr	x1, [x19, #8]!
Lloh637:
	adrp	x20, _camlBoyer__Pmakeblock6052@PAGE
Lloh638:
	add	x20, x20, _camlBoyer__Pmakeblock6052@PAGEOFF
	add	x0, x20, #8
	mov	x29, sp
	.cfi_remember_state
	.cfi_def_cfa_register w29
	ldr	x16, [x28, #104]
	mov	sp, x16
	bl	_caml_initialize
	mov	sp, x29
	.cfi_restore_state
	ldr	x1, [x21]
Lloh639:
	adrp	x0, _camlBoyer__Pmakeblock6051@PAGE+8
Lloh640:
	add	x0, x0, _camlBoyer__Pmakeblock6051@PAGEOFF+8
	mov	x29, sp
	.cfi_remember_state
	.cfi_def_cfa_register w29
	ldr	x16, [x28, #104]
	mov	sp, x16
	bl	_caml_initialize
	mov	sp, x29
	.cfi_restore_state
	mov	x0, x19
	mov	x1, x20
	mov	x29, sp
	.cfi_remember_state
	.cfi_def_cfa_register w29
	ldr	x16, [x28, #104]
	mov	sp, x16
	bl	_caml_modify
	mov	sp, x29
	.cfi_restore_state
Lloh641:
	adrp	x0, _camlBoyer__const_block1900@PAGE
Lloh642:
	add	x0, x0, _camlBoyer__const_block1900@PAGEOFF
	bl	_camlBoyer__cterm_to_term_14_35_code
Ltmp130:
	ldurb	w8, [x0, #-8]
	cbz	w8, LBB19_538
; %bb.348:                              ; %L3599
	ldr	x20, [x0, #8]
	tbnz	w20, #0, LBB19_539
; %bb.349:                              ; %L3605
	ldr	x19, [x20]
Lloh643:
	adrp	x0, _camlBoyer__Pmakeblock6084@PAGE
Lloh644:
	add	x0, x0, _camlBoyer__Pmakeblock6084@PAGEOFF
	mov	x1, x19
	mov	x29, sp
	.cfi_remember_state
	.cfi_def_cfa_register w29
	ldr	x16, [x28, #104]
	mov	sp, x16
	bl	_caml_initialize
	mov	sp, x29
	.cfi_restore_state
	ldurb	w8, [x19, #-8]
	cbz	w8, LBB19_538
; %bb.350:                              ; %L3611
	ldr	x21, [x20, #8]
	tbnz	w21, #0, LBB19_539
; %bb.351:                              ; %L3617
	ldrb	w8, [x21, #8]
	tbz	w8, #0, LBB19_538
; %bb.352:                              ; %L3621
	ldr	x19, [x19]
	ldr	x1, [x19, #8]!
Lloh645:
	adrp	x20, _camlBoyer__Pmakeblock6085@PAGE
Lloh646:
	add	x20, x20, _camlBoyer__Pmakeblock6085@PAGEOFF
	add	x0, x20, #8
	mov	x29, sp
	.cfi_remember_state
	.cfi_def_cfa_register w29
	ldr	x16, [x28, #104]
	mov	sp, x16
	bl	_caml_initialize
	mov	sp, x29
	.cfi_restore_state
	ldr	x1, [x21]
Lloh647:
	adrp	x0, _camlBoyer__Pmakeblock6084@PAGE+8
Lloh648:
	add	x0, x0, _camlBoyer__Pmakeblock6084@PAGEOFF+8
	mov	x29, sp
	.cfi_remember_state
	.cfi_def_cfa_register w29
	ldr	x16, [x28, #104]
	mov	sp, x16
	bl	_caml_initialize
	mov	sp, x29
	.cfi_restore_state
	mov	x0, x19
	mov	x1, x20
	mov	x29, sp
	.cfi_remember_state
	.cfi_def_cfa_register w29
	ldr	x16, [x28, #104]
	mov	sp, x16
	bl	_caml_modify
	mov	sp, x29
	.cfi_restore_state
Lloh649:
	adrp	x0, _camlBoyer__const_block1921@PAGE
Lloh650:
	add	x0, x0, _camlBoyer__const_block1921@PAGEOFF
	bl	_camlBoyer__cterm_to_term_14_35_code
Ltmp131:
	ldurb	w8, [x0, #-8]
	cbz	w8, LBB19_538
; %bb.353:                              ; %L3636
	ldr	x20, [x0, #8]
	tbnz	w20, #0, LBB19_539
; %bb.354:                              ; %L3642
	ldr	x19, [x20]
Lloh651:
	adrp	x0, _camlBoyer__Pmakeblock6117@PAGE
Lloh652:
	add	x0, x0, _camlBoyer__Pmakeblock6117@PAGEOFF
	mov	x1, x19
	mov	x29, sp
	.cfi_remember_state
	.cfi_def_cfa_register w29
	ldr	x16, [x28, #104]
	mov	sp, x16
	bl	_caml_initialize
	mov	sp, x29
	.cfi_restore_state
	ldurb	w8, [x19, #-8]
	cbz	w8, LBB19_538
; %bb.355:                              ; %L3648
	ldr	x21, [x20, #8]
	tbnz	w21, #0, LBB19_539
; %bb.356:                              ; %L3654
	ldrb	w8, [x21, #8]
	tbz	w8, #0, LBB19_538
; %bb.357:                              ; %L3658
	ldr	x19, [x19]
	ldr	x1, [x19, #8]!
Lloh653:
	adrp	x20, _camlBoyer__Pmakeblock6118@PAGE
Lloh654:
	add	x20, x20, _camlBoyer__Pmakeblock6118@PAGEOFF
	add	x0, x20, #8
	mov	x29, sp
	.cfi_remember_state
	.cfi_def_cfa_register w29
	ldr	x16, [x28, #104]
	mov	sp, x16
	bl	_caml_initialize
	mov	sp, x29
	.cfi_restore_state
	ldr	x1, [x21]
Lloh655:
	adrp	x0, _camlBoyer__Pmakeblock6117@PAGE+8
Lloh656:
	add	x0, x0, _camlBoyer__Pmakeblock6117@PAGEOFF+8
	mov	x29, sp
	.cfi_remember_state
	.cfi_def_cfa_register w29
	ldr	x16, [x28, #104]
	mov	sp, x16
	bl	_caml_initialize
	mov	sp, x29
	.cfi_restore_state
	mov	x0, x19
	mov	x1, x20
	mov	x29, sp
	.cfi_remember_state
	.cfi_def_cfa_register w29
	ldr	x16, [x28, #104]
	mov	sp, x16
	bl	_caml_modify
	mov	sp, x29
	.cfi_restore_state
Lloh657:
	adrp	x0, _camlBoyer__const_block1934@PAGE
Lloh658:
	add	x0, x0, _camlBoyer__const_block1934@PAGEOFF
	bl	_camlBoyer__cterm_to_term_14_35_code
Ltmp132:
	ldurb	w8, [x0, #-8]
	cbz	w8, LBB19_538
; %bb.358:                              ; %L3673
	ldr	x20, [x0, #8]
	tbnz	w20, #0, LBB19_539
; %bb.359:                              ; %L3679
	ldr	x19, [x20]
Lloh659:
	adrp	x0, _camlBoyer__Pmakeblock6150@PAGE
Lloh660:
	add	x0, x0, _camlBoyer__Pmakeblock6150@PAGEOFF
	mov	x1, x19
	mov	x29, sp
	.cfi_remember_state
	.cfi_def_cfa_register w29
	ldr	x16, [x28, #104]
	mov	sp, x16
	bl	_caml_initialize
	mov	sp, x29
	.cfi_restore_state
	ldurb	w8, [x19, #-8]
	cbz	w8, LBB19_538
; %bb.360:                              ; %L3685
	ldr	x21, [x20, #8]
	tbnz	w21, #0, LBB19_539
; %bb.361:                              ; %L3691
	ldrb	w8, [x21, #8]
	tbz	w8, #0, LBB19_538
; %bb.362:                              ; %L3695
	ldr	x19, [x19]
	ldr	x1, [x19, #8]!
Lloh661:
	adrp	x20, _camlBoyer__Pmakeblock6151@PAGE
Lloh662:
	add	x20, x20, _camlBoyer__Pmakeblock6151@PAGEOFF
	add	x0, x20, #8
	mov	x29, sp
	.cfi_remember_state
	.cfi_def_cfa_register w29
	ldr	x16, [x28, #104]
	mov	sp, x16
	bl	_caml_initialize
	mov	sp, x29
	.cfi_restore_state
	ldr	x1, [x21]
Lloh663:
	adrp	x0, _camlBoyer__Pmakeblock6150@PAGE+8
Lloh664:
	add	x0, x0, _camlBoyer__Pmakeblock6150@PAGEOFF+8
	mov	x29, sp
	.cfi_remember_state
	.cfi_def_cfa_register w29
	ldr	x16, [x28, #104]
	mov	sp, x16
	bl	_caml_initialize
	mov	sp, x29
	.cfi_restore_state
	mov	x0, x19
	mov	x1, x20
	mov	x29, sp
	.cfi_remember_state
	.cfi_def_cfa_register w29
	ldr	x16, [x28, #104]
	mov	sp, x16
	bl	_caml_modify
	mov	sp, x29
	.cfi_restore_state
Lloh665:
	adrp	x0, _camlBoyer__const_block1949@PAGE
Lloh666:
	add	x0, x0, _camlBoyer__const_block1949@PAGEOFF
	bl	_camlBoyer__cterm_to_term_14_35_code
Ltmp133:
	ldurb	w8, [x0, #-8]
	cbz	w8, LBB19_538
; %bb.363:                              ; %L3710
	ldr	x20, [x0, #8]
	tbnz	w20, #0, LBB19_539
; %bb.364:                              ; %L3716
	ldr	x19, [x20]
Lloh667:
	adrp	x0, _camlBoyer__Pmakeblock6183@PAGE
Lloh668:
	add	x0, x0, _camlBoyer__Pmakeblock6183@PAGEOFF
	mov	x1, x19
	mov	x29, sp
	.cfi_remember_state
	.cfi_def_cfa_register w29
	ldr	x16, [x28, #104]
	mov	sp, x16
	bl	_caml_initialize
	mov	sp, x29
	.cfi_restore_state
	ldurb	w8, [x19, #-8]
	cbz	w8, LBB19_538
; %bb.365:                              ; %L3722
	ldr	x21, [x20, #8]
	tbnz	w21, #0, LBB19_539
; %bb.366:                              ; %L3728
	ldrb	w8, [x21, #8]
	tbz	w8, #0, LBB19_538
; %bb.367:                              ; %L3732
	ldr	x19, [x19]
	ldr	x1, [x19, #8]!
Lloh669:
	adrp	x20, _camlBoyer__Pmakeblock6184@PAGE
Lloh670:
	add	x20, x20, _camlBoyer__Pmakeblock6184@PAGEOFF
	add	x0, x20, #8
	mov	x29, sp
	.cfi_remember_state
	.cfi_def_cfa_register w29
	ldr	x16, [x28, #104]
	mov	sp, x16
	bl	_caml_initialize
	mov	sp, x29
	.cfi_restore_state
	ldr	x1, [x21]
Lloh671:
	adrp	x0, _camlBoyer__Pmakeblock6183@PAGE+8
Lloh672:
	add	x0, x0, _camlBoyer__Pmakeblock6183@PAGEOFF+8
	mov	x29, sp
	.cfi_remember_state
	.cfi_def_cfa_register w29
	ldr	x16, [x28, #104]
	mov	sp, x16
	bl	_caml_initialize
	mov	sp, x29
	.cfi_restore_state
	mov	x0, x19
	mov	x1, x20
	mov	x29, sp
	.cfi_remember_state
	.cfi_def_cfa_register w29
	ldr	x16, [x28, #104]
	mov	sp, x16
	bl	_caml_modify
	mov	sp, x29
	.cfi_restore_state
Lloh673:
	adrp	x0, _camlBoyer__const_block1964@PAGE
Lloh674:
	add	x0, x0, _camlBoyer__const_block1964@PAGEOFF
	bl	_camlBoyer__cterm_to_term_14_35_code
Ltmp134:
	ldurb	w8, [x0, #-8]
	cbz	w8, LBB19_538
; %bb.368:                              ; %L3747
	ldr	x20, [x0, #8]
	tbnz	w20, #0, LBB19_539
; %bb.369:                              ; %L3753
	ldr	x19, [x20]
Lloh675:
	adrp	x0, _camlBoyer__Pmakeblock6216@PAGE
Lloh676:
	add	x0, x0, _camlBoyer__Pmakeblock6216@PAGEOFF
	mov	x1, x19
	mov	x29, sp
	.cfi_remember_state
	.cfi_def_cfa_register w29
	ldr	x16, [x28, #104]
	mov	sp, x16
	bl	_caml_initialize
	mov	sp, x29
	.cfi_restore_state
	ldurb	w8, [x19, #-8]
	cbz	w8, LBB19_538
; %bb.370:                              ; %L3759
	ldr	x21, [x20, #8]
	tbnz	w21, #0, LBB19_539
; %bb.371:                              ; %L3765
	ldrb	w8, [x21, #8]
	tbz	w8, #0, LBB19_538
; %bb.372:                              ; %L3769
	ldr	x19, [x19]
	ldr	x1, [x19, #8]!
Lloh677:
	adrp	x20, _camlBoyer__Pmakeblock6217@PAGE
Lloh678:
	add	x20, x20, _camlBoyer__Pmakeblock6217@PAGEOFF
	add	x0, x20, #8
	mov	x29, sp
	.cfi_remember_state
	.cfi_def_cfa_register w29
	ldr	x16, [x28, #104]
	mov	sp, x16
	bl	_caml_initialize
	mov	sp, x29
	.cfi_restore_state
	ldr	x1, [x21]
Lloh679:
	adrp	x0, _camlBoyer__Pmakeblock6216@PAGE+8
Lloh680:
	add	x0, x0, _camlBoyer__Pmakeblock6216@PAGEOFF+8
	mov	x29, sp
	.cfi_remember_state
	.cfi_def_cfa_register w29
	ldr	x16, [x28, #104]
	mov	sp, x16
	bl	_caml_initialize
	mov	sp, x29
	.cfi_restore_state
	mov	x0, x19
	mov	x1, x20
	mov	x29, sp
	.cfi_remember_state
	.cfi_def_cfa_register w29
	ldr	x16, [x28, #104]
	mov	sp, x16
	bl	_caml_modify
	mov	sp, x29
	.cfi_restore_state
Lloh681:
	adrp	x0, _camlBoyer__const_block1993@PAGE
Lloh682:
	add	x0, x0, _camlBoyer__const_block1993@PAGEOFF
	bl	_camlBoyer__cterm_to_term_14_35_code
Ltmp135:
	ldurb	w8, [x0, #-8]
	cbz	w8, LBB19_538
; %bb.373:                              ; %L3784
	ldr	x20, [x0, #8]
	tbnz	w20, #0, LBB19_540
; %bb.374:                              ; %L3790
	ldr	x19, [x20]
Lloh683:
	adrp	x0, _camlBoyer__Pmakeblock6249@PAGE
Lloh684:
	add	x0, x0, _camlBoyer__Pmakeblock6249@PAGEOFF
	mov	x1, x19
	mov	x29, sp
	.cfi_remember_state
	.cfi_def_cfa_register w29
	ldr	x16, [x28, #104]
	mov	sp, x16
	bl	_caml_initialize
	mov	sp, x29
	.cfi_restore_state
	ldurb	w8, [x19, #-8]
	cbz	w8, LBB19_538
; %bb.375:                              ; %L3796
	ldr	x21, [x20, #8]
	tbnz	w21, #0, LBB19_540
; %bb.376:                              ; %L3802
	ldrb	w8, [x21, #8]
	tbz	w8, #0, LBB19_538
; %bb.377:                              ; %L3806
	ldr	x19, [x19]
	ldr	x1, [x19, #8]!
Lloh685:
	adrp	x20, _camlBoyer__Pmakeblock6250@PAGE
Lloh686:
	add	x20, x20, _camlBoyer__Pmakeblock6250@PAGEOFF
	add	x0, x20, #8
	mov	x29, sp
	.cfi_remember_state
	.cfi_def_cfa_register w29
	ldr	x16, [x28, #104]
	mov	sp, x16
	bl	_caml_initialize
	mov	sp, x29
	.cfi_restore_state
	ldr	x1, [x21]
Lloh687:
	adrp	x0, _camlBoyer__Pmakeblock6249@PAGE+8
Lloh688:
	add	x0, x0, _camlBoyer__Pmakeblock6249@PAGEOFF+8
	mov	x29, sp
	.cfi_remember_state
	.cfi_def_cfa_register w29
	ldr	x16, [x28, #104]
	mov	sp, x16
	bl	_caml_initialize
	mov	sp, x29
	.cfi_restore_state
	mov	x0, x19
	mov	x1, x20
	mov	x29, sp
	.cfi_remember_state
	.cfi_def_cfa_register w29
	ldr	x16, [x28, #104]
	mov	sp, x16
	bl	_caml_modify
	mov	sp, x29
	.cfi_restore_state
Lloh689:
	adrp	x0, _camlBoyer__const_block2012@PAGE
Lloh690:
	add	x0, x0, _camlBoyer__const_block2012@PAGEOFF
	bl	_camlBoyer__cterm_to_term_14_35_code
Ltmp136:
	ldurb	w8, [x0, #-8]
	cbz	w8, LBB19_538
; %bb.378:                              ; %L3821
	ldr	x20, [x0, #8]
	tbnz	w20, #0, LBB19_538
; %bb.379:                              ; %L3827
	ldr	x19, [x20]
Lloh691:
	adrp	x0, _camlBoyer__Pmakeblock6282@PAGE
Lloh692:
	add	x0, x0, _camlBoyer__Pmakeblock6282@PAGEOFF
	mov	x1, x19
	mov	x29, sp
	.cfi_remember_state
	.cfi_def_cfa_register w29
	ldr	x16, [x28, #104]
	mov	sp, x16
	bl	_caml_initialize
	mov	sp, x29
	.cfi_restore_state
	ldurb	w8, [x19, #-8]
	cbz	w8, LBB19_538
; %bb.380:                              ; %L3833
	ldr	x21, [x20, #8]
	tbnz	w21, #0, LBB19_538
; %bb.381:                              ; %L3839
	ldrb	w8, [x21, #8]
	tbz	w8, #0, LBB19_538
; %bb.382:                              ; %L3843
	ldr	x19, [x19]
	ldr	x1, [x19, #8]!
Lloh693:
	adrp	x20, _camlBoyer__Pmakeblock6283@PAGE
Lloh694:
	add	x20, x20, _camlBoyer__Pmakeblock6283@PAGEOFF
	add	x0, x20, #8
	mov	x29, sp
	.cfi_remember_state
	.cfi_def_cfa_register w29
	ldr	x16, [x28, #104]
	mov	sp, x16
	bl	_caml_initialize
	mov	sp, x29
	.cfi_restore_state
	ldr	x1, [x21]
Lloh695:
	adrp	x0, _camlBoyer__Pmakeblock6282@PAGE+8
Lloh696:
	add	x0, x0, _camlBoyer__Pmakeblock6282@PAGEOFF+8
	mov	x29, sp
	.cfi_remember_state
	.cfi_def_cfa_register w29
	ldr	x16, [x28, #104]
	mov	sp, x16
	bl	_caml_initialize
	mov	sp, x29
	.cfi_restore_state
	mov	x0, x19
	mov	x1, x20
	mov	x29, sp
	.cfi_remember_state
	.cfi_def_cfa_register w29
	ldr	x16, [x28, #104]
	mov	sp, x16
	bl	_caml_modify
	mov	sp, x29
	.cfi_restore_state
Lloh697:
	adrp	x0, _camlBoyer__const_block2031@PAGE
Lloh698:
	add	x0, x0, _camlBoyer__const_block2031@PAGEOFF
	bl	_camlBoyer__cterm_to_term_14_35_code
Ltmp137:
	ldurb	w8, [x0, #-8]
	cbz	w8, LBB19_538
; %bb.383:                              ; %L3858
	ldr	x20, [x0, #8]
	tbnz	w20, #0, LBB19_538
; %bb.384:                              ; %L3864
	ldr	x19, [x20]
Lloh699:
	adrp	x0, _camlBoyer__Pmakeblock6315@PAGE
Lloh700:
	add	x0, x0, _camlBoyer__Pmakeblock6315@PAGEOFF
	mov	x1, x19
	mov	x29, sp
	.cfi_remember_state
	.cfi_def_cfa_register w29
	ldr	x16, [x28, #104]
	mov	sp, x16
	bl	_caml_initialize
	mov	sp, x29
	.cfi_restore_state
	ldurb	w8, [x19, #-8]
	cbz	w8, LBB19_538
; %bb.385:                              ; %L3870
	ldr	x21, [x20, #8]
	tbnz	w21, #0, LBB19_538
; %bb.386:                              ; %L3876
	ldrb	w8, [x21, #8]
	tbz	w8, #0, LBB19_538
; %bb.387:                              ; %L3880
	ldr	x19, [x19]
	ldr	x1, [x19, #8]!
Lloh701:
	adrp	x20, _camlBoyer__Pmakeblock6316@PAGE
Lloh702:
	add	x20, x20, _camlBoyer__Pmakeblock6316@PAGEOFF
	add	x0, x20, #8
	mov	x29, sp
	.cfi_remember_state
	.cfi_def_cfa_register w29
	ldr	x16, [x28, #104]
	mov	sp, x16
	bl	_caml_initialize
	mov	sp, x29
	.cfi_restore_state
	ldr	x1, [x21]
Lloh703:
	adrp	x0, _camlBoyer__Pmakeblock6315@PAGE+8
Lloh704:
	add	x0, x0, _camlBoyer__Pmakeblock6315@PAGEOFF+8
	mov	x29, sp
	.cfi_remember_state
	.cfi_def_cfa_register w29
	ldr	x16, [x28, #104]
	mov	sp, x16
	bl	_caml_initialize
	mov	sp, x29
	.cfi_restore_state
	mov	x0, x19
	mov	x1, x20
	mov	x29, sp
	.cfi_remember_state
	.cfi_def_cfa_register w29
	ldr	x16, [x28, #104]
	mov	sp, x16
	bl	_caml_modify
	mov	sp, x29
	.cfi_restore_state
Lloh705:
	adrp	x0, _camlBoyer__const_block2060@PAGE
Lloh706:
	add	x0, x0, _camlBoyer__const_block2060@PAGEOFF
	bl	_camlBoyer__cterm_to_term_14_35_code
Ltmp138:
	ldurb	w8, [x0, #-8]
	cbz	w8, LBB19_538
; %bb.388:                              ; %L3895
	ldr	x20, [x0, #8]
	tbnz	w20, #0, LBB19_538
; %bb.389:                              ; %L3901
	ldr	x19, [x20]
Lloh707:
	adrp	x0, _camlBoyer__Pmakeblock6348@PAGE
Lloh708:
	add	x0, x0, _camlBoyer__Pmakeblock6348@PAGEOFF
	mov	x1, x19
	mov	x29, sp
	.cfi_remember_state
	.cfi_def_cfa_register w29
	ldr	x16, [x28, #104]
	mov	sp, x16
	bl	_caml_initialize
	mov	sp, x29
	.cfi_restore_state
	ldurb	w8, [x19, #-8]
	cbz	w8, LBB19_538
; %bb.390:                              ; %L3907
	ldr	x21, [x20, #8]
	tbnz	w21, #0, LBB19_538
; %bb.391:                              ; %L3913
	ldrb	w8, [x21, #8]
	tbz	w8, #0, LBB19_538
; %bb.392:                              ; %L3917
	ldr	x19, [x19]
	ldr	x1, [x19, #8]!
Lloh709:
	adrp	x20, _camlBoyer__Pmakeblock6349@PAGE
Lloh710:
	add	x20, x20, _camlBoyer__Pmakeblock6349@PAGEOFF
	add	x0, x20, #8
	mov	x29, sp
	.cfi_remember_state
	.cfi_def_cfa_register w29
	ldr	x16, [x28, #104]
	mov	sp, x16
	bl	_caml_initialize
	mov	sp, x29
	.cfi_restore_state
	ldr	x1, [x21]
Lloh711:
	adrp	x0, _camlBoyer__Pmakeblock6348@PAGE+8
Lloh712:
	add	x0, x0, _camlBoyer__Pmakeblock6348@PAGEOFF+8
	mov	x29, sp
	.cfi_remember_state
	.cfi_def_cfa_register w29
	ldr	x16, [x28, #104]
	mov	sp, x16
	bl	_caml_initialize
	mov	sp, x29
	.cfi_restore_state
	mov	x0, x19
	mov	x1, x20
	mov	x29, sp
	.cfi_remember_state
	.cfi_def_cfa_register w29
	ldr	x16, [x28, #104]
	mov	sp, x16
	bl	_caml_modify
	mov	sp, x29
	.cfi_restore_state
Lloh713:
	adrp	x0, _camlBoyer__const_block2075@PAGE
Lloh714:
	add	x0, x0, _camlBoyer__const_block2075@PAGEOFF
	bl	_camlBoyer__cterm_to_term_14_35_code
Ltmp139:
	ldurb	w8, [x0, #-8]
	cbz	w8, LBB19_538
; %bb.393:                              ; %L3932
	ldr	x20, [x0, #8]
	tbnz	w20, #0, LBB19_538
; %bb.394:                              ; %L3938
	ldr	x19, [x20]
Lloh715:
	adrp	x0, _camlBoyer__Pmakeblock6381@PAGE
Lloh716:
	add	x0, x0, _camlBoyer__Pmakeblock6381@PAGEOFF
	mov	x1, x19
	mov	x29, sp
	.cfi_remember_state
	.cfi_def_cfa_register w29
	ldr	x16, [x28, #104]
	mov	sp, x16
	bl	_caml_initialize
	mov	sp, x29
	.cfi_restore_state
	ldurb	w8, [x19, #-8]
	cbz	w8, LBB19_538
; %bb.395:                              ; %L3944
	ldr	x21, [x20, #8]
	tbnz	w21, #0, LBB19_538
; %bb.396:                              ; %L3950
	ldrb	w8, [x21, #8]
	tbz	w8, #0, LBB19_538
; %bb.397:                              ; %L3954
	ldr	x19, [x19]
	ldr	x1, [x19, #8]!
Lloh717:
	adrp	x20, _camlBoyer__Pmakeblock6382@PAGE
Lloh718:
	add	x20, x20, _camlBoyer__Pmakeblock6382@PAGEOFF
	add	x0, x20, #8
	mov	x29, sp
	.cfi_remember_state
	.cfi_def_cfa_register w29
	ldr	x16, [x28, #104]
	mov	sp, x16
	bl	_caml_initialize
	mov	sp, x29
	.cfi_restore_state
	ldr	x1, [x21]
Lloh719:
	adrp	x0, _camlBoyer__Pmakeblock6381@PAGE+8
Lloh720:
	add	x0, x0, _camlBoyer__Pmakeblock6381@PAGEOFF+8
	mov	x29, sp
	.cfi_remember_state
	.cfi_def_cfa_register w29
	ldr	x16, [x28, #104]
	mov	sp, x16
	bl	_caml_initialize
	mov	sp, x29
	.cfi_restore_state
	mov	x0, x19
	mov	x1, x20
	mov	x29, sp
	.cfi_remember_state
	.cfi_def_cfa_register w29
	ldr	x16, [x28, #104]
	mov	sp, x16
	bl	_caml_modify
	mov	sp, x29
	.cfi_restore_state
Lloh721:
	adrp	x0, _camlBoyer__const_block2094@PAGE
Lloh722:
	add	x0, x0, _camlBoyer__const_block2094@PAGEOFF
	bl	_camlBoyer__cterm_to_term_14_35_code
Ltmp140:
	ldurb	w8, [x0, #-8]
	cbz	w8, LBB19_538
; %bb.398:                              ; %L3969
	ldr	x20, [x0, #8]
	tbnz	w20, #0, LBB19_538
; %bb.399:                              ; %L3975
	ldr	x19, [x20]
Lloh723:
	adrp	x0, _camlBoyer__Pmakeblock6414@PAGE
Lloh724:
	add	x0, x0, _camlBoyer__Pmakeblock6414@PAGEOFF
	mov	x1, x19
	mov	x29, sp
	.cfi_remember_state
	.cfi_def_cfa_register w29
	ldr	x16, [x28, #104]
	mov	sp, x16
	bl	_caml_initialize
	mov	sp, x29
	.cfi_restore_state
	ldurb	w8, [x19, #-8]
	cbz	w8, LBB19_538
; %bb.400:                              ; %L3981
	ldr	x21, [x20, #8]
	tbnz	w21, #0, LBB19_538
; %bb.401:                              ; %L3987
	ldrb	w8, [x21, #8]
	tbz	w8, #0, LBB19_538
; %bb.402:                              ; %L3991
	ldr	x19, [x19]
	ldr	x1, [x19, #8]!
Lloh725:
	adrp	x20, _camlBoyer__Pmakeblock6415@PAGE
Lloh726:
	add	x20, x20, _camlBoyer__Pmakeblock6415@PAGEOFF
	add	x0, x20, #8
	mov	x29, sp
	.cfi_remember_state
	.cfi_def_cfa_register w29
	ldr	x16, [x28, #104]
	mov	sp, x16
	bl	_caml_initialize
	mov	sp, x29
	.cfi_restore_state
	ldr	x1, [x21]
Lloh727:
	adrp	x0, _camlBoyer__Pmakeblock6414@PAGE+8
Lloh728:
	add	x0, x0, _camlBoyer__Pmakeblock6414@PAGEOFF+8
	mov	x29, sp
	.cfi_remember_state
	.cfi_def_cfa_register w29
	ldr	x16, [x28, #104]
	mov	sp, x16
	bl	_caml_initialize
	mov	sp, x29
	.cfi_restore_state
	mov	x0, x19
	mov	x1, x20
	mov	x29, sp
	.cfi_remember_state
	.cfi_def_cfa_register w29
	ldr	x16, [x28, #104]
	mov	sp, x16
	bl	_caml_modify
	mov	sp, x29
	.cfi_restore_state
Lloh729:
	adrp	x0, _camlBoyer__const_block2115@PAGE
Lloh730:
	add	x0, x0, _camlBoyer__const_block2115@PAGEOFF
	bl	_camlBoyer__cterm_to_term_14_35_code
Ltmp141:
	ldurb	w8, [x0, #-8]
	cbz	w8, LBB19_538
; %bb.403:                              ; %L4006
	ldr	x20, [x0, #8]
	tbnz	w20, #0, LBB19_538
; %bb.404:                              ; %L4012
	ldr	x19, [x20]
Lloh731:
	adrp	x0, _camlBoyer__Pmakeblock6447@PAGE
Lloh732:
	add	x0, x0, _camlBoyer__Pmakeblock6447@PAGEOFF
	mov	x1, x19
	mov	x29, sp
	.cfi_remember_state
	.cfi_def_cfa_register w29
	ldr	x16, [x28, #104]
	mov	sp, x16
	bl	_caml_initialize
	mov	sp, x29
	.cfi_restore_state
	ldurb	w8, [x19, #-8]
	cbz	w8, LBB19_538
; %bb.405:                              ; %L4018
	ldr	x21, [x20, #8]
	tbnz	w21, #0, LBB19_538
; %bb.406:                              ; %L4024
	ldrb	w8, [x21, #8]
	tbz	w8, #0, LBB19_538
; %bb.407:                              ; %L4028
	ldr	x19, [x19]
	ldr	x1, [x19, #8]!
Lloh733:
	adrp	x20, _camlBoyer__Pmakeblock6448@PAGE
Lloh734:
	add	x20, x20, _camlBoyer__Pmakeblock6448@PAGEOFF
	add	x0, x20, #8
	mov	x29, sp
	.cfi_remember_state
	.cfi_def_cfa_register w29
	ldr	x16, [x28, #104]
	mov	sp, x16
	bl	_caml_initialize
	mov	sp, x29
	.cfi_restore_state
	ldr	x1, [x21]
Lloh735:
	adrp	x0, _camlBoyer__Pmakeblock6447@PAGE+8
Lloh736:
	add	x0, x0, _camlBoyer__Pmakeblock6447@PAGEOFF+8
	mov	x29, sp
	.cfi_remember_state
	.cfi_def_cfa_register w29
	ldr	x16, [x28, #104]
	mov	sp, x16
	bl	_caml_initialize
	mov	sp, x29
	.cfi_restore_state
	mov	x0, x19
	mov	x1, x20
	mov	x29, sp
	.cfi_remember_state
	.cfi_def_cfa_register w29
	ldr	x16, [x28, #104]
	mov	sp, x16
	bl	_caml_modify
	mov	sp, x29
	.cfi_restore_state
Lloh737:
	adrp	x0, _camlBoyer__const_block2136@PAGE
Lloh738:
	add	x0, x0, _camlBoyer__const_block2136@PAGEOFF
	bl	_camlBoyer__cterm_to_term_14_35_code
Ltmp142:
	ldurb	w8, [x0, #-8]
	cbz	w8, LBB19_538
; %bb.408:                              ; %L4043
	ldr	x20, [x0, #8]
	tbnz	w20, #0, LBB19_538
; %bb.409:                              ; %L4049
	ldr	x19, [x20]
Lloh739:
	adrp	x0, _camlBoyer__Pmakeblock6480@PAGE
Lloh740:
	add	x0, x0, _camlBoyer__Pmakeblock6480@PAGEOFF
	mov	x1, x19
	mov	x29, sp
	.cfi_remember_state
	.cfi_def_cfa_register w29
	ldr	x16, [x28, #104]
	mov	sp, x16
	bl	_caml_initialize
	mov	sp, x29
	.cfi_restore_state
	ldurb	w8, [x19, #-8]
	cbz	w8, LBB19_538
; %bb.410:                              ; %L4055
	ldr	x21, [x20, #8]
	tbnz	w21, #0, LBB19_538
; %bb.411:                              ; %L4061
	ldrb	w8, [x21, #8]
	tbz	w8, #0, LBB19_538
; %bb.412:                              ; %L4065
	ldr	x19, [x19]
	ldr	x1, [x19, #8]!
Lloh741:
	adrp	x20, _camlBoyer__Pmakeblock6481@PAGE
Lloh742:
	add	x20, x20, _camlBoyer__Pmakeblock6481@PAGEOFF
	add	x0, x20, #8
	mov	x29, sp
	.cfi_remember_state
	.cfi_def_cfa_register w29
	ldr	x16, [x28, #104]
	mov	sp, x16
	bl	_caml_initialize
	mov	sp, x29
	.cfi_restore_state
	ldr	x1, [x21]
Lloh743:
	adrp	x0, _camlBoyer__Pmakeblock6480@PAGE+8
Lloh744:
	add	x0, x0, _camlBoyer__Pmakeblock6480@PAGEOFF+8
	mov	x29, sp
	.cfi_remember_state
	.cfi_def_cfa_register w29
	ldr	x16, [x28, #104]
	mov	sp, x16
	bl	_caml_initialize
	mov	sp, x29
	.cfi_restore_state
	mov	x0, x19
	mov	x1, x20
	mov	x29, sp
	.cfi_remember_state
	.cfi_def_cfa_register w29
	ldr	x16, [x28, #104]
	mov	sp, x16
	bl	_caml_modify
	mov	sp, x29
	.cfi_restore_state
Lloh745:
	adrp	x0, _camlBoyer__const_block2175@PAGE
Lloh746:
	add	x0, x0, _camlBoyer__const_block2175@PAGEOFF
	bl	_camlBoyer__cterm_to_term_14_35_code
Ltmp143:
	ldurb	w8, [x0, #-8]
	cbz	w8, LBB19_538
; %bb.413:                              ; %L4080
	ldr	x20, [x0, #8]
	tbnz	w20, #0, LBB19_538
; %bb.414:                              ; %L4086
	ldr	x19, [x20]
Lloh747:
	adrp	x0, _camlBoyer__Pmakeblock6513@PAGE
Lloh748:
	add	x0, x0, _camlBoyer__Pmakeblock6513@PAGEOFF
	mov	x1, x19
	mov	x29, sp
	.cfi_remember_state
	.cfi_def_cfa_register w29
	ldr	x16, [x28, #104]
	mov	sp, x16
	bl	_caml_initialize
	mov	sp, x29
	.cfi_restore_state
	ldurb	w8, [x19, #-8]
	cbz	w8, LBB19_538
; %bb.415:                              ; %L4092
	ldr	x21, [x20, #8]
	tbnz	w21, #0, LBB19_538
; %bb.416:                              ; %L4098
	ldrb	w8, [x21, #8]
	tbz	w8, #0, LBB19_538
; %bb.417:                              ; %L4102
	ldr	x19, [x19]
	ldr	x1, [x19, #8]!
Lloh749:
	adrp	x20, _camlBoyer__Pmakeblock6514@PAGE
Lloh750:
	add	x20, x20, _camlBoyer__Pmakeblock6514@PAGEOFF
	add	x0, x20, #8
	mov	x29, sp
	.cfi_remember_state
	.cfi_def_cfa_register w29
	ldr	x16, [x28, #104]
	mov	sp, x16
	bl	_caml_initialize
	mov	sp, x29
	.cfi_restore_state
	ldr	x1, [x21]
Lloh751:
	adrp	x0, _camlBoyer__Pmakeblock6513@PAGE+8
Lloh752:
	add	x0, x0, _camlBoyer__Pmakeblock6513@PAGEOFF+8
	mov	x29, sp
	.cfi_remember_state
	.cfi_def_cfa_register w29
	ldr	x16, [x28, #104]
	mov	sp, x16
	bl	_caml_initialize
	mov	sp, x29
	.cfi_restore_state
	mov	x0, x19
	mov	x1, x20
	mov	x29, sp
	.cfi_remember_state
	.cfi_def_cfa_register w29
	ldr	x16, [x28, #104]
	mov	sp, x16
	bl	_caml_modify
	mov	sp, x29
	.cfi_restore_state
Lloh753:
	adrp	x0, _camlBoyer__const_block2180@PAGE
Lloh754:
	add	x0, x0, _camlBoyer__const_block2180@PAGEOFF
	bl	_camlBoyer__cterm_to_term_14_35_code
Ltmp144:
	ldurb	w8, [x0, #-8]
	cbz	w8, LBB19_538
; %bb.418:                              ; %L4117
	ldr	x20, [x0, #8]
	tbnz	w20, #0, LBB19_538
; %bb.419:                              ; %L4123
	ldr	x19, [x20]
Lloh755:
	adrp	x0, _camlBoyer__Pmakeblock6546@PAGE
Lloh756:
	add	x0, x0, _camlBoyer__Pmakeblock6546@PAGEOFF
	mov	x1, x19
	mov	x29, sp
	.cfi_remember_state
	.cfi_def_cfa_register w29
	ldr	x16, [x28, #104]
	mov	sp, x16
	bl	_caml_initialize
	mov	sp, x29
	.cfi_restore_state
	ldurb	w8, [x19, #-8]
	cbz	w8, LBB19_538
; %bb.420:                              ; %L4129
	ldr	x21, [x20, #8]
	tbnz	w21, #0, LBB19_538
; %bb.421:                              ; %L4135
	ldrb	w8, [x21, #8]
	tbz	w8, #0, LBB19_538
; %bb.422:                              ; %L4139
	ldr	x19, [x19]
	ldr	x1, [x19, #8]!
Lloh757:
	adrp	x20, _camlBoyer__Pmakeblock6547@PAGE
Lloh758:
	add	x20, x20, _camlBoyer__Pmakeblock6547@PAGEOFF
	add	x0, x20, #8
	mov	x29, sp
	.cfi_remember_state
	.cfi_def_cfa_register w29
	ldr	x16, [x28, #104]
	mov	sp, x16
	bl	_caml_initialize
	mov	sp, x29
	.cfi_restore_state
	ldr	x1, [x21]
Lloh759:
	adrp	x0, _camlBoyer__Pmakeblock6546@PAGE+8
Lloh760:
	add	x0, x0, _camlBoyer__Pmakeblock6546@PAGEOFF+8
	mov	x29, sp
	.cfi_remember_state
	.cfi_def_cfa_register w29
	ldr	x16, [x28, #104]
	mov	sp, x16
	bl	_caml_initialize
	mov	sp, x29
	.cfi_restore_state
	mov	x0, x19
	mov	x1, x20
	mov	x29, sp
	.cfi_remember_state
	.cfi_def_cfa_register w29
	ldr	x16, [x28, #104]
	mov	sp, x16
	bl	_caml_modify
	mov	sp, x29
	.cfi_restore_state
Lloh761:
	adrp	x0, _camlBoyer__const_block2203@PAGE
Lloh762:
	add	x0, x0, _camlBoyer__const_block2203@PAGEOFF
	bl	_camlBoyer__cterm_to_term_14_35_code
Ltmp145:
	ldurb	w8, [x0, #-8]
	cbz	w8, LBB19_538
; %bb.423:                              ; %L4154
	ldr	x20, [x0, #8]
	tbnz	w20, #0, LBB19_538
; %bb.424:                              ; %L4160
	ldr	x19, [x20]
Lloh763:
	adrp	x0, _camlBoyer__Pmakeblock6579@PAGE
Lloh764:
	add	x0, x0, _camlBoyer__Pmakeblock6579@PAGEOFF
	mov	x1, x19
	mov	x29, sp
	.cfi_remember_state
	.cfi_def_cfa_register w29
	ldr	x16, [x28, #104]
	mov	sp, x16
	bl	_caml_initialize
	mov	sp, x29
	.cfi_restore_state
	ldurb	w8, [x19, #-8]
	cbz	w8, LBB19_538
; %bb.425:                              ; %L4166
	ldr	x21, [x20, #8]
	tbnz	w21, #0, LBB19_538
; %bb.426:                              ; %L4172
	ldrb	w8, [x21, #8]
	tbz	w8, #0, LBB19_538
; %bb.427:                              ; %L4176
	ldr	x19, [x19]
	ldr	x1, [x19, #8]!
Lloh765:
	adrp	x20, _camlBoyer__Pmakeblock6580@PAGE
Lloh766:
	add	x20, x20, _camlBoyer__Pmakeblock6580@PAGEOFF
	add	x0, x20, #8
	mov	x29, sp
	.cfi_remember_state
	.cfi_def_cfa_register w29
	ldr	x16, [x28, #104]
	mov	sp, x16
	bl	_caml_initialize
	mov	sp, x29
	.cfi_restore_state
	ldr	x1, [x21]
Lloh767:
	adrp	x0, _camlBoyer__Pmakeblock6579@PAGE+8
Lloh768:
	add	x0, x0, _camlBoyer__Pmakeblock6579@PAGEOFF+8
	mov	x29, sp
	.cfi_remember_state
	.cfi_def_cfa_register w29
	ldr	x16, [x28, #104]
	mov	sp, x16
	bl	_caml_initialize
	mov	sp, x29
	.cfi_restore_state
	mov	x0, x19
	mov	x1, x20
	mov	x29, sp
	.cfi_remember_state
	.cfi_def_cfa_register w29
	ldr	x16, [x28, #104]
	mov	sp, x16
	bl	_caml_modify
	mov	sp, x29
	.cfi_restore_state
Lloh769:
	adrp	x0, _camlBoyer__const_block2214@PAGE
Lloh770:
	add	x0, x0, _camlBoyer__const_block2214@PAGEOFF
	bl	_camlBoyer__cterm_to_term_14_35_code
Ltmp146:
	ldurb	w8, [x0, #-8]
	cbz	w8, LBB19_538
; %bb.428:                              ; %L4191
	ldr	x20, [x0, #8]
	tbnz	w20, #0, LBB19_538
; %bb.429:                              ; %L4197
	ldr	x19, [x20]
Lloh771:
	adrp	x0, _camlBoyer__Pmakeblock6612@PAGE
Lloh772:
	add	x0, x0, _camlBoyer__Pmakeblock6612@PAGEOFF
	mov	x1, x19
	mov	x29, sp
	.cfi_remember_state
	.cfi_def_cfa_register w29
	ldr	x16, [x28, #104]
	mov	sp, x16
	bl	_caml_initialize
	mov	sp, x29
	.cfi_restore_state
	ldurb	w8, [x19, #-8]
	cbz	w8, LBB19_538
; %bb.430:                              ; %L4203
	ldr	x21, [x20, #8]
	tbnz	w21, #0, LBB19_538
; %bb.431:                              ; %L4209
	ldrb	w8, [x21, #8]
	tbz	w8, #0, LBB19_538
; %bb.432:                              ; %L4213
	ldr	x19, [x19]
	ldr	x1, [x19, #8]!
Lloh773:
	adrp	x20, _camlBoyer__Pmakeblock6613@PAGE
Lloh774:
	add	x20, x20, _camlBoyer__Pmakeblock6613@PAGEOFF
	add	x0, x20, #8
	mov	x29, sp
	.cfi_remember_state
	.cfi_def_cfa_register w29
	ldr	x16, [x28, #104]
	mov	sp, x16
	bl	_caml_initialize
	mov	sp, x29
	.cfi_restore_state
	ldr	x1, [x21]
Lloh775:
	adrp	x0, _camlBoyer__Pmakeblock6612@PAGE+8
Lloh776:
	add	x0, x0, _camlBoyer__Pmakeblock6612@PAGEOFF+8
	mov	x29, sp
	.cfi_remember_state
	.cfi_def_cfa_register w29
	ldr	x16, [x28, #104]
	mov	sp, x16
	bl	_caml_initialize
	mov	sp, x29
	.cfi_restore_state
	mov	x0, x19
	mov	x1, x20
	mov	x29, sp
	.cfi_remember_state
	.cfi_def_cfa_register w29
	ldr	x16, [x28, #104]
	mov	sp, x16
	bl	_caml_modify
	mov	sp, x29
	.cfi_restore_state
Lloh777:
	adrp	x0, _camlBoyer__const_block2273@PAGE
Lloh778:
	add	x0, x0, _camlBoyer__const_block2273@PAGEOFF
	bl	_camlBoyer__cterm_to_term_14_35_code
Ltmp147:
	ldurb	w8, [x0, #-8]
	cbz	w8, LBB19_538
; %bb.433:                              ; %L4228
	ldr	x20, [x0, #8]
	tbnz	w20, #0, LBB19_538
; %bb.434:                              ; %L4234
	ldr	x19, [x20]
Lloh779:
	adrp	x0, _camlBoyer__Pmakeblock6645@PAGE
Lloh780:
	add	x0, x0, _camlBoyer__Pmakeblock6645@PAGEOFF
	mov	x1, x19
	mov	x29, sp
	.cfi_remember_state
	.cfi_def_cfa_register w29
	ldr	x16, [x28, #104]
	mov	sp, x16
	bl	_caml_initialize
	mov	sp, x29
	.cfi_restore_state
	ldurb	w8, [x19, #-8]
	cbz	w8, LBB19_538
; %bb.435:                              ; %L4240
	ldr	x21, [x20, #8]
	tbnz	w21, #0, LBB19_538
; %bb.436:                              ; %L4246
	ldrb	w8, [x21, #8]
	tbz	w8, #0, LBB19_538
; %bb.437:                              ; %L4250
	ldr	x19, [x19]
	ldr	x1, [x19, #8]!
Lloh781:
	adrp	x20, _camlBoyer__Pmakeblock6646@PAGE
Lloh782:
	add	x20, x20, _camlBoyer__Pmakeblock6646@PAGEOFF
	add	x0, x20, #8
	mov	x29, sp
	.cfi_remember_state
	.cfi_def_cfa_register w29
	ldr	x16, [x28, #104]
	mov	sp, x16
	bl	_caml_initialize
	mov	sp, x29
	.cfi_restore_state
	ldr	x1, [x21]
Lloh783:
	adrp	x0, _camlBoyer__Pmakeblock6645@PAGE+8
Lloh784:
	add	x0, x0, _camlBoyer__Pmakeblock6645@PAGEOFF+8
	mov	x29, sp
	.cfi_remember_state
	.cfi_def_cfa_register w29
	ldr	x16, [x28, #104]
	mov	sp, x16
	bl	_caml_initialize
	mov	sp, x29
	.cfi_restore_state
	mov	x0, x19
	mov	x1, x20
	mov	x29, sp
	.cfi_remember_state
	.cfi_def_cfa_register w29
	ldr	x16, [x28, #104]
	mov	sp, x16
	bl	_caml_modify
	mov	sp, x29
	.cfi_restore_state
Lloh785:
	adrp	x0, _camlBoyer__const_block2302@PAGE
Lloh786:
	add	x0, x0, _camlBoyer__const_block2302@PAGEOFF
	bl	_camlBoyer__cterm_to_term_14_35_code
Ltmp148:
	ldurb	w8, [x0, #-8]
	cbz	w8, LBB19_538
; %bb.438:                              ; %L4265
	ldr	x20, [x0, #8]
	tbnz	w20, #0, LBB19_538
; %bb.439:                              ; %L4271
	ldr	x19, [x20]
Lloh787:
	adrp	x0, _camlBoyer__Pmakeblock6678@PAGE
Lloh788:
	add	x0, x0, _camlBoyer__Pmakeblock6678@PAGEOFF
	mov	x1, x19
	mov	x29, sp
	.cfi_remember_state
	.cfi_def_cfa_register w29
	ldr	x16, [x28, #104]
	mov	sp, x16
	bl	_caml_initialize
	mov	sp, x29
	.cfi_restore_state
	ldurb	w8, [x19, #-8]
	cbz	w8, LBB19_538
; %bb.440:                              ; %L4277
	ldr	x21, [x20, #8]
	tbnz	w21, #0, LBB19_538
; %bb.441:                              ; %L4283
	ldrb	w8, [x21, #8]
	tbz	w8, #0, LBB19_538
; %bb.442:                              ; %L4287
	ldr	x19, [x19]
	ldr	x1, [x19, #8]!
Lloh789:
	adrp	x20, _camlBoyer__Pmakeblock6679@PAGE
Lloh790:
	add	x20, x20, _camlBoyer__Pmakeblock6679@PAGEOFF
	add	x0, x20, #8
	mov	x29, sp
	.cfi_remember_state
	.cfi_def_cfa_register w29
	ldr	x16, [x28, #104]
	mov	sp, x16
	bl	_caml_initialize
	mov	sp, x29
	.cfi_restore_state
	ldr	x1, [x21]
Lloh791:
	adrp	x0, _camlBoyer__Pmakeblock6678@PAGE+8
Lloh792:
	add	x0, x0, _camlBoyer__Pmakeblock6678@PAGEOFF+8
	mov	x29, sp
	.cfi_remember_state
	.cfi_def_cfa_register w29
	ldr	x16, [x28, #104]
	mov	sp, x16
	bl	_caml_initialize
	mov	sp, x29
	.cfi_restore_state
	mov	x0, x19
	mov	x1, x20
	mov	x29, sp
	.cfi_remember_state
	.cfi_def_cfa_register w29
	ldr	x16, [x28, #104]
	mov	sp, x16
	bl	_caml_modify
	mov	sp, x29
	.cfi_restore_state
Lloh793:
	adrp	x0, _camlBoyer__const_block2321@PAGE
Lloh794:
	add	x0, x0, _camlBoyer__const_block2321@PAGEOFF
	bl	_camlBoyer__cterm_to_term_14_35_code
Ltmp149:
	ldurb	w8, [x0, #-8]
	cbz	w8, LBB19_538
; %bb.443:                              ; %L4302
	ldr	x20, [x0, #8]
	tbnz	w20, #0, LBB19_538
; %bb.444:                              ; %L4308
	ldr	x19, [x20]
Lloh795:
	adrp	x0, _camlBoyer__Pmakeblock6711@PAGE
Lloh796:
	add	x0, x0, _camlBoyer__Pmakeblock6711@PAGEOFF
	mov	x1, x19
	mov	x29, sp
	.cfi_remember_state
	.cfi_def_cfa_register w29
	ldr	x16, [x28, #104]
	mov	sp, x16
	bl	_caml_initialize
	mov	sp, x29
	.cfi_restore_state
	ldurb	w8, [x19, #-8]
	cbz	w8, LBB19_538
; %bb.445:                              ; %L4314
	ldr	x21, [x20, #8]
	tbnz	w21, #0, LBB19_538
; %bb.446:                              ; %L4320
	ldrb	w8, [x21, #8]
	tbz	w8, #0, LBB19_538
; %bb.447:                              ; %L4324
	ldr	x19, [x19]
	ldr	x1, [x19, #8]!
Lloh797:
	adrp	x20, _camlBoyer__Pmakeblock6712@PAGE
Lloh798:
	add	x20, x20, _camlBoyer__Pmakeblock6712@PAGEOFF
	add	x0, x20, #8
	mov	x29, sp
	.cfi_remember_state
	.cfi_def_cfa_register w29
	ldr	x16, [x28, #104]
	mov	sp, x16
	bl	_caml_initialize
	mov	sp, x29
	.cfi_restore_state
	ldr	x1, [x21]
Lloh799:
	adrp	x0, _camlBoyer__Pmakeblock6711@PAGE+8
Lloh800:
	add	x0, x0, _camlBoyer__Pmakeblock6711@PAGEOFF+8
	mov	x29, sp
	.cfi_remember_state
	.cfi_def_cfa_register w29
	ldr	x16, [x28, #104]
	mov	sp, x16
	bl	_caml_initialize
	mov	sp, x29
	.cfi_restore_state
	mov	x0, x19
	mov	x1, x20
	mov	x29, sp
	.cfi_remember_state
	.cfi_def_cfa_register w29
	ldr	x16, [x28, #104]
	mov	sp, x16
	bl	_caml_modify
	mov	sp, x29
	.cfi_restore_state
Lloh801:
	adrp	x0, _camlBoyer__const_block2334@PAGE
Lloh802:
	add	x0, x0, _camlBoyer__const_block2334@PAGEOFF
	bl	_camlBoyer__cterm_to_term_14_35_code
Ltmp150:
	ldurb	w8, [x0, #-8]
	cbz	w8, LBB19_538
; %bb.448:                              ; %L4339
	ldr	x20, [x0, #8]
	tbnz	w20, #0, LBB19_538
; %bb.449:                              ; %L4345
	ldr	x19, [x20]
Lloh803:
	adrp	x0, _camlBoyer__Pmakeblock6744@PAGE
Lloh804:
	add	x0, x0, _camlBoyer__Pmakeblock6744@PAGEOFF
	mov	x1, x19
	mov	x29, sp
	.cfi_remember_state
	.cfi_def_cfa_register w29
	ldr	x16, [x28, #104]
	mov	sp, x16
	bl	_caml_initialize
	mov	sp, x29
	.cfi_restore_state
	ldurb	w8, [x19, #-8]
	cbz	w8, LBB19_538
; %bb.450:                              ; %L4351
	ldr	x21, [x20, #8]
	tbnz	w21, #0, LBB19_538
; %bb.451:                              ; %L4357
	ldrb	w8, [x21, #8]
	tbz	w8, #0, LBB19_538
; %bb.452:                              ; %L4361
	ldr	x19, [x19]
	ldr	x1, [x19, #8]!
Lloh805:
	adrp	x20, _camlBoyer__Pmakeblock6745@PAGE
Lloh806:
	add	x20, x20, _camlBoyer__Pmakeblock6745@PAGEOFF
	add	x0, x20, #8
	mov	x29, sp
	.cfi_remember_state
	.cfi_def_cfa_register w29
	ldr	x16, [x28, #104]
	mov	sp, x16
	bl	_caml_initialize
	mov	sp, x29
	.cfi_restore_state
	ldr	x1, [x21]
Lloh807:
	adrp	x0, _camlBoyer__Pmakeblock6744@PAGE+8
Lloh808:
	add	x0, x0, _camlBoyer__Pmakeblock6744@PAGEOFF+8
	mov	x29, sp
	.cfi_remember_state
	.cfi_def_cfa_register w29
	ldr	x16, [x28, #104]
	mov	sp, x16
	bl	_caml_initialize
	mov	sp, x29
	.cfi_restore_state
	mov	x0, x19
	mov	x1, x20
	mov	x29, sp
	.cfi_remember_state
	.cfi_def_cfa_register w29
	ldr	x16, [x28, #104]
	mov	sp, x16
	bl	_caml_modify
	mov	sp, x29
	.cfi_restore_state
Lloh809:
	adrp	x0, _camlBoyer__const_block2395@PAGE
Lloh810:
	add	x0, x0, _camlBoyer__const_block2395@PAGEOFF
	bl	_camlBoyer__cterm_to_term_14_35_code
Ltmp151:
	ldurb	w8, [x0, #-8]
	cbz	w8, LBB19_538
; %bb.453:                              ; %L4376
	ldr	x20, [x0, #8]
	tbnz	w20, #0, LBB19_538
; %bb.454:                              ; %L4382
	ldr	x19, [x20]
Lloh811:
	adrp	x0, _camlBoyer__Pmakeblock6777@PAGE
Lloh812:
	add	x0, x0, _camlBoyer__Pmakeblock6777@PAGEOFF
	mov	x1, x19
	mov	x29, sp
	.cfi_remember_state
	.cfi_def_cfa_register w29
	ldr	x16, [x28, #104]
	mov	sp, x16
	bl	_caml_initialize
	mov	sp, x29
	.cfi_restore_state
	ldurb	w8, [x19, #-8]
	cbz	w8, LBB19_538
; %bb.455:                              ; %L4388
	ldr	x21, [x20, #8]
	tbnz	w21, #0, LBB19_538
; %bb.456:                              ; %L4394
	ldrb	w8, [x21, #8]
	tbz	w8, #0, LBB19_538
; %bb.457:                              ; %L4398
	ldr	x19, [x19]
	ldr	x1, [x19, #8]!
Lloh813:
	adrp	x20, _camlBoyer__Pmakeblock6778@PAGE
Lloh814:
	add	x20, x20, _camlBoyer__Pmakeblock6778@PAGEOFF
	add	x0, x20, #8
	mov	x29, sp
	.cfi_remember_state
	.cfi_def_cfa_register w29
	ldr	x16, [x28, #104]
	mov	sp, x16
	bl	_caml_initialize
	mov	sp, x29
	.cfi_restore_state
	ldr	x1, [x21]
Lloh815:
	adrp	x0, _camlBoyer__Pmakeblock6777@PAGE+8
Lloh816:
	add	x0, x0, _camlBoyer__Pmakeblock6777@PAGEOFF+8
	mov	x29, sp
	.cfi_remember_state
	.cfi_def_cfa_register w29
	ldr	x16, [x28, #104]
	mov	sp, x16
	bl	_caml_initialize
	mov	sp, x29
	.cfi_restore_state
	mov	x0, x19
	mov	x1, x20
	mov	x29, sp
	.cfi_remember_state
	.cfi_def_cfa_register w29
	ldr	x16, [x28, #104]
	mov	sp, x16
	bl	_caml_modify
	mov	sp, x29
	.cfi_restore_state
Lloh817:
	adrp	x0, _camlBoyer__const_block2416@PAGE
Lloh818:
	add	x0, x0, _camlBoyer__const_block2416@PAGEOFF
	bl	_camlBoyer__cterm_to_term_14_35_code
Ltmp152:
	ldurb	w8, [x0, #-8]
	cbz	w8, LBB19_538
; %bb.458:                              ; %L4413
	ldr	x20, [x0, #8]
	tbnz	w20, #0, LBB19_538
; %bb.459:                              ; %L4419
	ldr	x19, [x20]
Lloh819:
	adrp	x0, _camlBoyer__Pmakeblock6810@PAGE
Lloh820:
	add	x0, x0, _camlBoyer__Pmakeblock6810@PAGEOFF
	mov	x1, x19
	mov	x29, sp
	.cfi_remember_state
	.cfi_def_cfa_register w29
	ldr	x16, [x28, #104]
	mov	sp, x16
	bl	_caml_initialize
	mov	sp, x29
	.cfi_restore_state
	ldurb	w8, [x19, #-8]
	cbz	w8, LBB19_538
; %bb.460:                              ; %L4425
	ldr	x21, [x20, #8]
	tbnz	w21, #0, LBB19_538
; %bb.461:                              ; %L4431
	ldrb	w8, [x21, #8]
	tbz	w8, #0, LBB19_538
; %bb.462:                              ; %L4435
	ldr	x19, [x19]
	ldr	x1, [x19, #8]!
Lloh821:
	adrp	x20, _camlBoyer__Pmakeblock6811@PAGE
Lloh822:
	add	x20, x20, _camlBoyer__Pmakeblock6811@PAGEOFF
	add	x0, x20, #8
	mov	x29, sp
	.cfi_remember_state
	.cfi_def_cfa_register w29
	ldr	x16, [x28, #104]
	mov	sp, x16
	bl	_caml_initialize
	mov	sp, x29
	.cfi_restore_state
	ldr	x1, [x21]
Lloh823:
	adrp	x0, _camlBoyer__Pmakeblock6810@PAGE+8
Lloh824:
	add	x0, x0, _camlBoyer__Pmakeblock6810@PAGEOFF+8
	mov	x29, sp
	.cfi_remember_state
	.cfi_def_cfa_register w29
	ldr	x16, [x28, #104]
	mov	sp, x16
	bl	_caml_initialize
	mov	sp, x29
	.cfi_restore_state
	mov	x0, x19
	mov	x1, x20
	mov	x29, sp
	.cfi_remember_state
	.cfi_def_cfa_register w29
	ldr	x16, [x28, #104]
	mov	sp, x16
	bl	_caml_modify
	mov	sp, x29
	.cfi_restore_state
Lloh825:
	adrp	x0, _camlBoyer__const_block2441@PAGE
Lloh826:
	add	x0, x0, _camlBoyer__const_block2441@PAGEOFF
	bl	_camlBoyer__cterm_to_term_14_35_code
Ltmp153:
	ldurb	w8, [x0, #-8]
	cbz	w8, LBB19_538
; %bb.463:                              ; %L4450
	ldr	x20, [x0, #8]
	tbnz	w20, #0, LBB19_538
; %bb.464:                              ; %L4456
	ldr	x19, [x20]
Lloh827:
	adrp	x0, _camlBoyer__Pmakeblock6843@PAGE
Lloh828:
	add	x0, x0, _camlBoyer__Pmakeblock6843@PAGEOFF
	mov	x1, x19
	mov	x29, sp
	.cfi_remember_state
	.cfi_def_cfa_register w29
	ldr	x16, [x28, #104]
	mov	sp, x16
	bl	_caml_initialize
	mov	sp, x29
	.cfi_restore_state
	ldurb	w8, [x19, #-8]
	cbz	w8, LBB19_538
; %bb.465:                              ; %L4462
	ldr	x21, [x20, #8]
	tbnz	w21, #0, LBB19_538
; %bb.466:                              ; %L4468
	ldrb	w8, [x21, #8]
	tbz	w8, #0, LBB19_538
; %bb.467:                              ; %L4472
	ldr	x19, [x19]
	ldr	x1, [x19, #8]!
Lloh829:
	adrp	x20, _camlBoyer__Pmakeblock6844@PAGE
Lloh830:
	add	x20, x20, _camlBoyer__Pmakeblock6844@PAGEOFF
	add	x0, x20, #8
	mov	x29, sp
	.cfi_remember_state
	.cfi_def_cfa_register w29
	ldr	x16, [x28, #104]
	mov	sp, x16
	bl	_caml_initialize
	mov	sp, x29
	.cfi_restore_state
	ldr	x1, [x21]
Lloh831:
	adrp	x0, _camlBoyer__Pmakeblock6843@PAGE+8
Lloh832:
	add	x0, x0, _camlBoyer__Pmakeblock6843@PAGEOFF+8
	mov	x29, sp
	.cfi_remember_state
	.cfi_def_cfa_register w29
	ldr	x16, [x28, #104]
	mov	sp, x16
	bl	_caml_initialize
	mov	sp, x29
	.cfi_restore_state
	mov	x0, x19
	mov	x1, x20
	mov	x29, sp
	.cfi_remember_state
	.cfi_def_cfa_register w29
	ldr	x16, [x28, #104]
	mov	sp, x16
	bl	_caml_modify
	mov	sp, x29
	.cfi_restore_state
Lloh833:
	adrp	x0, _camlBoyer__const_block2464@PAGE
Lloh834:
	add	x0, x0, _camlBoyer__const_block2464@PAGEOFF
	bl	_camlBoyer__cterm_to_term_14_35_code
Ltmp154:
	ldurb	w8, [x0, #-8]
	cbz	w8, LBB19_538
; %bb.468:                              ; %L4487
	ldr	x20, [x0, #8]
	tbnz	w20, #0, LBB19_538
; %bb.469:                              ; %L4493
	ldr	x19, [x20]
Lloh835:
	adrp	x0, _camlBoyer__Pmakeblock6876@PAGE
Lloh836:
	add	x0, x0, _camlBoyer__Pmakeblock6876@PAGEOFF
	mov	x1, x19
	mov	x29, sp
	.cfi_remember_state
	.cfi_def_cfa_register w29
	ldr	x16, [x28, #104]
	mov	sp, x16
	bl	_caml_initialize
	mov	sp, x29
	.cfi_restore_state
	ldurb	w8, [x19, #-8]
	cbz	w8, LBB19_538
; %bb.470:                              ; %L4499
	ldr	x21, [x20, #8]
	tbnz	w21, #0, LBB19_538
; %bb.471:                              ; %L4505
	ldrb	w8, [x21, #8]
	tbz	w8, #0, LBB19_538
; %bb.472:                              ; %L4509
	ldr	x19, [x19]
	ldr	x1, [x19, #8]!
Lloh837:
	adrp	x20, _camlBoyer__Pmakeblock6877@PAGE
Lloh838:
	add	x20, x20, _camlBoyer__Pmakeblock6877@PAGEOFF
	add	x0, x20, #8
	mov	x29, sp
	.cfi_remember_state
	.cfi_def_cfa_register w29
	ldr	x16, [x28, #104]
	mov	sp, x16
	bl	_caml_initialize
	mov	sp, x29
	.cfi_restore_state
	ldr	x1, [x21]
Lloh839:
	adrp	x0, _camlBoyer__Pmakeblock6876@PAGE+8
Lloh840:
	add	x0, x0, _camlBoyer__Pmakeblock6876@PAGEOFF+8
	mov	x29, sp
	.cfi_remember_state
	.cfi_def_cfa_register w29
	ldr	x16, [x28, #104]
	mov	sp, x16
	bl	_caml_initialize
	mov	sp, x29
	.cfi_restore_state
	mov	x0, x19
	mov	x1, x20
	mov	x29, sp
	.cfi_remember_state
	.cfi_def_cfa_register w29
	ldr	x16, [x28, #104]
	mov	sp, x16
	bl	_caml_modify
	mov	sp, x29
	.cfi_restore_state
Lloh841:
	adrp	x0, _camlBoyer__const_block2485@PAGE
Lloh842:
	add	x0, x0, _camlBoyer__const_block2485@PAGEOFF
	bl	_camlBoyer__cterm_to_term_14_35_code
Ltmp155:
	ldurb	w8, [x0, #-8]
	cbz	w8, LBB19_538
; %bb.473:                              ; %L4524
	ldr	x20, [x0, #8]
	tbnz	w20, #0, LBB19_538
; %bb.474:                              ; %L4530
	ldr	x19, [x20]
Lloh843:
	adrp	x0, _camlBoyer__Pmakeblock6909@PAGE
Lloh844:
	add	x0, x0, _camlBoyer__Pmakeblock6909@PAGEOFF
	mov	x1, x19
	mov	x29, sp
	.cfi_remember_state
	.cfi_def_cfa_register w29
	ldr	x16, [x28, #104]
	mov	sp, x16
	bl	_caml_initialize
	mov	sp, x29
	.cfi_restore_state
	ldurb	w8, [x19, #-8]
	cbz	w8, LBB19_538
; %bb.475:                              ; %L4536
	ldr	x21, [x20, #8]
	tbnz	w21, #0, LBB19_538
; %bb.476:                              ; %L4542
	ldrb	w8, [x21, #8]
	tbz	w8, #0, LBB19_538
; %bb.477:                              ; %L4546
	ldr	x19, [x19]
	ldr	x1, [x19, #8]!
Lloh845:
	adrp	x20, _camlBoyer__Pmakeblock6910@PAGE
Lloh846:
	add	x20, x20, _camlBoyer__Pmakeblock6910@PAGEOFF
	add	x0, x20, #8
	mov	x29, sp
	.cfi_remember_state
	.cfi_def_cfa_register w29
	ldr	x16, [x28, #104]
	mov	sp, x16
	bl	_caml_initialize
	mov	sp, x29
	.cfi_restore_state
	ldr	x1, [x21]
Lloh847:
	adrp	x0, _camlBoyer__Pmakeblock6909@PAGE+8
Lloh848:
	add	x0, x0, _camlBoyer__Pmakeblock6909@PAGEOFF+8
	mov	x29, sp
	.cfi_remember_state
	.cfi_def_cfa_register w29
	ldr	x16, [x28, #104]
	mov	sp, x16
	bl	_caml_initialize
	mov	sp, x29
	.cfi_restore_state
	mov	x0, x19
	mov	x1, x20
	mov	x29, sp
	.cfi_remember_state
	.cfi_def_cfa_register w29
	ldr	x16, [x28, #104]
	mov	sp, x16
	bl	_caml_modify
	mov	sp, x29
	.cfi_restore_state
Lloh849:
	adrp	x0, _camlBoyer__const_block2530@PAGE
Lloh850:
	add	x0, x0, _camlBoyer__const_block2530@PAGEOFF
	bl	_camlBoyer__cterm_to_term_14_35_code
Ltmp156:
	ldurb	w8, [x0, #-8]
	cbz	w8, LBB19_538
; %bb.478:                              ; %L4561
	ldr	x20, [x0, #8]
	tbnz	w20, #0, LBB19_538
; %bb.479:                              ; %L4567
	ldr	x19, [x20]
Lloh851:
	adrp	x0, _camlBoyer__Pmakeblock6942@PAGE
Lloh852:
	add	x0, x0, _camlBoyer__Pmakeblock6942@PAGEOFF
	mov	x1, x19
	mov	x29, sp
	.cfi_remember_state
	.cfi_def_cfa_register w29
	ldr	x16, [x28, #104]
	mov	sp, x16
	bl	_caml_initialize
	mov	sp, x29
	.cfi_restore_state
	ldurb	w8, [x19, #-8]
	cbz	w8, LBB19_538
; %bb.480:                              ; %L4573
	ldr	x21, [x20, #8]
	tbnz	w21, #0, LBB19_538
; %bb.481:                              ; %L4579
	ldrb	w8, [x21, #8]
	tbz	w8, #0, LBB19_538
; %bb.482:                              ; %L4583
	ldr	x19, [x19]
	ldr	x1, [x19, #8]!
Lloh853:
	adrp	x20, _camlBoyer__Pmakeblock6943@PAGE
Lloh854:
	add	x20, x20, _camlBoyer__Pmakeblock6943@PAGEOFF
	add	x0, x20, #8
	mov	x29, sp
	.cfi_remember_state
	.cfi_def_cfa_register w29
	ldr	x16, [x28, #104]
	mov	sp, x16
	bl	_caml_initialize
	mov	sp, x29
	.cfi_restore_state
	ldr	x1, [x21]
Lloh855:
	adrp	x0, _camlBoyer__Pmakeblock6942@PAGE+8
Lloh856:
	add	x0, x0, _camlBoyer__Pmakeblock6942@PAGEOFF+8
	mov	x29, sp
	.cfi_remember_state
	.cfi_def_cfa_register w29
	ldr	x16, [x28, #104]
	mov	sp, x16
	bl	_caml_initialize
	mov	sp, x29
	.cfi_restore_state
	mov	x0, x19
	mov	x1, x20
	mov	x29, sp
	.cfi_remember_state
	.cfi_def_cfa_register w29
	ldr	x16, [x28, #104]
	mov	sp, x16
	bl	_caml_modify
	mov	sp, x29
	.cfi_restore_state
Lloh857:
	adrp	x0, _camlBoyer__const_block2557@PAGE
Lloh858:
	add	x0, x0, _camlBoyer__const_block2557@PAGEOFF
	bl	_camlBoyer__cterm_to_term_14_35_code
Ltmp157:
	ldurb	w8, [x0, #-8]
	cbz	w8, LBB19_538
; %bb.483:                              ; %L4598
	ldr	x20, [x0, #8]
	tbnz	w20, #0, LBB19_538
; %bb.484:                              ; %L4604
	ldr	x19, [x20]
Lloh859:
	adrp	x0, _camlBoyer__Pmakeblock6975@PAGE
Lloh860:
	add	x0, x0, _camlBoyer__Pmakeblock6975@PAGEOFF
	mov	x1, x19
	mov	x29, sp
	.cfi_remember_state
	.cfi_def_cfa_register w29
	ldr	x16, [x28, #104]
	mov	sp, x16
	bl	_caml_initialize
	mov	sp, x29
	.cfi_restore_state
	ldurb	w8, [x19, #-8]
	cbz	w8, LBB19_538
; %bb.485:                              ; %L4610
	ldr	x21, [x20, #8]
	tbnz	w21, #0, LBB19_538
; %bb.486:                              ; %L4616
	ldrb	w8, [x21, #8]
	tbz	w8, #0, LBB19_538
; %bb.487:                              ; %L4620
	ldr	x19, [x19]
	ldr	x1, [x19, #8]!
Lloh861:
	adrp	x20, _camlBoyer__Pmakeblock6976@PAGE
Lloh862:
	add	x20, x20, _camlBoyer__Pmakeblock6976@PAGEOFF
	add	x0, x20, #8
	mov	x29, sp
	.cfi_remember_state
	.cfi_def_cfa_register w29
	ldr	x16, [x28, #104]
	mov	sp, x16
	bl	_caml_initialize
	mov	sp, x29
	.cfi_restore_state
	ldr	x1, [x21]
Lloh863:
	adrp	x0, _camlBoyer__Pmakeblock6975@PAGE+8
Lloh864:
	add	x0, x0, _camlBoyer__Pmakeblock6975@PAGEOFF+8
	mov	x29, sp
	.cfi_remember_state
	.cfi_def_cfa_register w29
	ldr	x16, [x28, #104]
	mov	sp, x16
	bl	_caml_initialize
	mov	sp, x29
	.cfi_restore_state
	mov	x0, x19
	mov	x1, x20
	mov	x29, sp
	.cfi_remember_state
	.cfi_def_cfa_register w29
	ldr	x16, [x28, #104]
	mov	sp, x16
	bl	_caml_modify
	mov	sp, x29
	.cfi_restore_state
Lloh865:
	adrp	x0, _camlBoyer__const_block2578@PAGE
Lloh866:
	add	x0, x0, _camlBoyer__const_block2578@PAGEOFF
	bl	_camlBoyer__cterm_to_term_14_35_code
Ltmp158:
	ldurb	w8, [x0, #-8]
	cbz	w8, LBB19_538
; %bb.488:                              ; %L4635
	ldr	x20, [x0, #8]
	tbnz	w20, #0, LBB19_538
; %bb.489:                              ; %L4641
	ldr	x19, [x20]
Lloh867:
	adrp	x0, _camlBoyer__Pmakeblock7008@PAGE
Lloh868:
	add	x0, x0, _camlBoyer__Pmakeblock7008@PAGEOFF
	mov	x1, x19
	mov	x29, sp
	.cfi_remember_state
	.cfi_def_cfa_register w29
	ldr	x16, [x28, #104]
	mov	sp, x16
	bl	_caml_initialize
	mov	sp, x29
	.cfi_restore_state
	ldurb	w8, [x19, #-8]
	cbz	w8, LBB19_538
; %bb.490:                              ; %L4647
	ldr	x21, [x20, #8]
	tbnz	w21, #0, LBB19_538
; %bb.491:                              ; %L4653
	ldrb	w8, [x21, #8]
	tbz	w8, #0, LBB19_538
; %bb.492:                              ; %L4657
	ldr	x19, [x19]
	ldr	x1, [x19, #8]!
Lloh869:
	adrp	x20, _camlBoyer__Pmakeblock7009@PAGE
Lloh870:
	add	x20, x20, _camlBoyer__Pmakeblock7009@PAGEOFF
	add	x0, x20, #8
	mov	x29, sp
	.cfi_remember_state
	.cfi_def_cfa_register w29
	ldr	x16, [x28, #104]
	mov	sp, x16
	bl	_caml_initialize
	mov	sp, x29
	.cfi_restore_state
	ldr	x1, [x21]
Lloh871:
	adrp	x0, _camlBoyer__Pmakeblock7008@PAGE+8
Lloh872:
	add	x0, x0, _camlBoyer__Pmakeblock7008@PAGEOFF+8
	mov	x29, sp
	.cfi_remember_state
	.cfi_def_cfa_register w29
	ldr	x16, [x28, #104]
	mov	sp, x16
	bl	_caml_initialize
	mov	sp, x29
	.cfi_restore_state
	mov	x0, x19
	mov	x1, x20
	mov	x29, sp
	.cfi_remember_state
	.cfi_def_cfa_register w29
	ldr	x16, [x28, #104]
	mov	sp, x16
	bl	_caml_modify
	mov	sp, x29
	.cfi_restore_state
Lloh873:
	adrp	x0, _camlBoyer__const_block2595@PAGE
Lloh874:
	add	x0, x0, _camlBoyer__const_block2595@PAGEOFF
	bl	_camlBoyer__cterm_to_term_14_35_code
Ltmp159:
	ldurb	w8, [x0, #-8]
	cbz	w8, LBB19_538
; %bb.493:                              ; %L4672
	ldr	x20, [x0, #8]
	tbnz	w20, #0, LBB19_538
; %bb.494:                              ; %L4678
	ldr	x19, [x20]
Lloh875:
	adrp	x0, _camlBoyer__Pmakeblock7041@PAGE
Lloh876:
	add	x0, x0, _camlBoyer__Pmakeblock7041@PAGEOFF
	mov	x1, x19
	mov	x29, sp
	.cfi_remember_state
	.cfi_def_cfa_register w29
	ldr	x16, [x28, #104]
	mov	sp, x16
	bl	_caml_initialize
	mov	sp, x29
	.cfi_restore_state
	ldurb	w8, [x19, #-8]
	cbz	w8, LBB19_538
; %bb.495:                              ; %L4684
	ldr	x21, [x20, #8]
	tbnz	w21, #0, LBB19_538
; %bb.496:                              ; %L4690
	ldrb	w8, [x21, #8]
	tbz	w8, #0, LBB19_538
; %bb.497:                              ; %L4694
	ldr	x19, [x19]
	ldr	x1, [x19, #8]!
Lloh877:
	adrp	x20, _camlBoyer__Pmakeblock7042@PAGE
Lloh878:
	add	x20, x20, _camlBoyer__Pmakeblock7042@PAGEOFF
	add	x0, x20, #8
	mov	x29, sp
	.cfi_remember_state
	.cfi_def_cfa_register w29
	ldr	x16, [x28, #104]
	mov	sp, x16
	bl	_caml_initialize
	mov	sp, x29
	.cfi_restore_state
	ldr	x1, [x21]
Lloh879:
	adrp	x0, _camlBoyer__Pmakeblock7041@PAGE+8
Lloh880:
	add	x0, x0, _camlBoyer__Pmakeblock7041@PAGEOFF+8
	mov	x29, sp
	.cfi_remember_state
	.cfi_def_cfa_register w29
	ldr	x16, [x28, #104]
	mov	sp, x16
	bl	_caml_initialize
	mov	sp, x29
	.cfi_restore_state
	mov	x0, x19
	mov	x1, x20
	mov	x29, sp
	.cfi_remember_state
	.cfi_def_cfa_register w29
	ldr	x16, [x28, #104]
	mov	sp, x16
	bl	_caml_modify
	mov	sp, x29
	.cfi_restore_state
Lloh881:
	adrp	x0, _camlBoyer__const_block2638@PAGE
Lloh882:
	add	x0, x0, _camlBoyer__const_block2638@PAGEOFF
	bl	_camlBoyer__cterm_to_term_14_35_code
Ltmp160:
	ldurb	w8, [x0, #-8]
	cbz	w8, LBB19_538
; %bb.498:                              ; %L4709
	ldr	x20, [x0, #8]
	tbnz	w20, #0, LBB19_538
; %bb.499:                              ; %L4715
	ldr	x19, [x20]
Lloh883:
	adrp	x0, _camlBoyer__Pmakeblock7074@PAGE
Lloh884:
	add	x0, x0, _camlBoyer__Pmakeblock7074@PAGEOFF
	mov	x1, x19
	mov	x29, sp
	.cfi_remember_state
	.cfi_def_cfa_register w29
	ldr	x16, [x28, #104]
	mov	sp, x16
	bl	_caml_initialize
	mov	sp, x29
	.cfi_restore_state
	ldurb	w8, [x19, #-8]
	cbz	w8, LBB19_538
; %bb.500:                              ; %L4721
	ldr	x21, [x20, #8]
	tbnz	w21, #0, LBB19_538
; %bb.501:                              ; %L4727
	ldrb	w8, [x21, #8]
	tbz	w8, #0, LBB19_538
; %bb.502:                              ; %L4731
	ldr	x19, [x19]
	ldr	x1, [x19, #8]!
Lloh885:
	adrp	x20, _camlBoyer__Pmakeblock7075@PAGE
Lloh886:
	add	x20, x20, _camlBoyer__Pmakeblock7075@PAGEOFF
	add	x0, x20, #8
	mov	x29, sp
	.cfi_remember_state
	.cfi_def_cfa_register w29
	ldr	x16, [x28, #104]
	mov	sp, x16
	bl	_caml_initialize
	mov	sp, x29
	.cfi_restore_state
	ldr	x1, [x21]
Lloh887:
	adrp	x0, _camlBoyer__Pmakeblock7074@PAGE+8
Lloh888:
	add	x0, x0, _camlBoyer__Pmakeblock7074@PAGEOFF+8
	mov	x29, sp
	.cfi_remember_state
	.cfi_def_cfa_register w29
	ldr	x16, [x28, #104]
	mov	sp, x16
	bl	_caml_initialize
	mov	sp, x29
	.cfi_restore_state
	mov	x0, x19
	mov	x1, x20
	mov	x29, sp
	.cfi_remember_state
	.cfi_def_cfa_register w29
	ldr	x16, [x28, #104]
	mov	sp, x16
	bl	_caml_modify
	mov	sp, x29
	.cfi_restore_state
Lloh889:
	adrp	x0, _camlBoyer__const_block2665@PAGE
Lloh890:
	add	x0, x0, _camlBoyer__const_block2665@PAGEOFF
	bl	_camlBoyer__cterm_to_term_14_35_code
Ltmp161:
	ldurb	w8, [x0, #-8]
	cbz	w8, LBB19_538
; %bb.503:                              ; %L4746
	ldr	x20, [x0, #8]
	tbnz	w20, #0, LBB19_538
; %bb.504:                              ; %L4752
	ldr	x19, [x20]
Lloh891:
	adrp	x0, _camlBoyer__Pmakeblock7107@PAGE
Lloh892:
	add	x0, x0, _camlBoyer__Pmakeblock7107@PAGEOFF
	mov	x1, x19
	mov	x29, sp
	.cfi_remember_state
	.cfi_def_cfa_register w29
	ldr	x16, [x28, #104]
	mov	sp, x16
	bl	_caml_initialize
	mov	sp, x29
	.cfi_restore_state
	ldurb	w8, [x19, #-8]
	cbz	w8, LBB19_538
; %bb.505:                              ; %L4758
	ldr	x21, [x20, #8]
	tbnz	w21, #0, LBB19_538
; %bb.506:                              ; %L4764
	ldrb	w8, [x21, #8]
	tbz	w8, #0, LBB19_538
; %bb.507:                              ; %L4768
	ldr	x19, [x19]
	ldr	x1, [x19, #8]!
Lloh893:
	adrp	x20, _camlBoyer__Pmakeblock7108@PAGE
Lloh894:
	add	x20, x20, _camlBoyer__Pmakeblock7108@PAGEOFF
	add	x0, x20, #8
	mov	x29, sp
	.cfi_remember_state
	.cfi_def_cfa_register w29
	ldr	x16, [x28, #104]
	mov	sp, x16
	bl	_caml_initialize
	mov	sp, x29
	.cfi_restore_state
	ldr	x1, [x21]
Lloh895:
	adrp	x0, _camlBoyer__Pmakeblock7107@PAGE+8
Lloh896:
	add	x0, x0, _camlBoyer__Pmakeblock7107@PAGEOFF+8
	mov	x29, sp
	.cfi_remember_state
	.cfi_def_cfa_register w29
	ldr	x16, [x28, #104]
	mov	sp, x16
	bl	_caml_initialize
	mov	sp, x29
	.cfi_restore_state
	mov	x0, x19
	mov	x1, x20
	mov	x29, sp
	.cfi_remember_state
	.cfi_def_cfa_register w29
	ldr	x16, [x28, #104]
	mov	sp, x16
	bl	_caml_modify
	mov	sp, x29
	.cfi_restore_state
Lloh897:
	adrp	x0, _camlBoyer__const_block2692@PAGE
Lloh898:
	add	x0, x0, _camlBoyer__const_block2692@PAGEOFF
	bl	_camlBoyer__cterm_to_term_14_35_code
Ltmp162:
	ldurb	w8, [x0, #-8]
	cbz	w8, LBB19_538
; %bb.508:                              ; %L4783
	ldr	x20, [x0, #8]
	tbnz	w20, #0, LBB19_538
; %bb.509:                              ; %L4789
	ldr	x19, [x20]
Lloh899:
	adrp	x0, _camlBoyer__Pmakeblock7140@PAGE
Lloh900:
	add	x0, x0, _camlBoyer__Pmakeblock7140@PAGEOFF
	mov	x1, x19
	mov	x29, sp
	.cfi_remember_state
	.cfi_def_cfa_register w29
	ldr	x16, [x28, #104]
	mov	sp, x16
	bl	_caml_initialize
	mov	sp, x29
	.cfi_restore_state
	ldurb	w8, [x19, #-8]
	cbz	w8, LBB19_538
; %bb.510:                              ; %L4795
	ldr	x21, [x20, #8]
	tbnz	w21, #0, LBB19_538
; %bb.511:                              ; %L4801
	ldrb	w8, [x21, #8]
	tbz	w8, #0, LBB19_538
; %bb.512:                              ; %L4805
	ldr	x19, [x19]
	ldr	x1, [x19, #8]!
Lloh901:
	adrp	x20, _camlBoyer__Pmakeblock7141@PAGE
Lloh902:
	add	x20, x20, _camlBoyer__Pmakeblock7141@PAGEOFF
	add	x0, x20, #8
	mov	x29, sp
	.cfi_remember_state
	.cfi_def_cfa_register w29
	ldr	x16, [x28, #104]
	mov	sp, x16
	bl	_caml_initialize
	mov	sp, x29
	.cfi_restore_state
	ldr	x1, [x21]
Lloh903:
	adrp	x0, _camlBoyer__Pmakeblock7140@PAGE+8
Lloh904:
	add	x0, x0, _camlBoyer__Pmakeblock7140@PAGEOFF+8
	mov	x29, sp
	.cfi_remember_state
	.cfi_def_cfa_register w29
	ldr	x16, [x28, #104]
	mov	sp, x16
	bl	_caml_initialize
	mov	sp, x29
	.cfi_restore_state
	mov	x0, x19
	mov	x1, x20
	mov	x29, sp
	.cfi_remember_state
	.cfi_def_cfa_register w29
	ldr	x16, [x28, #104]
	mov	sp, x16
	bl	_caml_modify
	mov	sp, x29
	.cfi_restore_state
Lloh905:
	adrp	x0, _camlBoyer__const_block2711@PAGE
Lloh906:
	add	x0, x0, _camlBoyer__const_block2711@PAGEOFF
	bl	_camlBoyer__cterm_to_term_14_35_code
Ltmp163:
	ldurb	w8, [x0, #-8]
	cbz	w8, LBB19_538
; %bb.513:                              ; %L4820
	ldr	x20, [x0, #8]
	tbnz	w20, #0, LBB19_538
; %bb.514:                              ; %L4826
	ldr	x19, [x20]
Lloh907:
	adrp	x0, _camlBoyer__Pmakeblock7173@PAGE
Lloh908:
	add	x0, x0, _camlBoyer__Pmakeblock7173@PAGEOFF
	mov	x1, x19
	mov	x29, sp
	.cfi_remember_state
	.cfi_def_cfa_register w29
	ldr	x16, [x28, #104]
	mov	sp, x16
	bl	_caml_initialize
	mov	sp, x29
	.cfi_restore_state
	ldurb	w8, [x19, #-8]
	cbz	w8, LBB19_538
; %bb.515:                              ; %L4832
	ldr	x21, [x20, #8]
	tbnz	w21, #0, LBB19_538
; %bb.516:                              ; %L4838
	ldrb	w8, [x21, #8]
	tbz	w8, #0, LBB19_538
; %bb.517:                              ; %L4842
	ldr	x19, [x19]
	ldr	x1, [x19, #8]!
Lloh909:
	adrp	x20, _camlBoyer__Pmakeblock7174@PAGE
Lloh910:
	add	x20, x20, _camlBoyer__Pmakeblock7174@PAGEOFF
	add	x0, x20, #8
	mov	x29, sp
	.cfi_remember_state
	.cfi_def_cfa_register w29
	ldr	x16, [x28, #104]
	mov	sp, x16
	bl	_caml_initialize
	mov	sp, x29
	.cfi_restore_state
	ldr	x1, [x21]
Lloh911:
	adrp	x0, _camlBoyer__Pmakeblock7173@PAGE+8
Lloh912:
	add	x0, x0, _camlBoyer__Pmakeblock7173@PAGEOFF+8
	mov	x29, sp
	.cfi_remember_state
	.cfi_def_cfa_register w29
	ldr	x16, [x28, #104]
	mov	sp, x16
	bl	_caml_initialize
	mov	sp, x29
	.cfi_restore_state
	mov	x0, x19
	mov	x1, x20
	mov	x29, sp
	.cfi_remember_state
	.cfi_def_cfa_register w29
	ldr	x16, [x28, #104]
	mov	sp, x16
	bl	_caml_modify
	mov	sp, x29
	.cfi_restore_state
Lloh913:
	adrp	x0, _camlBoyer__const_block2740@PAGE
Lloh914:
	add	x0, x0, _camlBoyer__const_block2740@PAGEOFF
	bl	_camlBoyer__cterm_to_term_14_35_code
Ltmp164:
	ldurb	w8, [x0, #-8]
	cbz	w8, LBB19_538
; %bb.518:                              ; %L4857
	ldr	x20, [x0, #8]
	tbnz	w20, #0, LBB19_538
; %bb.519:                              ; %L4863
	ldr	x19, [x20]
Lloh915:
	adrp	x0, _camlBoyer__Pmakeblock7206@PAGE
Lloh916:
	add	x0, x0, _camlBoyer__Pmakeblock7206@PAGEOFF
	mov	x1, x19
	mov	x29, sp
	.cfi_remember_state
	.cfi_def_cfa_register w29
	ldr	x16, [x28, #104]
	mov	sp, x16
	bl	_caml_initialize
	mov	sp, x29
	.cfi_restore_state
	ldurb	w8, [x19, #-8]
	cbz	w8, LBB19_538
; %bb.520:                              ; %L4869
	ldr	x21, [x20, #8]
	tbnz	w21, #0, LBB19_538
; %bb.521:                              ; %L4875
	ldrb	w8, [x21, #8]
	tbz	w8, #0, LBB19_538
; %bb.522:                              ; %L4879
	ldr	x19, [x19]
	ldr	x1, [x19, #8]!
Lloh917:
	adrp	x20, _camlBoyer__Pmakeblock7207@PAGE
Lloh918:
	add	x20, x20, _camlBoyer__Pmakeblock7207@PAGEOFF
	add	x0, x20, #8
	mov	x29, sp
	.cfi_remember_state
	.cfi_def_cfa_register w29
	ldr	x16, [x28, #104]
	mov	sp, x16
	bl	_caml_initialize
	mov	sp, x29
	.cfi_restore_state
	ldr	x1, [x21]
Lloh919:
	adrp	x0, _camlBoyer__Pmakeblock7206@PAGE+8
Lloh920:
	add	x0, x0, _camlBoyer__Pmakeblock7206@PAGEOFF+8
	mov	x29, sp
	.cfi_remember_state
	.cfi_def_cfa_register w29
	ldr	x16, [x28, #104]
	mov	sp, x16
	bl	_caml_initialize
	mov	sp, x29
	.cfi_restore_state
	mov	x0, x19
	mov	x1, x20
	mov	x29, sp
	.cfi_remember_state
	.cfi_def_cfa_register w29
	ldr	x16, [x28, #104]
	mov	sp, x16
	bl	_caml_modify
	mov	sp, x29
	.cfi_restore_state
Lloh921:
	adrp	x0, _camlBoyer__const_block2755@PAGE
Lloh922:
	add	x0, x0, _camlBoyer__const_block2755@PAGEOFF
	bl	_camlBoyer__cterm_to_term_14_35_code
Ltmp165:
	ldurb	w8, [x0, #-8]
	cbz	w8, LBB19_538
; %bb.523:                              ; %L4894
	ldr	x20, [x0, #8]
	tbnz	w20, #0, LBB19_538
; %bb.524:                              ; %L4900
	ldr	x19, [x20]
Lloh923:
	adrp	x0, _camlBoyer__Pmakeblock7239@PAGE
Lloh924:
	add	x0, x0, _camlBoyer__Pmakeblock7239@PAGEOFF
	mov	x1, x19
	mov	x29, sp
	.cfi_remember_state
	.cfi_def_cfa_register w29
	ldr	x16, [x28, #104]
	mov	sp, x16
	bl	_caml_initialize
	mov	sp, x29
	.cfi_restore_state
	ldurb	w8, [x19, #-8]
	cbz	w8, LBB19_539
; %bb.525:                              ; %L4906
	ldr	x21, [x20, #8]
	tbnz	w21, #0, LBB19_538
; %bb.526:                              ; %L4912
	ldrb	w8, [x21, #8]
	tbz	w8, #0, LBB19_539
; %bb.527:                              ; %L4916
	ldr	x19, [x19]
	ldr	x1, [x19, #8]!
Lloh925:
	adrp	x20, _camlBoyer__Pmakeblock7240@PAGE
Lloh926:
	add	x20, x20, _camlBoyer__Pmakeblock7240@PAGEOFF
	add	x0, x20, #8
	mov	x29, sp
	.cfi_remember_state
	.cfi_def_cfa_register w29
	ldr	x16, [x28, #104]
	mov	sp, x16
	bl	_caml_initialize
	mov	sp, x29
	.cfi_restore_state
	ldr	x1, [x21]
Lloh927:
	adrp	x0, _camlBoyer__Pmakeblock7239@PAGE+8
Lloh928:
	add	x0, x0, _camlBoyer__Pmakeblock7239@PAGEOFF+8
	mov	x29, sp
	.cfi_remember_state
	.cfi_def_cfa_register w29
	ldr	x16, [x28, #104]
	mov	sp, x16
	bl	_caml_initialize
	mov	sp, x29
	.cfi_restore_state
	mov	x0, x19
	mov	x1, x20
	mov	x29, sp
	.cfi_remember_state
	.cfi_def_cfa_register w29
	ldr	x16, [x28, #104]
	mov	sp, x16
	bl	_caml_modify
	mov	sp, x29
	.cfi_restore_state
Lloh929:
	adrp	x0, _camlBoyer__const_block2798@PAGE
Lloh930:
	add	x0, x0, _camlBoyer__const_block2798@PAGEOFF
	bl	_camlBoyer__cterm_to_term_14_35_code
Ltmp166:
	ldurb	w8, [x0, #-8]
	cbz	w8, LBB19_539
; %bb.528:                              ; %L4931
	ldr	x20, [x0, #8]
	tbnz	w20, #0, LBB19_538
; %bb.529:                              ; %L4937
	ldr	x19, [x20]
Lloh931:
	adrp	x0, _camlBoyer__Pmakeblock7272@PAGE
Lloh932:
	add	x0, x0, _camlBoyer__Pmakeblock7272@PAGEOFF
	mov	x1, x19
	mov	x29, sp
	.cfi_remember_state
	.cfi_def_cfa_register w29
	ldr	x16, [x28, #104]
	mov	sp, x16
	bl	_caml_initialize
	mov	sp, x29
	.cfi_restore_state
	ldurb	w8, [x19, #-8]
	cbz	w8, LBB19_539
; %bb.530:                              ; %L4943
	ldr	x21, [x20, #8]
	tbnz	w21, #0, LBB19_538
; %bb.531:                              ; %L4949
	ldrb	w8, [x21, #8]
	tbz	w8, #0, LBB19_540
; %bb.532:                              ; %L4953
	ldr	x19, [x19]
	ldr	x1, [x19, #8]!
Lloh933:
	adrp	x20, _camlBoyer__Pmakeblock7273@PAGE
Lloh934:
	add	x20, x20, _camlBoyer__Pmakeblock7273@PAGEOFF
	add	x0, x20, #8
	mov	x29, sp
	.cfi_remember_state
	.cfi_def_cfa_register w29
	ldr	x16, [x28, #104]
	mov	sp, x16
	bl	_caml_initialize
	mov	sp, x29
	.cfi_restore_state
	ldr	x1, [x21]
Lloh935:
	adrp	x0, _camlBoyer__Pmakeblock7272@PAGE+8
Lloh936:
	add	x0, x0, _camlBoyer__Pmakeblock7272@PAGEOFF+8
	mov	x29, sp
	.cfi_remember_state
	.cfi_def_cfa_register w29
	ldr	x16, [x28, #104]
	mov	sp, x16
	bl	_caml_initialize
	mov	sp, x29
	.cfi_restore_state
	mov	x0, x19
	mov	x1, x20
	mov	x29, sp
	.cfi_remember_state
	.cfi_def_cfa_register w29
	ldr	x16, [x28, #104]
	mov	sp, x16
	bl	_caml_modify
	mov	sp, x29
	.cfi_restore_state
Lloh937:
	adrp	x0, _camlBoyer__const_block2913@PAGE
Lloh938:
	add	x0, x0, _camlBoyer__const_block2913@PAGEOFF
	bl	_camlBoyer__cterm_to_term_14_35_code
Ltmp167:
	mov	x1, x0
Lloh939:
	adrp	x0, _camlBoyer__Pmakeblock7567@PAGE+8
Lloh940:
	add	x0, x0, _camlBoyer__Pmakeblock7567@PAGEOFF+8
	mov	x29, sp
	.cfi_remember_state
	.cfi_def_cfa_register w29
	ldr	x16, [x28, #104]
	mov	sp, x16
	bl	_caml_initialize
	mov	sp, x29
	.cfi_restore_state
Lloh941:
	adrp	x0, _camlBoyer__const_block2920@PAGE
Lloh942:
	add	x0, x0, _camlBoyer__const_block2920@PAGEOFF
	bl	_camlBoyer__cterm_to_term_14_35_code
Ltmp168:
	mov	x1, x0
Lloh943:
	adrp	x0, _camlBoyer__Pmakeblock7580@PAGE+8
Lloh944:
	add	x0, x0, _camlBoyer__Pmakeblock7580@PAGEOFF+8
	mov	x29, sp
	.cfi_remember_state
	.cfi_def_cfa_register w29
	ldr	x16, [x28, #104]
	mov	sp, x16
	bl	_caml_initialize
	mov	sp, x29
	.cfi_restore_state
Lloh945:
	adrp	x0, _camlBoyer__const_block2937@PAGE
Lloh946:
	add	x0, x0, _camlBoyer__const_block2937@PAGEOFF
	bl	_camlBoyer__cterm_to_term_14_35_code
Ltmp169:
	mov	x1, x0
Lloh947:
	adrp	x0, _camlBoyer__Pmakeblock7593@PAGE+8
Lloh948:
	add	x0, x0, _camlBoyer__Pmakeblock7593@PAGEOFF+8
	mov	x29, sp
	.cfi_remember_state
	.cfi_def_cfa_register w29
	ldr	x16, [x28, #104]
	mov	sp, x16
	bl	_caml_initialize
	mov	sp, x29
	.cfi_restore_state
Lloh949:
	adrp	x0, _camlBoyer__const_block2956@PAGE
Lloh950:
	add	x0, x0, _camlBoyer__const_block2956@PAGEOFF
	bl	_camlBoyer__cterm_to_term_14_35_code
Ltmp170:
	mov	x1, x0
Lloh951:
	adrp	x0, _camlBoyer__Pmakeblock7606@PAGE+8
Lloh952:
	add	x0, x0, _camlBoyer__Pmakeblock7606@PAGEOFF+8
	mov	x29, sp
	.cfi_remember_state
	.cfi_def_cfa_register w29
	ldr	x16, [x28, #104]
	mov	sp, x16
	bl	_caml_initialize
	mov	sp, x29
	.cfi_restore_state
Lloh953:
	adrp	x0, _camlBoyer__const_block2973@PAGE
Lloh954:
	add	x0, x0, _camlBoyer__const_block2973@PAGEOFF
	bl	_camlBoyer__cterm_to_term_14_35_code
Ltmp171:
	mov	x1, x0
Lloh955:
	adrp	x0, _camlBoyer__Pmakeblock7619@PAGE+8
Lloh956:
	add	x0, x0, _camlBoyer__Pmakeblock7619@PAGEOFF+8
	mov	x29, sp
	.cfi_remember_state
	.cfi_def_cfa_register w29
	ldr	x16, [x28, #104]
	mov	sp, x16
	bl	_caml_initialize
	mov	sp, x29
	.cfi_restore_state
Lloh957:
	adrp	x0, _camlBoyer__const_block3018@PAGE
Lloh958:
	add	x0, x0, _camlBoyer__const_block3018@PAGEOFF
	bl	_camlBoyer__cterm_to_term_14_35_code
Ltmp172:
	mov	x19, x0
Lloh959:
	adrp	x0, _camlBoyer__as_rec_36@PAGE+16
Lloh960:
	add	x0, x0, _camlBoyer__as_rec_36@PAGEOFF+16
	mov	x1, x19
	mov	x29, sp
	.cfi_remember_state
	.cfi_def_cfa_register w29
	ldr	x16, [x28, #104]
	mov	sp, x16
	bl	_caml_initialize
	mov	sp, x29
	.cfi_restore_state
Lloh961:
	adrp	x0, _camlBoyer@PAGE+152
Lloh962:
	add	x0, x0, _camlBoyer@PAGEOFF+152
	mov	x1, x19
	mov	x29, sp
	.cfi_remember_state
	.cfi_def_cfa_register w29
	ldr	x16, [x28, #104]
	mov	sp, x16
	bl	_caml_initialize
	mov	sp, x29
	.cfi_restore_state
	str	x19, [sp, #24]
	mov	w8, #1
	mov	w9, #1
LBB19_533:                              ; %L4994
                                        ; =>This Inner Loop Header: Depth=1
	str	x9, [sp, #8]                    ; 8-byte Folded Spill
	str	x8, [sp, #16]                   ; 8-byte Folded Spill
	mov	x0, x19
	bl	_camlBoyer__as_rec_8_41_code
Ltmp173:
	bl	_camlBoyer__rewrite_12_32_code
Ltmp174:
	mov	w1, #1
	mov	w2, #1
	bl	_camlBoyer__tautologyp_18_39_code
Ltmp175:
	ldr	x9, [sp, #8]                    ; 8-byte Folded Reload
	ldr	x8, [sp, #16]                   ; 8-byte Folded Reload
	ldr	x19, [sp, #24]
	cmp	x0, #2
	csel	x8, xzr, x8, lo
	add	x9, x9, #1
	cmp	x9, #51
	b.ne	LBB19_533
; %bb.534:                              ; %L5010
	cbz	x8, LBB19_541
; %bb.535:                              ; %L5017
	mov	w0, #1
	ldr	x30, [sp, #40]                  ; 8-byte Folded Reload
	add	sp, sp, #48
	ret
LBB19_536:                              ; %L6192
	bl	_caml_call_gc
Ltmp176:
	b	LBB19_1
LBB19_537:                              ; %L6194
	mov	w0, #34
	bl	_caml_llvm_call_realloc_stack
Ltmp177:
Lloh963:
	adrp	x0, _camlBoyer__const_block371@PAGE
Lloh964:
	add	x0, x0, _camlBoyer__const_block371@PAGEOFF
	bl	_camlBoyer__cterm_to_term_14_35_code
Ltmp178:
	ldurb	w8, [x0, #-8]
	cbnz	w8, LBB19_3
LBB19_538:                              ; %L5045
Lloh965:
	adrp	x8, _camlBoyer__Pmakeblock113@PAGE
Lloh966:
	add	x8, x8, _camlBoyer__Pmakeblock113@PAGEOFF
	mov	x0, x8
	mov	sp, x26
	ldp	x26, x16, [sp], #16
	br	x16
LBB19_539:                              ; %L5038
Lloh967:
	adrp	x8, _camlBoyer__Pmakeblock113@PAGE
Lloh968:
	add	x8, x8, _camlBoyer__Pmakeblock113@PAGEOFF
	mov	x0, x8
	mov	sp, x26
	ldp	x26, x16, [sp], #16
	br	x16
LBB19_540:                              ; %L3788
Lloh969:
	adrp	x8, _camlBoyer__Pmakeblock113@PAGE
Lloh970:
	add	x8, x8, _camlBoyer__Pmakeblock113@PAGEOFF
	mov	x0, x8
	mov	sp, x26
	ldp	x26, x16, [sp], #16
	br	x16
LBB19_541:                              ; %L5019
Lloh971:
	adrp	x8, _camlBoyer__Pmakeblock3063@PAGE
Lloh972:
	add	x8, x8, _camlBoyer__Pmakeblock3063@PAGEOFF
	mov	x0, x8
	mov	sp, x26
	ldp	x26, x16, [sp], #16
	br	x16
	.loh AdrpAdd	Lloh87, Lloh88
	.loh AdrpAdd	Lloh85, Lloh86
	.loh AdrpAdd	Lloh83, Lloh84
	.loh AdrpAdd	Lloh89, Lloh90
	.loh AdrpAdd	Lloh91, Lloh92
	.loh AdrpAdd	Lloh97, Lloh98
	.loh AdrpAdd	Lloh95, Lloh96
	.loh AdrpAdd	Lloh93, Lloh94
	.loh AdrpAdd	Lloh99, Lloh100
	.loh AdrpAdd	Lloh105, Lloh106
	.loh AdrpAdd	Lloh103, Lloh104
	.loh AdrpAdd	Lloh101, Lloh102
	.loh AdrpAdd	Lloh107, Lloh108
	.loh AdrpAdd	Lloh113, Lloh114
	.loh AdrpAdd	Lloh111, Lloh112
	.loh AdrpAdd	Lloh109, Lloh110
	.loh AdrpAdd	Lloh115, Lloh116
	.loh AdrpAdd	Lloh121, Lloh122
	.loh AdrpAdd	Lloh119, Lloh120
	.loh AdrpAdd	Lloh117, Lloh118
	.loh AdrpAdd	Lloh123, Lloh124
	.loh AdrpAdd	Lloh129, Lloh130
	.loh AdrpAdd	Lloh127, Lloh128
	.loh AdrpAdd	Lloh125, Lloh126
	.loh AdrpAdd	Lloh131, Lloh132
	.loh AdrpAdd	Lloh137, Lloh138
	.loh AdrpAdd	Lloh135, Lloh136
	.loh AdrpAdd	Lloh133, Lloh134
	.loh AdrpAdd	Lloh139, Lloh140
	.loh AdrpAdd	Lloh145, Lloh146
	.loh AdrpAdd	Lloh143, Lloh144
	.loh AdrpAdd	Lloh141, Lloh142
	.loh AdrpAdd	Lloh147, Lloh148
	.loh AdrpAdd	Lloh153, Lloh154
	.loh AdrpAdd	Lloh151, Lloh152
	.loh AdrpAdd	Lloh149, Lloh150
	.loh AdrpAdd	Lloh155, Lloh156
	.loh AdrpAdd	Lloh161, Lloh162
	.loh AdrpAdd	Lloh159, Lloh160
	.loh AdrpAdd	Lloh157, Lloh158
	.loh AdrpAdd	Lloh163, Lloh164
	.loh AdrpAdd	Lloh169, Lloh170
	.loh AdrpAdd	Lloh167, Lloh168
	.loh AdrpAdd	Lloh165, Lloh166
	.loh AdrpAdd	Lloh171, Lloh172
	.loh AdrpAdd	Lloh177, Lloh178
	.loh AdrpAdd	Lloh175, Lloh176
	.loh AdrpAdd	Lloh173, Lloh174
	.loh AdrpAdd	Lloh179, Lloh180
	.loh AdrpAdd	Lloh185, Lloh186
	.loh AdrpAdd	Lloh183, Lloh184
	.loh AdrpAdd	Lloh181, Lloh182
	.loh AdrpAdd	Lloh187, Lloh188
	.loh AdrpAdd	Lloh193, Lloh194
	.loh AdrpAdd	Lloh191, Lloh192
	.loh AdrpAdd	Lloh189, Lloh190
	.loh AdrpAdd	Lloh195, Lloh196
	.loh AdrpAdd	Lloh201, Lloh202
	.loh AdrpAdd	Lloh199, Lloh200
	.loh AdrpAdd	Lloh197, Lloh198
	.loh AdrpAdd	Lloh203, Lloh204
	.loh AdrpAdd	Lloh209, Lloh210
	.loh AdrpAdd	Lloh207, Lloh208
	.loh AdrpAdd	Lloh205, Lloh206
	.loh AdrpAdd	Lloh211, Lloh212
	.loh AdrpAdd	Lloh217, Lloh218
	.loh AdrpAdd	Lloh215, Lloh216
	.loh AdrpAdd	Lloh213, Lloh214
	.loh AdrpAdd	Lloh219, Lloh220
	.loh AdrpAdd	Lloh225, Lloh226
	.loh AdrpAdd	Lloh223, Lloh224
	.loh AdrpAdd	Lloh221, Lloh222
	.loh AdrpAdd	Lloh227, Lloh228
	.loh AdrpAdd	Lloh233, Lloh234
	.loh AdrpAdd	Lloh231, Lloh232
	.loh AdrpAdd	Lloh229, Lloh230
	.loh AdrpAdd	Lloh235, Lloh236
	.loh AdrpAdd	Lloh241, Lloh242
	.loh AdrpAdd	Lloh239, Lloh240
	.loh AdrpAdd	Lloh237, Lloh238
	.loh AdrpAdd	Lloh243, Lloh244
	.loh AdrpAdd	Lloh249, Lloh250
	.loh AdrpAdd	Lloh247, Lloh248
	.loh AdrpAdd	Lloh245, Lloh246
	.loh AdrpAdd	Lloh251, Lloh252
	.loh AdrpAdd	Lloh257, Lloh258
	.loh AdrpAdd	Lloh255, Lloh256
	.loh AdrpAdd	Lloh253, Lloh254
	.loh AdrpAdd	Lloh259, Lloh260
	.loh AdrpAdd	Lloh265, Lloh266
	.loh AdrpAdd	Lloh263, Lloh264
	.loh AdrpAdd	Lloh261, Lloh262
	.loh AdrpAdd	Lloh267, Lloh268
	.loh AdrpAdd	Lloh273, Lloh274
	.loh AdrpAdd	Lloh271, Lloh272
	.loh AdrpAdd	Lloh269, Lloh270
	.loh AdrpAdd	Lloh275, Lloh276
	.loh AdrpAdd	Lloh281, Lloh282
	.loh AdrpAdd	Lloh279, Lloh280
	.loh AdrpAdd	Lloh277, Lloh278
	.loh AdrpAdd	Lloh283, Lloh284
	.loh AdrpAdd	Lloh289, Lloh290
	.loh AdrpAdd	Lloh287, Lloh288
	.loh AdrpAdd	Lloh285, Lloh286
	.loh AdrpAdd	Lloh291, Lloh292
	.loh AdrpAdd	Lloh297, Lloh298
	.loh AdrpAdd	Lloh295, Lloh296
	.loh AdrpAdd	Lloh293, Lloh294
	.loh AdrpAdd	Lloh299, Lloh300
	.loh AdrpAdd	Lloh305, Lloh306
	.loh AdrpAdd	Lloh303, Lloh304
	.loh AdrpAdd	Lloh301, Lloh302
	.loh AdrpAdd	Lloh307, Lloh308
	.loh AdrpAdd	Lloh313, Lloh314
	.loh AdrpAdd	Lloh311, Lloh312
	.loh AdrpAdd	Lloh309, Lloh310
	.loh AdrpAdd	Lloh315, Lloh316
	.loh AdrpAdd	Lloh321, Lloh322
	.loh AdrpAdd	Lloh319, Lloh320
	.loh AdrpAdd	Lloh317, Lloh318
	.loh AdrpAdd	Lloh323, Lloh324
	.loh AdrpAdd	Lloh329, Lloh330
	.loh AdrpAdd	Lloh327, Lloh328
	.loh AdrpAdd	Lloh325, Lloh326
	.loh AdrpAdd	Lloh331, Lloh332
	.loh AdrpAdd	Lloh337, Lloh338
	.loh AdrpAdd	Lloh335, Lloh336
	.loh AdrpAdd	Lloh333, Lloh334
	.loh AdrpAdd	Lloh339, Lloh340
	.loh AdrpAdd	Lloh345, Lloh346
	.loh AdrpAdd	Lloh343, Lloh344
	.loh AdrpAdd	Lloh341, Lloh342
	.loh AdrpAdd	Lloh347, Lloh348
	.loh AdrpAdd	Lloh353, Lloh354
	.loh AdrpAdd	Lloh351, Lloh352
	.loh AdrpAdd	Lloh349, Lloh350
	.loh AdrpAdd	Lloh355, Lloh356
	.loh AdrpAdd	Lloh361, Lloh362
	.loh AdrpAdd	Lloh359, Lloh360
	.loh AdrpAdd	Lloh357, Lloh358
	.loh AdrpAdd	Lloh363, Lloh364
	.loh AdrpAdd	Lloh369, Lloh370
	.loh AdrpAdd	Lloh367, Lloh368
	.loh AdrpAdd	Lloh365, Lloh366
	.loh AdrpAdd	Lloh371, Lloh372
	.loh AdrpAdd	Lloh377, Lloh378
	.loh AdrpAdd	Lloh375, Lloh376
	.loh AdrpAdd	Lloh373, Lloh374
	.loh AdrpAdd	Lloh379, Lloh380
	.loh AdrpAdd	Lloh385, Lloh386
	.loh AdrpAdd	Lloh383, Lloh384
	.loh AdrpAdd	Lloh381, Lloh382
	.loh AdrpAdd	Lloh387, Lloh388
	.loh AdrpAdd	Lloh393, Lloh394
	.loh AdrpAdd	Lloh391, Lloh392
	.loh AdrpAdd	Lloh389, Lloh390
	.loh AdrpAdd	Lloh395, Lloh396
	.loh AdrpAdd	Lloh401, Lloh402
	.loh AdrpAdd	Lloh399, Lloh400
	.loh AdrpAdd	Lloh397, Lloh398
	.loh AdrpAdd	Lloh403, Lloh404
	.loh AdrpAdd	Lloh409, Lloh410
	.loh AdrpAdd	Lloh407, Lloh408
	.loh AdrpAdd	Lloh405, Lloh406
	.loh AdrpAdd	Lloh411, Lloh412
	.loh AdrpAdd	Lloh417, Lloh418
	.loh AdrpAdd	Lloh415, Lloh416
	.loh AdrpAdd	Lloh413, Lloh414
	.loh AdrpAdd	Lloh419, Lloh420
	.loh AdrpAdd	Lloh425, Lloh426
	.loh AdrpAdd	Lloh423, Lloh424
	.loh AdrpAdd	Lloh421, Lloh422
	.loh AdrpAdd	Lloh427, Lloh428
	.loh AdrpAdd	Lloh433, Lloh434
	.loh AdrpAdd	Lloh431, Lloh432
	.loh AdrpAdd	Lloh429, Lloh430
	.loh AdrpAdd	Lloh435, Lloh436
	.loh AdrpAdd	Lloh441, Lloh442
	.loh AdrpAdd	Lloh439, Lloh440
	.loh AdrpAdd	Lloh437, Lloh438
	.loh AdrpAdd	Lloh443, Lloh444
	.loh AdrpAdd	Lloh449, Lloh450
	.loh AdrpAdd	Lloh447, Lloh448
	.loh AdrpAdd	Lloh445, Lloh446
	.loh AdrpAdd	Lloh451, Lloh452
	.loh AdrpAdd	Lloh457, Lloh458
	.loh AdrpAdd	Lloh455, Lloh456
	.loh AdrpAdd	Lloh453, Lloh454
	.loh AdrpAdd	Lloh459, Lloh460
	.loh AdrpAdd	Lloh465, Lloh466
	.loh AdrpAdd	Lloh463, Lloh464
	.loh AdrpAdd	Lloh461, Lloh462
	.loh AdrpAdd	Lloh467, Lloh468
	.loh AdrpAdd	Lloh473, Lloh474
	.loh AdrpAdd	Lloh471, Lloh472
	.loh AdrpAdd	Lloh469, Lloh470
	.loh AdrpAdd	Lloh475, Lloh476
	.loh AdrpAdd	Lloh481, Lloh482
	.loh AdrpAdd	Lloh479, Lloh480
	.loh AdrpAdd	Lloh477, Lloh478
	.loh AdrpAdd	Lloh483, Lloh484
	.loh AdrpAdd	Lloh489, Lloh490
	.loh AdrpAdd	Lloh487, Lloh488
	.loh AdrpAdd	Lloh485, Lloh486
	.loh AdrpAdd	Lloh491, Lloh492
	.loh AdrpAdd	Lloh497, Lloh498
	.loh AdrpAdd	Lloh495, Lloh496
	.loh AdrpAdd	Lloh493, Lloh494
	.loh AdrpAdd	Lloh499, Lloh500
	.loh AdrpAdd	Lloh505, Lloh506
	.loh AdrpAdd	Lloh503, Lloh504
	.loh AdrpAdd	Lloh501, Lloh502
	.loh AdrpAdd	Lloh507, Lloh508
	.loh AdrpAdd	Lloh513, Lloh514
	.loh AdrpAdd	Lloh511, Lloh512
	.loh AdrpAdd	Lloh509, Lloh510
	.loh AdrpAdd	Lloh515, Lloh516
	.loh AdrpAdd	Lloh521, Lloh522
	.loh AdrpAdd	Lloh519, Lloh520
	.loh AdrpAdd	Lloh517, Lloh518
	.loh AdrpAdd	Lloh523, Lloh524
	.loh AdrpAdd	Lloh529, Lloh530
	.loh AdrpAdd	Lloh527, Lloh528
	.loh AdrpAdd	Lloh525, Lloh526
	.loh AdrpAdd	Lloh531, Lloh532
	.loh AdrpAdd	Lloh537, Lloh538
	.loh AdrpAdd	Lloh535, Lloh536
	.loh AdrpAdd	Lloh533, Lloh534
	.loh AdrpAdd	Lloh539, Lloh540
	.loh AdrpAdd	Lloh545, Lloh546
	.loh AdrpAdd	Lloh543, Lloh544
	.loh AdrpAdd	Lloh541, Lloh542
	.loh AdrpAdd	Lloh547, Lloh548
	.loh AdrpAdd	Lloh553, Lloh554
	.loh AdrpAdd	Lloh551, Lloh552
	.loh AdrpAdd	Lloh549, Lloh550
	.loh AdrpAdd	Lloh555, Lloh556
	.loh AdrpAdd	Lloh561, Lloh562
	.loh AdrpAdd	Lloh559, Lloh560
	.loh AdrpAdd	Lloh557, Lloh558
	.loh AdrpAdd	Lloh563, Lloh564
	.loh AdrpAdd	Lloh569, Lloh570
	.loh AdrpAdd	Lloh567, Lloh568
	.loh AdrpAdd	Lloh565, Lloh566
	.loh AdrpAdd	Lloh571, Lloh572
	.loh AdrpAdd	Lloh577, Lloh578
	.loh AdrpAdd	Lloh575, Lloh576
	.loh AdrpAdd	Lloh573, Lloh574
	.loh AdrpAdd	Lloh579, Lloh580
	.loh AdrpAdd	Lloh585, Lloh586
	.loh AdrpAdd	Lloh583, Lloh584
	.loh AdrpAdd	Lloh581, Lloh582
	.loh AdrpAdd	Lloh587, Lloh588
	.loh AdrpAdd	Lloh593, Lloh594
	.loh AdrpAdd	Lloh591, Lloh592
	.loh AdrpAdd	Lloh589, Lloh590
	.loh AdrpAdd	Lloh595, Lloh596
	.loh AdrpAdd	Lloh601, Lloh602
	.loh AdrpAdd	Lloh599, Lloh600
	.loh AdrpAdd	Lloh597, Lloh598
	.loh AdrpAdd	Lloh603, Lloh604
	.loh AdrpAdd	Lloh609, Lloh610
	.loh AdrpAdd	Lloh607, Lloh608
	.loh AdrpAdd	Lloh605, Lloh606
	.loh AdrpAdd	Lloh611, Lloh612
	.loh AdrpAdd	Lloh617, Lloh618
	.loh AdrpAdd	Lloh615, Lloh616
	.loh AdrpAdd	Lloh613, Lloh614
	.loh AdrpAdd	Lloh619, Lloh620
	.loh AdrpAdd	Lloh625, Lloh626
	.loh AdrpAdd	Lloh623, Lloh624
	.loh AdrpAdd	Lloh621, Lloh622
	.loh AdrpAdd	Lloh627, Lloh628
	.loh AdrpAdd	Lloh633, Lloh634
	.loh AdrpAdd	Lloh631, Lloh632
	.loh AdrpAdd	Lloh629, Lloh630
	.loh AdrpAdd	Lloh635, Lloh636
	.loh AdrpAdd	Lloh641, Lloh642
	.loh AdrpAdd	Lloh639, Lloh640
	.loh AdrpAdd	Lloh637, Lloh638
	.loh AdrpAdd	Lloh643, Lloh644
	.loh AdrpAdd	Lloh649, Lloh650
	.loh AdrpAdd	Lloh647, Lloh648
	.loh AdrpAdd	Lloh645, Lloh646
	.loh AdrpAdd	Lloh651, Lloh652
	.loh AdrpAdd	Lloh657, Lloh658
	.loh AdrpAdd	Lloh655, Lloh656
	.loh AdrpAdd	Lloh653, Lloh654
	.loh AdrpAdd	Lloh659, Lloh660
	.loh AdrpAdd	Lloh665, Lloh666
	.loh AdrpAdd	Lloh663, Lloh664
	.loh AdrpAdd	Lloh661, Lloh662
	.loh AdrpAdd	Lloh667, Lloh668
	.loh AdrpAdd	Lloh673, Lloh674
	.loh AdrpAdd	Lloh671, Lloh672
	.loh AdrpAdd	Lloh669, Lloh670
	.loh AdrpAdd	Lloh675, Lloh676
	.loh AdrpAdd	Lloh681, Lloh682
	.loh AdrpAdd	Lloh679, Lloh680
	.loh AdrpAdd	Lloh677, Lloh678
	.loh AdrpAdd	Lloh683, Lloh684
	.loh AdrpAdd	Lloh689, Lloh690
	.loh AdrpAdd	Lloh687, Lloh688
	.loh AdrpAdd	Lloh685, Lloh686
	.loh AdrpAdd	Lloh691, Lloh692
	.loh AdrpAdd	Lloh697, Lloh698
	.loh AdrpAdd	Lloh695, Lloh696
	.loh AdrpAdd	Lloh693, Lloh694
	.loh AdrpAdd	Lloh699, Lloh700
	.loh AdrpAdd	Lloh705, Lloh706
	.loh AdrpAdd	Lloh703, Lloh704
	.loh AdrpAdd	Lloh701, Lloh702
	.loh AdrpAdd	Lloh707, Lloh708
	.loh AdrpAdd	Lloh713, Lloh714
	.loh AdrpAdd	Lloh711, Lloh712
	.loh AdrpAdd	Lloh709, Lloh710
	.loh AdrpAdd	Lloh715, Lloh716
	.loh AdrpAdd	Lloh721, Lloh722
	.loh AdrpAdd	Lloh719, Lloh720
	.loh AdrpAdd	Lloh717, Lloh718
	.loh AdrpAdd	Lloh723, Lloh724
	.loh AdrpAdd	Lloh729, Lloh730
	.loh AdrpAdd	Lloh727, Lloh728
	.loh AdrpAdd	Lloh725, Lloh726
	.loh AdrpAdd	Lloh731, Lloh732
	.loh AdrpAdd	Lloh737, Lloh738
	.loh AdrpAdd	Lloh735, Lloh736
	.loh AdrpAdd	Lloh733, Lloh734
	.loh AdrpAdd	Lloh739, Lloh740
	.loh AdrpAdd	Lloh745, Lloh746
	.loh AdrpAdd	Lloh743, Lloh744
	.loh AdrpAdd	Lloh741, Lloh742
	.loh AdrpAdd	Lloh747, Lloh748
	.loh AdrpAdd	Lloh753, Lloh754
	.loh AdrpAdd	Lloh751, Lloh752
	.loh AdrpAdd	Lloh749, Lloh750
	.loh AdrpAdd	Lloh755, Lloh756
	.loh AdrpAdd	Lloh761, Lloh762
	.loh AdrpAdd	Lloh759, Lloh760
	.loh AdrpAdd	Lloh757, Lloh758
	.loh AdrpAdd	Lloh763, Lloh764
	.loh AdrpAdd	Lloh769, Lloh770
	.loh AdrpAdd	Lloh767, Lloh768
	.loh AdrpAdd	Lloh765, Lloh766
	.loh AdrpAdd	Lloh771, Lloh772
	.loh AdrpAdd	Lloh777, Lloh778
	.loh AdrpAdd	Lloh775, Lloh776
	.loh AdrpAdd	Lloh773, Lloh774
	.loh AdrpAdd	Lloh779, Lloh780
	.loh AdrpAdd	Lloh785, Lloh786
	.loh AdrpAdd	Lloh783, Lloh784
	.loh AdrpAdd	Lloh781, Lloh782
	.loh AdrpAdd	Lloh787, Lloh788
	.loh AdrpAdd	Lloh793, Lloh794
	.loh AdrpAdd	Lloh791, Lloh792
	.loh AdrpAdd	Lloh789, Lloh790
	.loh AdrpAdd	Lloh795, Lloh796
	.loh AdrpAdd	Lloh801, Lloh802
	.loh AdrpAdd	Lloh799, Lloh800
	.loh AdrpAdd	Lloh797, Lloh798
	.loh AdrpAdd	Lloh803, Lloh804
	.loh AdrpAdd	Lloh809, Lloh810
	.loh AdrpAdd	Lloh807, Lloh808
	.loh AdrpAdd	Lloh805, Lloh806
	.loh AdrpAdd	Lloh811, Lloh812
	.loh AdrpAdd	Lloh817, Lloh818
	.loh AdrpAdd	Lloh815, Lloh816
	.loh AdrpAdd	Lloh813, Lloh814
	.loh AdrpAdd	Lloh819, Lloh820
