	.section	__TEXT,__text,regular,pure_instructions
	.build_version macos, 16, 0
	.globl	_camlString_map_equal_content__code_begin
_camlString_map_equal_content__code_begin:
	.section	__DATA,__data
	.globl	_camlString_map_equal_content__data_begin
_camlString_map_equal_content__data_begin:
	.section	__TEXT,__text,regular,pure_instructions
	.globl	_camlString_map_equal_content__add_6_32_code ; -- Begin function _camlString_map_equal_content__add_6_32_code
	.p2align	2
_camlString_map_equal_content__add_6_32_code: ; @"\01_camlString_map_equal_content__add_6_32_code"
	.cfi_startproc
; %bb.0:                                ; %L1
	sub	sp, sp, #16
	.cfi_def_cfa_offset 16
	str	x30, [sp, #8]                   ; 8-byte Folded Spill
	.cfi_offset w30, -16
	sub	sp, sp, #48
	.cfi_def_cfa_offset 64
	mov	x21, x2
	mov	x19, x1
	mov	x20, x0
	tbnz	w21, #0, LBB0_8
; %bb.1:                                ; %L106
	ldp	x25, x22, [x21, #16]
	ldp	x23, x24, [x21]
	cmp	x24, x20
	b.eq	LBB0_16
; %bb.2:                                ; %L153
	ldur	x8, [x20, #-8]
	lsr	x8, x8, #7
	and	x8, x8, #0x1fffffffffff8
	sub	x8, x8, #1
	ldrb	w9, [x20, x8]
	sub	x8, x8, x9
	ldur	x9, [x24, #-8]
	lsr	x9, x9, #7
	and	x9, x9, #0x1fffffffffff8
	sub	x9, x9, #1
	ldrb	w10, [x24, x9]
	sub	x9, x9, x10
	cmp	x8, x9
	csel	x10, x8, x9, lo
	cmp	x10, #16
	b.lo	LBB0_11
; %bb.3:                                ; %L154
	mov	x0, x20
	mov	x1, x24
	mov	x29, sp
	.cfi_remember_state
	.cfi_def_cfa_register w29
	ldr	x16, [x28, #104]
	mov	sp, x16
	bl	_caml_string_compare
	mov	sp, x29
	.cfi_restore_state
	mov	x9, x0
	cmp	x0, #1
	b.eq	LBB0_16
LBB0_4:                                 ; %L126
	ldr	x8, [x28, #40]
	add	x8, x8, #376
	; InlineAsm Start
	mov	x10, sp
	; InlineAsm End
	cmp	x10, x8
	b.lo	LBB0_21
; %bb.5:                                ; %L167
	cmp	x9, #0
	b.gt	LBB0_22
LBB0_6:                                 ; %L128
	str	x22, [sp, #32]
	str	x23, [sp, #40]
	str	x25, [sp, #24]
	str	x24, [sp, #16]
	str	x21, [sp, #8]
	mov	x0, x20
	mov	x1, x19
	mov	x2, x23
	bl	_camlString_map_equal_content__add_6_32_code
Ltmp0:
	ldr	x8, [sp, #40]
	cmp	x8, x0
	b.eq	LBB0_24
; %bb.7:                                ; %L133
	ldr	x1, [sp, #16]
	ldr	x2, [sp, #24]
	ldr	x3, [sp, #32]
	ldr	x30, [sp, #56]                  ; 8-byte Folded Reload
	add	sp, sp, #64
	b	_camlStdlib__Map__bal_4_146_code
LBB0_8:                                 ; %L103
	sub	x27, x27, #48
	ldr	x8, [x28]
	cmp	x8, x27
	b.hi	LBB0_20
LBB0_9:                                 ; %L150
	mov	w8, #5120
	str	x8, [x27]
	mov	w8, #1
	mov	x21, x27
	str	x8, [x21, #8]!
	stp	x20, x19, [x27, #16]
	str	x8, [x27, #32]
	mov	w8, #3
	str	x8, [x27, #40]
LBB0_10:                                ; %common.ret
	mov	x0, x21
	ldr	x30, [sp, #56]                  ; 8-byte Folded Reload
	add	sp, sp, #64
	ret
LBB0_11:                                ; %L155
	cbz	x10, LBB0_15
; %bb.12:                               ; %L157
	mov	w11, #8
	subs	x11, x11, x10
	csel	x11, xzr, x11, lo
	lsl	x11, x11, #3
	mov	x12, #-1
	lsl	x11, x12, x11
	ldr	x12, [x20]
	rev	x12, x12
	ldr	x13, [x24]
	rev	x13, x13
	and	x12, x12, x11
	and	x11, x13, x11
	cmp	x12, x11
	b.ne	LBB0_19
; %bb.13:                               ; %L159
	cmp	x10, #9
	b.lo	LBB0_15
; %bb.14:                               ; %L160
	lsl	x10, x10, #3
	neg	x10, x10
	mov	x11, #-1
	lsl	x10, x11, x10
	ldr	x11, [x20, #8]
	rev	x11, x11
	ldr	x12, [x24, #8]
	rev	x12, x12
	and	x11, x11, x10
	and	x10, x12, x10
	cmp	x11, x10
	b.ne	LBB0_19
LBB0_15:                                ; %L156
	cmp	x8, x9
	mov	w8, #3
	csinc	x8, x8, xzr, hi
	csinv	x9, x8, xzr, hs
	cmp	x9, #1
	b.ne	LBB0_4
LBB0_16:                                ; %L116
	cmp	x25, x19
	b.eq	LBB0_10
; %bb.17:                               ; %L120
	sub	x27, x27, #48
	ldr	x8, [x28]
	cmp	x8, x27
	b.hi	LBB0_25
LBB0_18:                                ; %L165
	mov	x8, x27
	str	x23, [x8, #8]!
	mov	w9, #5120
	str	x9, [x27]
	stp	x20, x19, [x27, #16]
	str	x22, [x27, #32]
	ldr	x9, [x21, #32]
	str	x9, [x27, #40]
	mov	x21, x8
	mov	x0, x21
	ldr	x30, [sp, #56]                  ; 8-byte Folded Reload
	add	sp, sp, #64
	ret
LBB0_19:                                ; %L158
	mov	w8, #3
	csinv	x9, x8, xzr, hs
	cmp	x9, #1
	b.ne	LBB0_4
	b	LBB0_16
LBB0_20:                                ; %L149
	bl	_caml_call_gc
Ltmp1:
	b	LBB0_9
LBB0_21:                                ; %L166
	mov	w0, #34
	bl	_caml_llvm_call_realloc_stack
Ltmp2:
	cmp	x9, #0
	b.le	LBB0_6
LBB0_22:                                ; %L137
	str	x25, [sp, #32]
	str	x22, [sp, #40]
	str	x24, [sp, #24]
	str	x23, [sp, #16]
	str	x21, [sp, #8]
	mov	x0, x20
	mov	x1, x19
	mov	x2, x22
	bl	_camlString_map_equal_content__add_6_32_code
Ltmp3:
	ldr	x8, [sp, #40]
	cmp	x8, x0
	b.eq	LBB0_24
; %bb.23:                               ; %L142
	mov	x3, x0
	ldr	x0, [sp, #16]
	ldr	x1, [sp, #24]
	ldr	x2, [sp, #32]
	ldr	x30, [sp, #56]                  ; 8-byte Folded Reload
	add	sp, sp, #64
	b	_camlStdlib__Map__bal_4_146_code
LBB0_24:
	ldr	x21, [sp, #8]
	mov	x0, x21
	ldr	x30, [sp, #56]                  ; 8-byte Folded Reload
	add	sp, sp, #64
	ret
LBB0_25:                                ; %L164
	bl	_caml_call_gc
Ltmp4:
	b	LBB0_18
	.cfi_endproc
                                        ; -- End function
	.globl	_camlString_map_equal_content__find_7_33_code ; -- Begin function _camlString_map_equal_content__find_7_33_code
	.p2align	2
_camlString_map_equal_content__find_7_33_code: ; @"\01_camlString_map_equal_content__find_7_33_code"
	.cfi_startproc
; %bb.0:                                ; %L1
	sub	sp, sp, #16
	.cfi_def_cfa_offset 16
	str	x30, [sp, #8]                   ; 8-byte Folded Spill
	.cfi_offset w30, -16
	mov	x19, x1
	tbnz	w19, #0, LBB1_15
; %bb.1:                                ; %L181.preheader
	mov	x20, x0
	ldr	x1, [x19, #8]
	cmp	x1, x0
	b.eq	LBB1_16
; %bb.2:
	mov	w21, #3
	mov	w22, #8
	mov	x23, #-1
	b	LBB1_5
LBB1_3:                                 ; %L192
                                        ;   in Loop: Header=BB1_5 Depth=1
	ldr	x19, [x19]
	tbnz	w19, #0, LBB1_15
LBB1_4:                                 ; %L181.backedge
                                        ;   in Loop: Header=BB1_5 Depth=1
	ldr	x1, [x19, #8]
	cmp	x1, x20
	b.eq	LBB1_16
LBB1_5:                                 ; %L205
                                        ; =>This Inner Loop Header: Depth=1
	ldur	x8, [x20, #-8]
	lsr	x8, x8, #7
	and	x8, x8, #0x1fffffffffff8
	sub	x8, x8, #1
	ldrb	w9, [x20, x8]
	sub	x8, x8, x9
	ldur	x9, [x1, #-8]
	lsr	x9, x9, #7
	and	x9, x9, #0x1fffffffffff8
	sub	x9, x9, #1
	ldrb	w10, [x1, x9]
	sub	x9, x9, x10
	cmp	x8, x9
	csel	x10, x8, x9, lo
	cmp	x10, #16
	b.lo	LBB1_7
; %bb.6:                                ; %L206
                                        ;   in Loop: Header=BB1_5 Depth=1
	mov	x0, x20
	mov	x29, sp
	.cfi_remember_state
	.cfi_def_cfa_register w29
	ldr	x16, [x28, #104]
	mov	sp, x16
	bl	_caml_string_compare
	mov	sp, x29
	.cfi_restore_state
	cmp	x0, #1
	b.ne	LBB1_13
	b	LBB1_16
LBB1_7:                                 ; %L207
                                        ;   in Loop: Header=BB1_5 Depth=1
	cbz	x10, LBB1_11
; %bb.8:                                ; %L209
                                        ;   in Loop: Header=BB1_5 Depth=1
	subs	x11, x22, x10
	csel	x11, xzr, x11, lo
	lsl	x11, x11, #3
	lsl	x11, x23, x11
	ldr	x12, [x20]
	rev	x12, x12
	ldr	x13, [x1]
	rev	x13, x13
	and	x12, x12, x11
	and	x11, x13, x11
	cmp	x12, x11
	b.ne	LBB1_12
; %bb.9:                                ; %L211
                                        ;   in Loop: Header=BB1_5 Depth=1
	cmp	x10, #9
	b.lo	LBB1_11
; %bb.10:                               ; %L212
                                        ;   in Loop: Header=BB1_5 Depth=1
	lsl	x10, x10, #3
	neg	x10, x10
	lsl	x10, x23, x10
	ldr	x11, [x20, #8]
	rev	x11, x11
	ldr	x12, [x1, #8]
	rev	x12, x12
	and	x11, x11, x10
	and	x10, x12, x10
	cmp	x11, x10
	b.ne	LBB1_12
LBB1_11:                                ; %L208
                                        ;   in Loop: Header=BB1_5 Depth=1
	cmp	x8, x9
	csinc	x8, x21, xzr, hi
	csinv	x0, x8, xzr, hs
	cmp	x0, #1
	b.ne	LBB1_13
	b	LBB1_16
LBB1_12:                                ; %L210
                                        ;   in Loop: Header=BB1_5 Depth=1
	csinv	x0, x21, xzr, hs
	cmp	x0, #1
	b.eq	LBB1_16
LBB1_13:                                ; %L190
                                        ;   in Loop: Header=BB1_5 Depth=1
	cmp	x0, #0
	b.le	LBB1_3
; %bb.14:                               ; %L195
                                        ;   in Loop: Header=BB1_5 Depth=1
	ldr	x19, [x19, #24]
	tbz	w19, #0, LBB1_4
LBB1_15:                                ; %L179
Lloh0:
	adrp	x8, _caml_exn_Not_found@GOTPAGE
Lloh1:
	ldr	x8, [x8, _caml_exn_Not_found@GOTPAGEOFF]
	mov	x0, x8
	mov	sp, x26
	ldp	x26, x16, [sp], #16
	br	x16
LBB1_16:                                ; %L186
	ldr	x0, [x19, #16]
	ldr	x30, [sp, #8]                   ; 8-byte Folded Reload
	add	sp, sp, #16
	ret
	.loh AdrpLdrGot	Lloh0, Lloh1
	.cfi_endproc
                                        ; -- End function
	.globl	_camlString_map_equal_content__find_opt_16_34_code ; -- Begin function _camlString_map_equal_content__find_opt_16_34_code
	.p2align	2
_camlString_map_equal_content__find_opt_16_34_code: ; @"\01_camlString_map_equal_content__find_opt_16_34_code"
	.cfi_startproc
; %bb.0:                                ; %L1
	sub	sp, sp, #16
	.cfi_def_cfa_offset 16
	str	x30, [sp, #8]                   ; 8-byte Folded Spill
	.cfi_offset w30, -16
	mov	x19, x1
	tbnz	w19, #0, LBB2_16
; %bb.1:                                ; %L226.preheader
	mov	x21, x0
	ldr	x1, [x19, #8]
	cmp	x1, x0
	b.eq	LBB2_17
; %bb.2:
	mov	w20, #1
	mov	w22, #3
	mov	w23, #8
	mov	x24, #-1
	b	LBB2_5
LBB2_3:                                 ; %L238
                                        ;   in Loop: Header=BB2_5 Depth=1
	ldr	x19, [x19]
	tbnz	w19, #0, LBB2_15
LBB2_4:                                 ; %L226.backedge
                                        ;   in Loop: Header=BB2_5 Depth=1
	ldr	x1, [x19, #8]
	cmp	x1, x21
	b.eq	LBB2_17
LBB2_5:                                 ; %L251
                                        ; =>This Inner Loop Header: Depth=1
	ldur	x8, [x21, #-8]
	lsr	x8, x8, #7
	and	x8, x8, #0x1fffffffffff8
	sub	x8, x8, #1
	ldrb	w9, [x21, x8]
	sub	x8, x8, x9
	ldur	x9, [x1, #-8]
	lsr	x9, x9, #7
	and	x9, x9, #0x1fffffffffff8
	sub	x9, x9, #1
	ldrb	w10, [x1, x9]
	sub	x9, x9, x10
	cmp	x8, x9
	csel	x10, x8, x9, lo
	cmp	x10, #16
	b.lo	LBB2_7
; %bb.6:                                ; %L252
                                        ;   in Loop: Header=BB2_5 Depth=1
	mov	x0, x21
	mov	x29, sp
	.cfi_remember_state
	.cfi_def_cfa_register w29
	ldr	x16, [x28, #104]
	mov	sp, x16
	bl	_caml_string_compare
	mov	sp, x29
	.cfi_restore_state
	cmp	x0, #1
	b.ne	LBB2_13
	b	LBB2_17
LBB2_7:                                 ; %L253
                                        ;   in Loop: Header=BB2_5 Depth=1
	cbz	x10, LBB2_11
; %bb.8:                                ; %L255
                                        ;   in Loop: Header=BB2_5 Depth=1
	subs	x11, x23, x10
	csel	x11, xzr, x11, lo
	lsl	x11, x11, #3
	lsl	x11, x24, x11
	ldr	x12, [x21]
	rev	x12, x12
	ldr	x13, [x1]
	rev	x13, x13
	and	x12, x12, x11
	and	x11, x13, x11
	cmp	x12, x11
	b.ne	LBB2_12
; %bb.9:                                ; %L257
                                        ;   in Loop: Header=BB2_5 Depth=1
	cmp	x10, #9
	b.lo	LBB2_11
; %bb.10:                               ; %L258
                                        ;   in Loop: Header=BB2_5 Depth=1
	lsl	x10, x10, #3
	neg	x10, x10
	lsl	x10, x24, x10
	ldr	x11, [x21, #8]
	rev	x11, x11
	ldr	x12, [x1, #8]
	rev	x12, x12
	and	x11, x11, x10
	and	x10, x12, x10
	cmp	x11, x10
	b.ne	LBB2_12
LBB2_11:                                ; %L254
                                        ;   in Loop: Header=BB2_5 Depth=1
	cmp	x8, x9
	csinc	x8, x22, xzr, hi
	csinv	x0, x8, xzr, hs
	cmp	x0, #1
	b.ne	LBB2_13
	b	LBB2_17
LBB2_12:                                ; %L259
                                        ;   in Loop: Header=BB2_5 Depth=1
	csinv	x0, x22, xzr, hs
	cmp	x0, #1
	b.eq	LBB2_17
LBB2_13:                                ; %L236
                                        ;   in Loop: Header=BB2_5 Depth=1
	cmp	x0, #0
	b.le	LBB2_3
; %bb.14:                               ; %L241
                                        ;   in Loop: Header=BB2_5 Depth=1
	ldr	x19, [x19, #24]
	tbz	w19, #0, LBB2_4
LBB2_15:                                ; %common.ret
	mov	x0, x20
	ldr	x30, [sp, #8]                   ; 8-byte Folded Reload
	add	sp, sp, #16
	ret
LBB2_16:
	mov	w20, #1
	mov	x0, x20
	ldr	x30, [sp, #8]                   ; 8-byte Folded Reload
	add	sp, sp, #16
	ret
LBB2_17:                                ; %L231
	sub	x27, x27, #16
	ldr	x8, [x28]
	cmp	x8, x27
	b.hi	LBB2_19
LBB2_18:                                ; %L262
	mov	w8, #1024
	str	x8, [x27]
	ldr	x8, [x19, #16]
	mov	x20, x27
	str	x8, [x20, #8]!
	mov	x0, x20
	ldr	x30, [sp, #8]                   ; 8-byte Folded Reload
	add	sp, sp, #16
	ret
LBB2_19:                                ; %L261
	bl	_caml_call_gc
Ltmp5:
	b	LBB2_18
	.cfi_endproc
                                        ; -- End function
	.globl	_camlString_map_equal_content__mem_17_35_code ; -- Begin function _camlString_map_equal_content__mem_17_35_code
	.p2align	2
_camlString_map_equal_content__mem_17_35_code: ; @"\01_camlString_map_equal_content__mem_17_35_code"
	.cfi_startproc
; %bb.0:                                ; %L1
	sub	sp, sp, #16
	.cfi_def_cfa_offset 16
	str	x30, [sp, #8]                   ; 8-byte Folded Spill
	.cfi_offset w30, -16
	mov	x20, x1
	tbnz	w20, #0, LBB3_15
; %bb.1:                                ; %L274.preheader
	mov	x21, x0
	ldr	x1, [x20, #8]
	mov	w19, #3
	cmp	x1, x0
	b.eq	LBB3_16
; %bb.2:
	mov	w22, #8
	mov	x23, #-1
	b	LBB3_5
LBB3_3:                                 ; %L283
                                        ;   in Loop: Header=BB3_5 Depth=1
	ldr	x20, [x20]
	tbnz	w20, #0, LBB3_15
LBB3_4:                                 ; %L274.backedge
                                        ;   in Loop: Header=BB3_5 Depth=1
	ldr	x1, [x20, #8]
	cmp	x1, x21
	b.eq	LBB3_16
LBB3_5:                                 ; %L296
                                        ; =>This Inner Loop Header: Depth=1
	ldur	x8, [x21, #-8]
	lsr	x8, x8, #7
	and	x8, x8, #0x1fffffffffff8
	sub	x8, x8, #1
	ldrb	w9, [x21, x8]
	sub	x8, x8, x9
	ldur	x9, [x1, #-8]
	lsr	x9, x9, #7
	and	x9, x9, #0x1fffffffffff8
	sub	x9, x9, #1
	ldrb	w10, [x1, x9]
	sub	x9, x9, x10
	cmp	x8, x9
	csel	x10, x8, x9, lo
	cmp	x10, #16
	b.lo	LBB3_7
; %bb.6:                                ; %L297
                                        ;   in Loop: Header=BB3_5 Depth=1
	mov	x0, x21
	mov	x29, sp
	.cfi_remember_state
	.cfi_def_cfa_register w29
	ldr	x16, [x28, #104]
	mov	sp, x16
	bl	_caml_string_compare
	mov	sp, x29
	.cfi_restore_state
	cmp	x0, #1
	b.ne	LBB3_13
	b	LBB3_16
LBB3_7:                                 ; %L298
                                        ;   in Loop: Header=BB3_5 Depth=1
	cbz	x10, LBB3_11
; %bb.8:                                ; %L300
                                        ;   in Loop: Header=BB3_5 Depth=1
	subs	x11, x22, x10
	csel	x11, xzr, x11, lo
	lsl	x11, x11, #3
	lsl	x11, x23, x11
	ldr	x12, [x21]
	rev	x12, x12
	ldr	x13, [x1]
	rev	x13, x13
	and	x12, x12, x11
	and	x11, x13, x11
	cmp	x12, x11
	b.ne	LBB3_12
; %bb.9:                                ; %L302
                                        ;   in Loop: Header=BB3_5 Depth=1
	cmp	x10, #9
	b.lo	LBB3_11
; %bb.10:                               ; %L303
                                        ;   in Loop: Header=BB3_5 Depth=1
	lsl	x10, x10, #3
	neg	x10, x10
	lsl	x10, x23, x10
	ldr	x11, [x21, #8]
	rev	x11, x11
	ldr	x12, [x1, #8]
	rev	x12, x12
	and	x11, x11, x10
	and	x10, x12, x10
	cmp	x11, x10
	b.ne	LBB3_12
LBB3_11:                                ; %L299
                                        ;   in Loop: Header=BB3_5 Depth=1
	cmp	x8, x9
	csinc	x8, x19, xzr, hi
	csinv	x0, x8, xzr, hs
	cmp	x0, #1
	b.ne	LBB3_13
	b	LBB3_16
LBB3_12:                                ; %L301
                                        ;   in Loop: Header=BB3_5 Depth=1
	csinv	x0, x19, xzr, hs
	cmp	x0, #1
	b.eq	LBB3_16
LBB3_13:                                ; %L281
                                        ;   in Loop: Header=BB3_5 Depth=1
	cmp	x0, #0
	b.le	LBB3_3
; %bb.14:                               ; %L286
                                        ;   in Loop: Header=BB3_5 Depth=1
	ldr	x20, [x20, #24]
	tbz	w20, #0, LBB3_4
LBB3_15:
	mov	w19, #1
LBB3_16:                                ; %common.ret
	mov	x0, x19
	ldr	x30, [sp, #8]                   ; 8-byte Folded Reload
	add	sp, sp, #16
	ret
	.cfi_endproc
                                        ; -- End function
	.globl	_camlString_map_equal_content__remove_24_36_code ; -- Begin function _camlString_map_equal_content__remove_24_36_code
	.p2align	2
_camlString_map_equal_content__remove_24_36_code: ; @"\01_camlString_map_equal_content__remove_24_36_code"
	.cfi_startproc
; %bb.0:                                ; %L1
	sub	sp, sp, #16
	.cfi_def_cfa_offset 16
	str	x30, [sp, #8]                   ; 8-byte Folded Spill
	.cfi_offset w30, -16
	sub	sp, sp, #48
	.cfi_def_cfa_offset 64
	mov	x22, x1
	tbnz	w22, #0, LBB4_10
; %bb.1:                                ; %L312
	mov	x21, x0
	ldp	x24, x19, [x22, #16]
	ldp	x20, x23, [x22]
	cmp	x23, x0
	b.eq	LBB4_12
; %bb.2:                                ; %L388
	ldur	x8, [x21, #-8]
	lsr	x8, x8, #7
	and	x8, x8, #0x1fffffffffff8
	sub	x8, x8, #1
	ldrb	w9, [x21, x8]
	sub	x8, x8, x9
	ldur	x9, [x23, #-8]
	lsr	x9, x9, #7
	and	x9, x9, #0x1fffffffffff8
	sub	x9, x9, #1
	ldrb	w10, [x23, x9]
	sub	x9, x9, x10
	cmp	x8, x9
	csel	x10, x8, x9, lo
	cmp	x10, #16
	b.lo	LBB4_17
; %bb.3:                                ; %L389
	mov	x0, x21
	mov	x1, x23
	mov	x29, sp
	.cfi_remember_state
	.cfi_def_cfa_register w29
	ldr	x16, [x28, #104]
	mov	sp, x16
	bl	_caml_string_compare
	mov	sp, x29
	.cfi_restore_state
	mov	x9, x0
	ldr	x8, [x28, #40]
	add	x8, x8, #376
	; InlineAsm Start
	mov	x10, sp
	; InlineAsm End
	cmp	x10, x8
	b.hs	LBB4_13
LBB4_4:                                 ; %L397
	mov	w0, #34
	bl	_caml_llvm_call_realloc_stack
Ltmp6:
	cmp	x9, #1
	b.ne	LBB4_14
LBB4_5:                                 ; %L322
	tbnz	w20, #0, LBB4_11
; %bb.6:                                ; %L326
	tbnz	w19, #0, LBB4_26
; %bb.7:
	mov	x9, x19
LBB4_8:                                 ; %L342
                                        ; =>This Inner Loop Header: Depth=1
	mov	x8, x9
	ldr	x9, [x9]
	tbz	w9, #0, LBB4_8
; %bb.9:                                ; %L345
	ldp	x8, x9, [x8, #8]
	str	x8, [sp, #32]
	str	x9, [sp, #40]
	str	x20, [sp, #24]
	mov	x0, x19
	bl	_camlStdlib__Map__remove_min_binding_22_164_code
Ltmp7:
	mov	x3, x0
	ldr	x0, [sp, #24]
	ldr	x1, [sp, #32]
	ldr	x2, [sp, #40]
	ldr	x30, [sp, #56]                  ; 8-byte Folded Reload
	add	sp, sp, #64
	b	_camlStdlib__Map__bal_4_146_code
LBB4_10:                                ; %L310
	mov	w19, #1
LBB4_11:                                ; %common.ret
	mov	x0, x19
	ldr	x30, [sp, #56]                  ; 8-byte Folded Reload
	add	sp, sp, #64
	ret
LBB4_12:
	mov	w9, #1
	ldr	x8, [x28, #40]
	add	x8, x8, #376
	; InlineAsm Start
	mov	x10, sp
	; InlineAsm End
	cmp	x10, x8
	b.lo	LBB4_4
LBB4_13:                                ; %L398
	cmp	x9, #1
	b.eq	LBB4_5
LBB4_14:                                ; %L363
	cmp	x9, #0
	b.gt	LBB4_22
; %bb.15:                               ; %L365
	str	x19, [sp, #32]
	str	x20, [sp, #40]
	str	x24, [sp, #24]
	str	x23, [sp, #16]
	str	x22, [sp, #8]
	mov	x0, x21
	mov	x1, x20
	bl	_camlString_map_equal_content__remove_24_36_code
Ltmp8:
	ldr	x8, [sp, #40]
	cmp	x8, x0
	b.eq	LBB4_24
; %bb.16:                               ; %L370
	ldr	x1, [sp, #16]
	ldr	x2, [sp, #24]
	ldr	x3, [sp, #32]
	ldr	x30, [sp, #56]                  ; 8-byte Folded Reload
	add	sp, sp, #64
	b	_camlStdlib__Map__bal_4_146_code
LBB4_17:                                ; %L390
	cbz	x10, LBB4_21
; %bb.18:                               ; %L392
	mov	w11, #8
	subs	x11, x11, x10
	csel	x11, xzr, x11, lo
	lsl	x11, x11, #3
	mov	x12, #-1
	lsl	x11, x12, x11
	ldr	x12, [x21]
	rev	x12, x12
	ldr	x13, [x23]
	rev	x13, x13
	and	x12, x12, x11
	and	x11, x13, x11
	cmp	x12, x11
	b.ne	LBB4_25
; %bb.19:                               ; %L394
	cmp	x10, #9
	b.lo	LBB4_21
; %bb.20:                               ; %L395
	lsl	x10, x10, #3
	neg	x10, x10
	mov	x11, #-1
	lsl	x10, x11, x10
	ldr	x11, [x21, #8]
	rev	x11, x11
	ldr	x12, [x23, #8]
	rev	x12, x12
	and	x11, x11, x10
	and	x10, x12, x10
	cmp	x11, x10
	b.ne	LBB4_25
LBB4_21:                                ; %L391
	cmp	x8, x9
	mov	w8, #3
	csinc	x8, x8, xzr, hi
	csinv	x9, x8, xzr, hs
	ldr	x8, [x28, #40]
	add	x8, x8, #376
	; InlineAsm Start
	mov	x10, sp
	; InlineAsm End
	cmp	x10, x8
	b.hs	LBB4_13
	b	LBB4_4
LBB4_22:                                ; %L374
	str	x24, [sp, #32]
	str	x19, [sp, #40]
	str	x23, [sp, #24]
	str	x20, [sp, #16]
	str	x22, [sp, #8]
	mov	x0, x21
	mov	x1, x19
	bl	_camlString_map_equal_content__remove_24_36_code
Ltmp9:
	ldr	x8, [sp, #40]
	cmp	x8, x0
	b.eq	LBB4_24
; %bb.23:                               ; %L379
	mov	x3, x0
	ldr	x0, [sp, #16]
	ldr	x1, [sp, #24]
	ldr	x2, [sp, #32]
	ldr	x30, [sp, #56]                  ; 8-byte Folded Reload
	add	sp, sp, #64
	b	_camlStdlib__Map__bal_4_146_code
LBB4_24:
	ldr	x19, [sp, #8]
	mov	x0, x19
	ldr	x30, [sp, #56]                  ; 8-byte Folded Reload
	add	sp, sp, #64
	ret
LBB4_25:                                ; %L393
	mov	w8, #3
	csinv	x9, x8, xzr, hs
	ldr	x8, [x28, #40]
	add	x8, x8, #376
	; InlineAsm Start
	mov	x10, sp
	; InlineAsm End
	cmp	x10, x8
	b.hs	LBB4_13
	b	LBB4_4
LBB4_26:                                ; %L328
	mov	x19, x20
	mov	x0, x19
	ldr	x30, [sp, #56]                  ; 8-byte Folded Reload
	add	sp, sp, #64
	ret
	.cfi_endproc
                                        ; -- End function
	.globl	_camlString_map_equal_content__update_25_37_code ; -- Begin function _camlString_map_equal_content__update_25_37_code
	.p2align	2
_camlString_map_equal_content__update_25_37_code: ; @"\01_camlString_map_equal_content__update_25_37_code"
	.cfi_startproc
; %bb.0:                                ; %L1
	sub	sp, sp, #16
	.cfi_def_cfa_offset 16
	str	x30, [sp, #8]                   ; 8-byte Folded Spill
	.cfi_offset w30, -16
	sub	sp, sp, #48
	.cfi_def_cfa_offset 64
	mov	x21, x2
	mov	x19, x1
	mov	x20, x0
	ldr	x8, [x28, #40]
	add	x8, x8, #376
	; InlineAsm Start
	mov	x9, sp
	; InlineAsm End
	cmp	x9, x8
	b.lo	LBB5_30
; %bb.1:                                ; %L509
	tbnz	w21, #0, LBB5_31
LBB5_2:                                 ; %L417
	ldp	x25, x22, [x21, #16]
	ldp	x23, x24, [x21]
	cmp	x24, x20
	b.eq	LBB5_13
; %bb.3:                                ; %L514
	ldur	x8, [x20, #-8]
	lsr	x8, x8, #7
	and	x8, x8, #0x1fffffffffff8
	sub	x8, x8, #1
	ldrb	w9, [x20, x8]
	sub	x8, x8, x9
	ldur	x9, [x24, #-8]
	lsr	x9, x9, #7
	and	x9, x9, #0x1fffffffffff8
	sub	x9, x9, #1
	ldrb	w10, [x24, x9]
	sub	x9, x9, x10
	cmp	x8, x9
	csel	x10, x8, x9, lo
	cmp	x10, #16
	b.lo	LBB5_8
; %bb.4:                                ; %L515
	mov	x0, x20
	mov	x1, x24
	mov	x29, sp
	.cfi_remember_state
	.cfi_def_cfa_register w29
	ldr	x16, [x28, #104]
	mov	sp, x16
	bl	_caml_string_compare
	mov	sp, x29
	.cfi_restore_state
	cmp	x0, #1
	b.eq	LBB5_13
LBB5_5:                                 ; %L485
	cmp	x0, #0
	b.gt	LBB5_24
; %bb.6:                                ; %L487
	str	x22, [sp, #32]
	str	x23, [sp, #40]
	str	x25, [sp, #24]
	str	x24, [sp, #16]
	str	x21, [sp, #8]
	mov	x0, x20
	mov	x1, x19
	mov	x2, x23
	bl	_camlString_map_equal_content__update_25_37_code
Ltmp10:
	ldr	x8, [sp, #40]
	cmp	x8, x0
	b.eq	LBB5_27
; %bb.7:                                ; %L492
	ldr	x1, [sp, #16]
	ldr	x2, [sp, #24]
	ldr	x3, [sp, #32]
	ldr	x30, [sp, #56]                  ; 8-byte Folded Reload
	add	sp, sp, #64
	b	_camlStdlib__Map__bal_4_146_code
LBB5_8:                                 ; %L516
	cbz	x10, LBB5_12
; %bb.9:                                ; %L518
	mov	w11, #8
	subs	x11, x11, x10
	csel	x11, xzr, x11, lo
	lsl	x11, x11, #3
	mov	x12, #-1
	lsl	x11, x12, x11
	ldr	x12, [x20]
	rev	x12, x12
	ldr	x13, [x24]
	rev	x13, x13
	and	x12, x12, x11
	and	x11, x13, x11
	cmp	x12, x11
	b.ne	LBB5_28
; %bb.10:                               ; %L520
	cmp	x10, #9
	b.lo	LBB5_12
; %bb.11:                               ; %L521
	lsl	x10, x10, #3
	neg	x10, x10
	mov	x11, #-1
	lsl	x10, x11, x10
	ldr	x11, [x20, #8]
	rev	x11, x11
	ldr	x12, [x24, #8]
	rev	x12, x12
	and	x11, x11, x10
	and	x10, x12, x10
	cmp	x11, x10
	b.ne	LBB5_28
LBB5_12:                                ; %L517
	cmp	x8, x9
	mov	w8, #3
	csinc	x8, x8, xzr, hi
	csinv	x0, x8, xzr, hs
	cmp	x0, #1
	b.ne	LBB5_5
LBB5_13:                                ; %L427
	sub	x27, x27, #16
	ldr	x8, [x28]
	cmp	x8, x27
	b.hi	LBB5_35
LBB5_14:                                ; %L525
	mov	w8, #1024
	str	x8, [x27]
	mov	x0, x27
	str	x25, [x0, #8]!
	ldr	x8, [x19]
	str	x23, [sp, #32]
	str	x25, [sp, #40]
	str	x20, [sp, #24]
	str	x22, [sp, #16]
	str	x21, [sp, #8]
	mov	x1, x19
	blr	x8
Ltmp11:
	mov	x8, x0
	ldr	x0, [sp, #16]
	ldr	x12, [sp, #32]
	tbnz	w8, #0, LBB5_18
; %bb.15:                               ; %L473
	ldr	x9, [sp, #8]
	ldr	x11, [sp, #40]
	ldr	x10, [x8]
	cmp	x11, x10
	b.eq	LBB5_29
; %bb.16:                               ; %L478
	ldr	x11, [sp, #24]
	sub	x27, x27, #48
	ldr	x8, [x28]
	cmp	x8, x27
	b.hi	LBB5_37
LBB5_17:                                ; %L528
	mov	x8, x27
	str	x12, [x8, #8]!
	mov	w12, #5120
	str	x12, [x27]
	stp	x11, x10, [x27, #16]
	str	x0, [x27, #32]
	ldr	x9, [x9, #32]
	str	x9, [x27, #40]
	mov	x12, x8
	b	LBB5_23
LBB5_18:                                ; %L432
	tbnz	w12, #0, LBB5_26
; %bb.19:                               ; %L436
	tbnz	w0, #0, LBB5_23
; %bb.20:                               ; %L452.preheader
	mov	x9, x0
LBB5_21:                                ; %L452
                                        ; =>This Inner Loop Header: Depth=1
	mov	x8, x9
	ldr	x9, [x9]
	tbz	w9, #0, LBB5_21
; %bb.22:                               ; %L455
	ldp	x9, x8, [x8, #8]
	str	x9, [sp, #24]
	str	x8, [sp, #40]
	bl	_camlStdlib__Map__remove_min_binding_22_164_code
Ltmp12:
	mov	x3, x0
	ldr	x0, [sp, #32]
	ldr	x1, [sp, #24]
	ldr	x2, [sp, #40]
	ldr	x30, [sp, #56]                  ; 8-byte Folded Reload
	add	sp, sp, #64
	b	_camlStdlib__Map__bal_4_146_code
LBB5_23:                                ; %common.ret
	mov	x0, x12
	ldr	x30, [sp, #56]                  ; 8-byte Folded Reload
	add	sp, sp, #64
	ret
LBB5_24:                                ; %L496
	str	x25, [sp, #32]
	str	x22, [sp, #40]
	str	x24, [sp, #24]
	str	x23, [sp, #16]
	str	x21, [sp, #8]
	mov	x0, x20
	mov	x1, x19
	mov	x2, x22
	bl	_camlString_map_equal_content__update_25_37_code
Ltmp13:
	ldr	x8, [sp, #40]
	cmp	x8, x0
	b.eq	LBB5_27
; %bb.25:                               ; %L501
	mov	x3, x0
	ldr	x0, [sp, #16]
	ldr	x1, [sp, #24]
	ldr	x2, [sp, #32]
	ldr	x30, [sp, #56]                  ; 8-byte Folded Reload
	add	sp, sp, #64
	b	_camlStdlib__Map__bal_4_146_code
LBB5_26:
	ldr	x30, [sp, #56]                  ; 8-byte Folded Reload
	add	sp, sp, #64
	ret
LBB5_27:
	ldr	x12, [sp, #8]
	mov	x0, x12
	ldr	x30, [sp, #56]                  ; 8-byte Folded Reload
	add	sp, sp, #64
	ret
LBB5_28:                                ; %L519
	mov	w8, #3
	csinv	x0, x8, xzr, hs
	cmp	x0, #1
	b.ne	LBB5_5
	b	LBB5_13
LBB5_29:
	mov	x12, x9
	mov	x0, x12
	ldr	x30, [sp, #56]                  ; 8-byte Folded Reload
	add	sp, sp, #64
	ret
LBB5_30:                                ; %L508
	mov	w0, #34
	bl	_caml_llvm_call_realloc_stack
Ltmp14:
	tbz	w21, #0, LBB5_2
LBB5_31:                                ; %L406
	ldr	x8, [x19]
	str	x20, [sp, #40]
	mov	w0, #1
	mov	x1, x19
	blr	x8
Ltmp15:
	tbnz	w0, #0, LBB5_34
; %bb.32:                               ; %L412
	ldr	x9, [sp, #40]
	sub	x27, x27, #48
	ldr	x8, [x28]
	cmp	x8, x27
	b.hi	LBB5_36
LBB5_33:                                ; %L511
	mov	w8, #5120
	str	x8, [x27]
	mov	w8, #1
	mov	x12, x27
	str	x8, [x12, #8]!
	str	x9, [x27, #16]
	ldr	x9, [x0]
	str	x9, [x27, #24]
	str	x8, [x27, #32]
	mov	w8, #3
	str	x8, [x27, #40]
	mov	x0, x12
	ldr	x30, [sp, #56]                  ; 8-byte Folded Reload
	add	sp, sp, #64
	ret
LBB5_34:
	mov	w12, #1
	mov	x0, x12
	ldr	x30, [sp, #56]                  ; 8-byte Folded Reload
	add	sp, sp, #64
	ret
LBB5_35:                                ; %L524
	bl	_caml_call_gc
Ltmp16:
	b	LBB5_14
LBB5_36:                                ; %L510
	bl	_caml_call_gc
Ltmp17:
	b	LBB5_33
LBB5_37:                                ; %L527
	bl	_caml_call_gc
Ltmp18:
	b	LBB5_17
	.cfi_endproc
                                        ; -- End function
	.globl	_camlString_map_equal_content__add_to_list_26_38_code ; -- Begin function _camlString_map_equal_content__add_to_list_26_38_code
	.p2align	2
_camlString_map_equal_content__add_to_list_26_38_code: ; @"\01_camlString_map_equal_content__add_to_list_26_38_code"
	.cfi_startproc
; %bb.0:                                ; %L1
	sub	sp, sp, #16
	.cfi_def_cfa_offset 16
	str	x30, [sp, #8]                   ; 8-byte Folded Spill
	.cfi_offset w30, -16
	sub	x27, x27, #32
	ldr	x8, [x28]
	cmp	x8, x27
	b.hi	LBB6_2
LBB6_1:                                 ; %L538
	mov	w8, #3319
Lloh2:
	adrp	x9, _camlString_map_equal_content__add_27_39_code@PAGE
Lloh3:
	add	x9, x9, _camlString_map_equal_content__add_27_39_code@PAGEOFF
	str	x8, [x27]
	mov	x8, x27
	str	x9, [x8, #8]!
	mov	x9, #5
	movk	x9, #384, lsl #48
	str	x9, [x27, #16]
	str	x1, [x27, #24]
	mov	x1, x8
	ldr	x30, [sp, #8]                   ; 8-byte Folded Reload
	add	sp, sp, #16
	b	_camlString_map_equal_content__update_25_37_code
LBB6_2:                                 ; %L537
	bl	_caml_call_gc
Ltmp19:
	b	LBB6_1
	.loh AdrpAdd	Lloh2, Lloh3
	.cfi_endproc
                                        ; -- End function
	.globl	_camlString_map_equal_content__add_27_39_code ; -- Begin function _camlString_map_equal_content__add_27_39_code
	.p2align	2
_camlString_map_equal_content__add_27_39_code: ; @"\01_camlString_map_equal_content__add_27_39_code"
	.cfi_startproc
; %bb.0:                                ; %L1
	sub	sp, sp, #16
	.cfi_def_cfa_offset 16
	str	x30, [sp, #8]                   ; 8-byte Folded Spill
	.cfi_offset w30, -16
	sub	x27, x27, #40
	ldr	x8, [x28]
	cmp	x8, x27
	tbnz	w0, #0, LBB7_3
; %bb.1:                                ; %L548
	b.hi	LBB7_5
LBB7_2:                                 ; %L559
	mov	w8, #2048
	str	x8, [x27, #16]
	ldr	x8, [x1, #16]
	mov	x9, x27
	str	x8, [x9, #24]!
	ldr	x8, [x0]
	mov	x0, x27
	str	x9, [x0, #8]!
	str	x8, [x27, #32]
	mov	w8, #1024
	str	x8, [x27]
	ldr	x30, [sp, #8]                   ; 8-byte Folded Reload
	add	sp, sp, #16
	ret
LBB7_3:                                 ; %L542
	b.hi	LBB7_6
LBB7_4:                                 ; %L557
	mov	w8, #2048
	str	x8, [x27, #16]
	ldr	x8, [x1, #16]
	mov	x9, x27
	str	x8, [x9, #24]!
	mov	x0, x27
	str	x9, [x0, #8]!
	mov	w8, #1
	str	x8, [x27, #32]
	mov	w8, #1024
	str	x8, [x27]
	ldr	x30, [sp, #8]                   ; 8-byte Folded Reload
	add	sp, sp, #16
	ret
LBB7_5:                                 ; %L558
	bl	_caml_call_gc
Ltmp20:
	b	LBB7_2
LBB7_6:                                 ; %L556
	bl	_caml_call_gc
Ltmp21:
	b	LBB7_4
	.cfi_endproc
                                        ; -- End function
	.globl	_camlString_map_equal_content__split_39_40_code ; -- Begin function _camlString_map_equal_content__split_39_40_code
	.p2align	2
_camlString_map_equal_content__split_39_40_code: ; @"\01_camlString_map_equal_content__split_39_40_code"
	.cfi_startproc
; %bb.0:                                ; %L1
	tbnz	w1, #0, LBB8_8
; %bb.1:                                ; %L565
	sub	sp, sp, #16
	.cfi_def_cfa_offset 16
	str	x30, [sp, #8]                   ; 8-byte Folded Spill
	.cfi_offset w30, -16
	sub	sp, sp, #32
	.cfi_def_cfa_offset 48
	.cfi_remember_state
	mov	x21, x0
	ldp	x23, x19, [x1, #16]
	ldp	x20, x22, [x1]
	cmp	x22, x0
	b.eq	LBB8_15
; %bb.2:                                ; %L606
	ldur	x8, [x21, #-8]
	lsr	x8, x8, #7
	and	x8, x8, #0x1fffffffffff8
	sub	x8, x8, #1
	ldrb	w9, [x21, x8]
	sub	x8, x8, x9
	ldur	x9, [x22, #-8]
	lsr	x9, x9, #7
	and	x9, x9, #0x1fffffffffff8
	sub	x9, x9, #1
	ldrb	w10, [x22, x9]
	sub	x9, x9, x10
	cmp	x8, x9
	csel	x10, x8, x9, lo
	cmp	x10, #16
	b.lo	LBB8_9
; %bb.3:                                ; %L607
	mov	x0, x21
	mov	x1, x22
	mov	x29, sp
	.cfi_remember_state
	.cfi_def_cfa_register w29
	ldr	x16, [x28, #104]
	mov	sp, x16
	bl	_caml_string_compare
	mov	sp, x29
	.cfi_restore_state
	mov	x9, x0
	cmp	x0, #1
	b.eq	LBB8_15
LBB8_4:                                 ; %L579
	ldr	x8, [x28, #40]
	add	x8, x8, #376
	; InlineAsm Start
	mov	x10, sp
	; InlineAsm End
	cmp	x10, x8
	b.lo	LBB8_18
; %bb.5:                                ; %L619
	cmp	x9, #0
	b.gt	LBB8_19
LBB8_6:                                 ; %L581
	str	x23, [sp, #16]
	str	x19, [sp, #24]
	str	x22, [sp, #8]
	mov	x0, x21
	mov	x1, x20
	bl	_camlString_map_equal_content__split_39_40_code
Ltmp22:
	ldr	x1, [sp, #8]
	ldr	x2, [sp, #16]
	ldr	x3, [sp, #24]
	ldr	x8, [x0, #16]
	str	x0, [sp, #24]
	mov	x0, x8
	bl	_camlStdlib__Map__join_36_178_code
Ltmp23:
	mov	x19, x0
	ldr	x9, [sp, #24]
	sub	x27, x27, #32
	ldr	x8, [x28]
	cmp	x8, x27
	b.hi	LBB8_21
LBB8_7:                                 ; %L622
	mov	w8, #3072
	str	x8, [x27]
	ldr	x8, [x9]
	mov	x0, x27
	str	x8, [x0, #8]!
	ldr	x8, [x9, #8]
	stp	x8, x19, [x0, #8]
	ldr	x30, [sp, #40]                  ; 8-byte Folded Reload
	add	sp, sp, #48
	ret
LBB8_8:
	.cfi_def_cfa wsp, 0
	.cfi_same_value w30
Lloh4:
	adrp	x0, _camlStdlib__Map__const_block821@GOTPAGE
Lloh5:
	ldr	x0, [x0, _camlStdlib__Map__const_block821@GOTPAGEOFF]
	ret
LBB8_9:                                 ; %L608
	.cfi_restore_state
	cbz	x10, LBB8_13
; %bb.10:                               ; %L610
	mov	w11, #8
	subs	x11, x11, x10
	csel	x11, xzr, x11, lo
	lsl	x11, x11, #3
	mov	x12, #-1
	lsl	x11, x12, x11
	ldr	x12, [x21]
	rev	x12, x12
	ldr	x13, [x22]
	rev	x13, x13
	and	x12, x12, x11
	and	x11, x13, x11
	cmp	x12, x11
	b.ne	LBB8_14
; %bb.11:                               ; %L612
	cmp	x10, #9
	b.lo	LBB8_13
; %bb.12:                               ; %L613
	lsl	x10, x10, #3
	neg	x10, x10
	mov	x11, #-1
	lsl	x10, x11, x10
	ldr	x11, [x21, #8]
	rev	x11, x11
	ldr	x12, [x22, #8]
	rev	x12, x12
	and	x11, x11, x10
	and	x10, x12, x10
	cmp	x11, x10
	b.ne	LBB8_14
LBB8_13:                                ; %L609
	cmp	x8, x9
	mov	w8, #3
	csinc	x8, x8, xzr, hi
	csinv	x9, x8, xzr, hs
	cmp	x9, #1
	b.ne	LBB8_4
	b	LBB8_15
LBB8_14:                                ; %L611
	mov	w8, #3
	csinv	x9, x8, xzr, hs
	cmp	x9, #1
	b.ne	LBB8_4
LBB8_15:                                ; %L575
	sub	x27, x27, #48
	ldr	x8, [x28]
	cmp	x8, x27
	b.hi	LBB8_17
LBB8_16:                                ; %L617
	mov	x0, x27
	str	x20, [x0, #8]!
	mov	w8, #1024
	str	x8, [x27, #32]
	mov	x8, x27
	str	x23, [x8, #40]!
	mov	w9, #3072
	str	x9, [x27]
	str	x8, [x27, #16]
	str	x19, [x0, #16]
	ldr	x30, [sp, #40]                  ; 8-byte Folded Reload
	add	sp, sp, #48
	ret
LBB8_17:                                ; %L616
	bl	_caml_call_gc
Ltmp24:
	b	LBB8_16
LBB8_18:                                ; %L618
	mov	w0, #34
	bl	_caml_llvm_call_realloc_stack
Ltmp25:
	cmp	x9, #0
	b.le	LBB8_6
LBB8_19:                                ; %L591
	str	x22, [sp, #16]
	str	x23, [sp, #24]
	str	x20, [sp, #8]
	mov	x0, x21
	mov	x1, x19
	bl	_camlString_map_equal_content__split_39_40_code
Ltmp26:
	ldr	x8, [sp, #8]
	ldr	x1, [sp, #16]
	ldr	x2, [sp, #24]
	ldr	x3, [x0]
	str	x0, [sp, #24]
	mov	x0, x8
	bl	_camlStdlib__Map__join_36_178_code
Ltmp27:
	mov	x9, x0
	ldr	x10, [sp, #24]
	sub	x27, x27, #32
	ldr	x8, [x28]
	cmp	x8, x27
	b.hi	LBB8_22
LBB8_20:                                ; %L624
	mov	x0, x27
	str	x9, [x0, #8]!
	mov	w8, #3072
	str	x8, [x27]
	ldr	x8, [x10, #8]
	str	x8, [x27, #16]
	ldr	x19, [x10, #16]
	str	x19, [x0, #16]
	ldr	x30, [sp, #40]                  ; 8-byte Folded Reload
	add	sp, sp, #48
	ret
LBB8_21:                                ; %L621
	bl	_caml_call_gc
Ltmp28:
	b	LBB8_7
LBB8_22:                                ; %L623
	bl	_caml_call_gc
Ltmp29:
	b	LBB8_20
	.loh AdrpLdrGot	Lloh4, Lloh5
	.cfi_endproc
                                        ; -- End function
	.globl	_camlString_map_equal_content__merge_40_41_code ; -- Begin function _camlString_map_equal_content__merge_40_41_code
	.p2align	2
_camlString_map_equal_content__merge_40_41_code: ; @"\01_camlString_map_equal_content__merge_40_41_code"
	.cfi_startproc
; %bb.0:                                ; %L1
	sub	sp, sp, #16
	.cfi_def_cfa_offset 16
	str	x30, [sp, #8]                   ; 8-byte Folded Spill
	.cfi_offset w30, -16
	sub	sp, sp, #48
	.cfi_def_cfa_offset 64
	mov	x9, x0
	ldr	x8, [x28, #40]
	add	x8, x8, #376
	; InlineAsm Start
	mov	x10, sp
	; InlineAsm End
	cmp	x10, x8
	b.lo	LBB9_16
; %bb.1:                                ; %L796
	tbnz	w1, #0, LBB9_17
LBB9_2:                                 ; %L638
	tbnz	w2, #0, LBB9_11
; %bb.3:                                ; %L647
	ldr	x8, [x2, #32]
	ldr	x10, [x1, #32]
	cmp	x10, x8
	b.lt	LBB9_12
LBB9_4:                                 ; %L656
	ldr	x0, [x1, #8]
	str	x9, [sp, #32]
	str	x1, [sp, #40]
	str	x0, [sp, #24]
	mov	x1, x2
	bl	_camlString_map_equal_content__split_39_40_code
Ltmp30:
	ldr	x8, [sp, #32]
	ldr	x9, [sp, #40]
	ldr	x2, [x0, #16]
	ldr	x1, [x9, #24]
	str	x0, [sp, #16]
	mov	x0, x8
	bl	_camlString_map_equal_content__merge_40_41_code
Ltmp31:
	mov	x9, x0
	ldr	x0, [sp, #24]
	ldr	x3, [sp, #32]
	ldr	x10, [sp, #40]
	ldr	x11, [sp, #16]
	sub	x27, x27, #16
	ldr	x8, [x28]
	cmp	x8, x27
	b.hi	LBB9_30
LBB9_5:                                 ; %L799
	mov	w8, #1024
	str	x8, [x27]
	ldr	x8, [x10, #16]
	mov	x1, x27
	str	x8, [x1, #8]!
	ldr	x2, [x11, #8]
	str	x10, [sp, #32]
	str	x11, [sp, #40]
	str	x3, [sp, #24]
	str	x9, [sp, #16]
	str	x0, [sp, #8]
	bl	_caml_apply3
Ltmp32:
	ldr	x8, [sp, #24]
	ldr	x9, [sp, #32]
	ldr	x10, [sp, #40]
	ldr	x2, [x10]
	ldr	x1, [x9]
	str	x0, [sp, #40]
	mov	x0, x8
	bl	_camlString_map_equal_content__merge_40_41_code
Ltmp33:
	ldr	x3, [sp, #16]
	ldr	x8, [sp, #40]
	tbz	w8, #0, LBB9_20
; %bb.6:                                ; %L673
	tbnz	w0, #0, LBB9_14
; %bb.7:                                ; %L677
	tbnz	w3, #0, LBB9_15
; %bb.8:                                ; %L693.preheader
	mov	x9, x3
LBB9_9:                                 ; %L693
                                        ; =>This Inner Loop Header: Depth=1
	mov	x8, x9
	ldr	x9, [x9]
	tbz	w9, #0, LBB9_9
; %bb.10:                               ; %L696
	ldp	x9, x8, [x8, #8]
	str	x9, [sp, #32]
	str	x8, [sp, #40]
	str	x0, [sp, #24]
	mov	x0, x3
	bl	_camlStdlib__Map__remove_min_binding_22_164_code
Ltmp34:
	b	LBB9_27
LBB9_11:
	mov	w8, #1
	ldr	x10, [x1, #32]
	cmp	x10, x8
	b.ge	LBB9_4
LBB9_12:                                ; %L724
	tbz	w2, #0, LBB9_18
; %bb.13:                               ; %L726
Lloh6:
	adrp	x8, _camlStdlib__Map__Pmakeblock903@GOTPAGE
Lloh7:
	ldr	x8, [x8, _camlStdlib__Map__Pmakeblock903@GOTPAGEOFF]
	mov	x0, x8
	mov	sp, x26
	ldp	x26, x16, [sp], #16
	br	x16
LBB9_14:                                ; %L675
	mov	x0, x3
LBB9_15:                                ; %common.ret
	ldr	x30, [sp, #56]                  ; 8-byte Folded Reload
	add	sp, sp, #64
	ret
LBB9_16:                                ; %L795
	mov	w0, #34
	bl	_caml_llvm_call_realloc_stack
Ltmp35:
	tbz	w1, #0, LBB9_2
LBB9_17:                                ; %L631
	tbnz	w2, #0, LBB9_21
LBB9_18:                                ; %L728
	ldr	x0, [x2, #8]
	str	x9, [sp, #32]
	str	x2, [sp, #40]
	str	x0, [sp, #24]
	bl	_camlString_map_equal_content__split_39_40_code
Ltmp36:
	ldr	x8, [sp, #32]
	ldr	x9, [sp, #40]
	ldr	x2, [x9, #24]
	ldr	x1, [x0, #16]
	str	x0, [sp, #16]
	mov	x0, x8
	bl	_camlString_map_equal_content__merge_40_41_code
Ltmp37:
	mov	x9, x0
	ldr	x0, [sp, #24]
	ldr	x3, [sp, #32]
	ldr	x10, [sp, #16]
	ldr	x11, [sp, #40]
	sub	x27, x27, #16
	ldr	x8, [x28]
	cmp	x8, x27
	b.hi	LBB9_29
LBB9_19:                                ; %L801
	mov	w8, #1024
	str	x8, [x27]
	ldr	x8, [x11, #16]
	mov	x2, x27
	str	x8, [x2, #8]!
	ldr	x1, [x10, #8]
	str	x10, [sp, #32]
	str	x11, [sp, #40]
	str	x3, [sp, #24]
	str	x9, [sp, #16]
	str	x0, [sp, #8]
	bl	_caml_apply3
Ltmp38:
	ldr	x8, [sp, #24]
	ldr	x9, [sp, #32]
	ldr	x10, [sp, #40]
	ldr	x2, [x10]
	ldr	x1, [x9]
	str	x0, [sp, #40]
	mov	x0, x8
	bl	_camlString_map_equal_content__merge_40_41_code
Ltmp39:
	ldr	x3, [sp, #16]
	ldr	x8, [sp, #40]
	tbnz	w8, #0, LBB9_22
LBB9_20:                                ; %L714
	ldr	x1, [sp, #8]
	ldr	x2, [x8]
	ldr	x30, [sp, #56]                  ; 8-byte Folded Reload
	add	sp, sp, #64
	b	_camlStdlib__Map__join_36_178_code
LBB9_21:                                ; %L633
	mov	w0, #1
	ldr	x30, [sp, #56]                  ; 8-byte Folded Reload
	add	sp, sp, #64
	ret
LBB9_22:                                ; %L747
	tbnz	w0, #0, LBB9_28
; %bb.23:                               ; %L751
	tbnz	w3, #0, LBB9_15
; %bb.24:                               ; %L767.preheader
	mov	x9, x3
LBB9_25:                                ; %L767
                                        ; =>This Inner Loop Header: Depth=1
	mov	x8, x9
	ldr	x9, [x9]
	tbz	w9, #0, LBB9_25
; %bb.26:                               ; %L770
	ldp	x8, x9, [x8, #8]
	str	x8, [sp, #32]
	str	x9, [sp, #40]
	str	x0, [sp, #24]
	mov	x0, x3
	bl	_camlStdlib__Map__remove_min_binding_22_164_code
Ltmp40:
LBB9_27:                                ; %L696
	mov	x3, x0
	ldr	x0, [sp, #24]
	ldr	x1, [sp, #32]
	ldr	x2, [sp, #40]
	ldr	x30, [sp, #56]                  ; 8-byte Folded Reload
	add	sp, sp, #64
	b	_camlStdlib__Map__join_36_178_code
LBB9_28:                                ; %L749
	mov	x0, x3
	ldr	x30, [sp, #56]                  ; 8-byte Folded Reload
	add	sp, sp, #64
	ret
LBB9_29:                                ; %L800
	bl	_caml_call_gc
Ltmp41:
	b	LBB9_19
LBB9_30:                                ; %L798
	bl	_caml_call_gc
Ltmp42:
	b	LBB9_5
	.loh AdrpLdrGot	Lloh6, Lloh7
	.cfi_endproc
                                        ; -- End function
	.globl	_camlString_map_equal_content__union_41_42_code ; -- Begin function _camlString_map_equal_content__union_41_42_code
	.p2align	2
_camlString_map_equal_content__union_41_42_code: ; @"\01_camlString_map_equal_content__union_41_42_code"
	.cfi_startproc
; %bb.0:                                ; %L1
	sub	sp, sp, #16
	.cfi_def_cfa_offset 16
	str	x30, [sp, #8]                   ; 8-byte Folded Spill
	.cfi_offset w30, -16
	sub	sp, sp, #48
	.cfi_def_cfa_offset 64
	tbnz	w1, #0, LBB10_12
; %bb.1:                                ; %L807
	tbnz	w2, #0, LBB10_11
; %bb.2:                                ; %L811
	mov	x9, x0
	ldr	x8, [x28, #40]
	add	x8, x8, #376
	; InlineAsm Start
	mov	x10, sp
	; InlineAsm End
	cmp	x10, x8
	b.lo	LBB10_14
; %bb.3:                                ; %L963
	ldr	x8, [x2, #32]
	ldr	x10, [x1, #32]
	cmp	x10, x8
	b.ge	LBB10_15
LBB10_4:                                ; %L892
	ldp	x0, x8, [x2, #8]
	str	x9, [sp, #32]
	str	x2, [sp, #40]
	str	x8, [sp, #24]
	str	x0, [sp, #16]
	bl	_camlString_map_equal_content__split_39_40_code
Ltmp43:
	ldr	x8, [sp, #32]
	ldr	x9, [sp, #40]
	ldr	x2, [x9]
	ldp	x1, x9, [x0]
	str	x9, [sp]
	str	x0, [sp, #8]
	mov	x0, x8
	bl	_camlString_map_equal_content__union_41_42_code
Ltmp44:
	ldr	x8, [sp, #32]
	ldr	x9, [sp, #8]
	ldr	x10, [sp, #40]
	ldr	x2, [x10, #24]
	ldr	x1, [x9, #16]
	str	x0, [sp, #40]
	mov	x0, x8
	bl	_camlString_map_equal_content__union_41_42_code
Ltmp45:
	mov	x8, x0
	ldr	x9, [sp, #16]
	ldr	x2, [sp, #24]
	ldr	x10, [sp]
	tbnz	w10, #0, LBB10_13
; %bb.5:                                ; %L908
	ldr	x3, [sp, #32]
	ldr	x1, [x10]
	str	x8, [sp, #32]
	mov	x0, x9
	bl	_caml_apply3
Ltmp46:
	ldr	x2, [sp, #40]
	ldr	x3, [sp, #32]
	tbz	w0, #0, LBB10_17
; %bb.6:                                ; %L912
	tbnz	w2, #0, LBB10_25
; %bb.7:                                ; %L916
	tbnz	w3, #0, LBB10_12
; %bb.8:                                ; %L932.preheader
	mov	x9, x3
LBB10_9:                                ; %L932
                                        ; =>This Inner Loop Header: Depth=1
	mov	x8, x9
	ldr	x9, [x9]
	tbz	w9, #0, LBB10_9
; %bb.10:                               ; %L935
	ldp	x9, x8, [x8, #8]
	str	x9, [sp, #24]
	str	x8, [sp, #32]
	mov	x0, x3
	bl	_camlStdlib__Map__remove_min_binding_22_164_code
Ltmp47:
	b	LBB10_24
LBB10_11:                               ; %L809
	mov	x2, x1
LBB10_12:                               ; %common.ret
	mov	x0, x2
	ldr	x30, [sp, #56]                  ; 8-byte Folded Reload
	add	sp, sp, #64
	ret
LBB10_13:                               ; %L905
	ldr	x0, [sp, #40]
	mov	x1, x9
	mov	x3, x8
	ldr	x30, [sp, #56]                  ; 8-byte Folded Reload
	add	sp, sp, #64
	b	_camlStdlib__Map__join_36_178_code
LBB10_14:                               ; %L962
	mov	w0, #34
	bl	_caml_llvm_call_realloc_stack
Ltmp48:
	ldr	x8, [x2, #32]
	ldr	x10, [x1, #32]
	cmp	x10, x8
	b.lt	LBB10_4
LBB10_15:                               ; %L825
	ldp	x0, x8, [x1, #8]
	str	x9, [sp, #32]
	str	x1, [sp, #40]
	str	x8, [sp, #24]
	str	x0, [sp, #16]
	mov	x1, x2
	bl	_camlString_map_equal_content__split_39_40_code
Ltmp49:
	ldr	x8, [sp, #32]
	ldr	x9, [sp, #40]
	ldp	x2, x10, [x0]
	ldr	x1, [x9]
	str	x10, [sp]
	str	x0, [sp, #8]
	mov	x0, x8
	bl	_camlString_map_equal_content__union_41_42_code
Ltmp50:
	ldr	x8, [sp, #32]
	ldr	x9, [sp, #40]
	ldr	x10, [sp, #8]
	ldr	x2, [x10, #16]
	ldr	x1, [x9, #24]
	str	x0, [sp, #40]
	mov	x0, x8
	bl	_camlString_map_equal_content__union_41_42_code
Ltmp51:
	mov	x8, x0
	ldr	x1, [sp, #16]
	ldr	x9, [sp, #24]
	ldr	x10, [sp]
	tbnz	w10, #0, LBB10_18
; %bb.16:                               ; %L841
	ldr	x3, [sp, #32]
	ldr	x2, [x10]
	str	x8, [sp, #32]
	mov	x0, x1
	mov	x1, x9
	bl	_caml_apply3
Ltmp52:
	ldr	x2, [sp, #40]
	ldr	x3, [sp, #32]
	tbnz	w0, #0, LBB10_19
LBB10_17:                               ; %L886
	ldr	x1, [sp, #16]
	ldr	x8, [x0]
	mov	x0, x2
	mov	x2, x8
	ldr	x30, [sp, #56]                  ; 8-byte Folded Reload
	add	sp, sp, #64
	b	_camlStdlib__Map__join_36_178_code
LBB10_18:                               ; %L838
	ldr	x0, [sp, #40]
	mov	x2, x9
	mov	x3, x8
	ldr	x30, [sp, #56]                  ; 8-byte Folded Reload
	add	sp, sp, #64
	b	_camlStdlib__Map__join_36_178_code
LBB10_19:                               ; %L845
	tbnz	w2, #0, LBB10_25
; %bb.20:                               ; %L849
	tbnz	w3, #0, LBB10_12
; %bb.21:                               ; %L865.preheader
	mov	x9, x3
LBB10_22:                               ; %L865
                                        ; =>This Inner Loop Header: Depth=1
	mov	x8, x9
	ldr	x9, [x9]
	tbz	w9, #0, LBB10_22
; %bb.23:                               ; %L868
	ldp	x8, x9, [x8, #8]
	str	x8, [sp, #24]
	str	x9, [sp, #32]
	mov	x0, x3
	bl	_camlStdlib__Map__remove_min_binding_22_164_code
Ltmp53:
LBB10_24:                               ; %L868
	mov	x3, x0
	ldr	x0, [sp, #40]
	ldr	x1, [sp, #24]
	ldr	x2, [sp, #32]
	ldr	x30, [sp, #56]                  ; 8-byte Folded Reload
	add	sp, sp, #64
	b	_camlStdlib__Map__join_36_178_code
LBB10_25:
	mov	x2, x3
	mov	x0, x2
	ldr	x30, [sp, #56]                  ; 8-byte Folded Reload
	add	sp, sp, #64
	ret
	.cfi_endproc
                                        ; -- End function
	.globl	_camlString_map_equal_content__compare_46_43_code ; -- Begin function _camlString_map_equal_content__compare_46_43_code
	.p2align	2
_camlString_map_equal_content__compare_46_43_code: ; @"\01_camlString_map_equal_content__compare_46_43_code"
	.cfi_startproc
; %bb.0:                                ; %L1
	sub	sp, sp, #16
	.cfi_def_cfa_offset 16
	str	x30, [sp, #8]                   ; 8-byte Folded Spill
	.cfi_offset w30, -16
	mov	x10, x2
	sub	x27, x27, #48
	ldr	x8, [x28]
	cmp	x8, x27
	b.hi	LBB11_14
LBB11_1:                                ; %L1021
	mov	w8, #5367
	str	x8, [x27]
Lloh8:
	adrp	x8, _caml_curry2L2@GOTPAGE
Lloh9:
	ldr	x8, [x8, _caml_curry2L2@GOTPAGEOFF]
	mov	x2, x27
	str	x8, [x2, #8]!
	mov	x8, #7
	movk	x8, #640, lsl #48
Lloh10:
	adrp	x9, _camlString_map_equal_content__compare_aux_47_44_code@PAGE
Lloh11:
	add	x9, x9, _camlString_map_equal_content__compare_aux_47_44_code@PAGEOFF
	str	x8, [x2, #8]
	str	x9, [x2, #16]
Lloh12:
	adrp	x8, _camlString_map_equal_content__Pmakeblock283@PAGE
Lloh13:
	add	x8, x8, _camlString_map_equal_content__Pmakeblock283@PAGEOFF
	str	x8, [x2, #24]
	str	x0, [x2, #32]
	tbnz	w10, #0, LBB11_6
; %bb.2:                                ; %L979.preheader
	mov	w12, #1
	mov	w11, #4096
LBB11_3:                                ; %L979
                                        ; =>This Inner Loop Header: Depth=1
	sub	x27, x27, #40
	ldr	x8, [x28]
	cmp	x8, x27
	b.hi	LBB11_5
LBB11_4:                                ; %L1023
                                        ;   in Loop: Header=BB11_3 Depth=1
	str	x11, [x27]
	ldr	x8, [x10, #8]
	mov	x9, x27
	str	x8, [x9, #8]!
	ldr	x8, [x10, #16]
	str	x8, [x9, #8]
	ldr	x8, [x10, #24]
	stp	x8, x12, [x9, #16]
	ldr	x10, [x10]
	mov	x12, x9
	tbz	w10, #0, LBB11_3
	b	LBB11_7
LBB11_5:                                ; %L1022
                                        ;   in Loop: Header=BB11_3 Depth=1
	bl	_caml_call_gc
Ltmp54:
	b	LBB11_4
LBB11_6:
	mov	w9, #1
LBB11_7:                                ; %L977
	tbnz	w1, #0, LBB11_12
; %bb.8:                                ; %L1003.preheader
	mov	w11, #1
	mov	w10, #4096
LBB11_9:                                ; %L1003
                                        ; =>This Inner Loop Header: Depth=1
	sub	x27, x27, #40
	ldr	x8, [x28]
	cmp	x8, x27
	b.hi	LBB11_11
LBB11_10:                               ; %L1025
                                        ;   in Loop: Header=BB11_9 Depth=1
	str	x10, [x27]
	ldr	x8, [x1, #8]
	mov	x0, x27
	str	x8, [x0, #8]!
	ldr	x8, [x1, #16]
	str	x8, [x0, #8]
	ldr	x8, [x1, #24]
	stp	x8, x11, [x0, #16]
	ldr	x1, [x1]
	mov	x11, x0
	tbz	w1, #0, LBB11_9
	b	LBB11_13
LBB11_11:                               ; %L1024
                                        ;   in Loop: Header=BB11_9 Depth=1
	bl	_caml_call_gc
Ltmp55:
	b	LBB11_10
LBB11_12:
	mov	w0, #1
LBB11_13:                               ; %L1001
	mov	x1, x9
	ldr	x30, [sp, #8]                   ; 8-byte Folded Reload
	add	sp, sp, #16
	b	_camlString_map_equal_content__compare_aux_47_44_code
LBB11_14:                               ; %L1020
	bl	_caml_call_gc
Ltmp56:
	b	LBB11_1
	.loh AdrpAdd	Lloh12, Lloh13
	.loh AdrpAdd	Lloh10, Lloh11
	.loh AdrpLdrGot	Lloh8, Lloh9
	.cfi_endproc
                                        ; -- End function
	.globl	_camlString_map_equal_content__compare_aux_47_44_code ; -- Begin function _camlString_map_equal_content__compare_aux_47_44_code
	.p2align	2
_camlString_map_equal_content__compare_aux_47_44_code: ; @"\01_camlString_map_equal_content__compare_aux_47_44_code"
	.cfi_startproc
; %bb.0:                                ; %L1
	sub	sp, sp, #16
	.cfi_def_cfa_offset 16
	str	x30, [sp, #8]                   ; 8-byte Folded Spill
	.cfi_offset w30, -16
	sub	sp, sp, #32
	.cfi_def_cfa_offset 48
	mov	x19, x2
	mov	x20, x1
	mov	x21, x0
	ldr	x8, [x28, #40]
	add	x8, x8, #376
	; InlineAsm Start
	mov	x9, sp
	; InlineAsm End
	cmp	x9, x8
	b.lo	LBB12_6
; %bb.1:                                ; %L1129
	tbz	w21, #0, LBB12_8
LBB12_2:                                ; %L1034
	tbnz	w20, #0, LBB12_5
; %bb.3:                                ; %L1038
	mov	x0, #-1
LBB12_4:                                ; %common.ret
	ldr	x30, [sp, #40]                  ; 8-byte Folded Reload
	add	sp, sp, #48
	ret
LBB12_5:                                ; %L1036
	mov	w0, #1
	ldr	x30, [sp, #40]                  ; 8-byte Folded Reload
	add	sp, sp, #48
	ret
LBB12_6:                                ; %L1128
	mov	w0, #34
	bl	_caml_llvm_call_realloc_stack
Ltmp57:
	tbz	w21, #0, LBB12_8
	b	LBB12_2
LBB12_7:                                ; %L1105
                                        ;   in Loop: Header=BB12_8 Depth=1
	tbnz	w21, #0, LBB12_2
LBB12_8:                                ; %L1041
                                        ; =>This Loop Header: Depth=1
                                        ;     Child Loop BB12_20 Depth 2
                                        ;     Child Loop BB12_24 Depth 2
	tbnz	w20, #0, LBB12_27
; %bb.9:                                ; %L1045
                                        ;   in Loop: Header=BB12_8 Depth=1
	ldr	x1, [x20]
	ldr	x0, [x21]
	cmp	x0, x1
	b.eq	LBB12_18
; %bb.10:                               ; %L1132
                                        ;   in Loop: Header=BB12_8 Depth=1
	ldur	x8, [x0, #-8]
	lsr	x8, x8, #7
	and	x8, x8, #0x1fffffffffff8
	sub	x8, x8, #1
	ldrb	w9, [x0, x8]
	sub	x8, x8, x9
	ldur	x9, [x1, #-8]
	lsr	x9, x9, #7
	and	x9, x9, #0x1fffffffffff8
	sub	x9, x9, #1
	ldrb	w10, [x1, x9]
	sub	x9, x9, x10
	cmp	x8, x9
	csel	x10, x8, x9, lo
	cmp	x10, #16
	b.lo	LBB12_12
; %bb.11:                               ; %L1133
                                        ;   in Loop: Header=BB12_8 Depth=1
	mov	x29, sp
	.cfi_remember_state
	.cfi_def_cfa_register w29
	ldr	x16, [x28, #104]
	mov	sp, x16
	bl	_caml_string_compare
	mov	sp, x29
	.cfi_restore_state
	cmp	x0, #1
	b.eq	LBB12_18
	b	LBB12_4
LBB12_12:                               ; %L1134
                                        ;   in Loop: Header=BB12_8 Depth=1
	cbz	x10, LBB12_16
; %bb.13:                               ; %L1136
                                        ;   in Loop: Header=BB12_8 Depth=1
	mov	w11, #8
	subs	x11, x11, x10
	csel	x11, xzr, x11, lo
	lsl	x11, x11, #3
	mov	x12, #-1
	lsl	x11, x12, x11
	ldr	x12, [x0]
	rev	x12, x12
	ldr	x13, [x1]
	rev	x13, x13
	and	x12, x12, x11
	and	x11, x13, x11
	cmp	x12, x11
	b.ne	LBB12_17
; %bb.14:                               ; %L1138
                                        ;   in Loop: Header=BB12_8 Depth=1
	cmp	x10, #9
	b.lo	LBB12_16
; %bb.15:                               ; %L1139
                                        ;   in Loop: Header=BB12_8 Depth=1
	lsl	x10, x10, #3
	neg	x10, x10
	mov	x11, #-1
	lsl	x10, x11, x10
	ldr	x11, [x0, #8]
	rev	x11, x11
	ldr	x12, [x1, #8]
	rev	x12, x12
	and	x11, x11, x10
	and	x10, x12, x10
	cmp	x11, x10
	b.ne	LBB12_17
LBB12_16:                               ; %L1135
                                        ;   in Loop: Header=BB12_8 Depth=1
	cmp	x8, x9
	mov	w8, #3
	csinc	x8, x8, xzr, hi
	csinv	x0, x8, xzr, hs
	cmp	x0, #1
	b.eq	LBB12_18
	b	LBB12_4
LBB12_17:                               ; %L1137
                                        ;   in Loop: Header=BB12_8 Depth=1
	mov	w8, #3
	csinv	x0, x8, xzr, hs
	cmp	x0, #1
	b.ne	LBB12_4
LBB12_18:                               ; %L1052
                                        ;   in Loop: Header=BB12_8 Depth=1
	ldr	x2, [x19, #32]
	ldr	x1, [x20, #8]
	ldr	x0, [x21, #8]
	str	x19, [sp, #16]
	str	x20, [sp, #24]
	str	x21, [sp, #8]
	bl	_caml_apply2
Ltmp58:
	cmp	x0, #1
	b.ne	LBB12_4
; %bb.19:                               ; %L1066
                                        ;   in Loop: Header=BB12_8 Depth=1
	ldr	x9, [sp, #8]
	ldr	x19, [sp, #16]
	ldr	x8, [sp, #24]
	ldp	x10, x20, [x8, #16]
	mov	w12, #4096
	tbnz	w10, #0, LBB12_23
LBB12_20:                               ; %L1079
                                        ;   Parent Loop BB12_8 Depth=1
                                        ; =>  This Inner Loop Header: Depth=2
	sub	x27, x27, #40
	ldr	x8, [x28]
	cmp	x8, x27
	b.hi	LBB12_22
LBB12_21:                               ; %L1144
                                        ;   in Loop: Header=BB12_20 Depth=2
	str	x12, [x27]
	ldr	x8, [x10, #8]
	mov	x11, x27
	str	x8, [x11, #8]!
	ldr	x8, [x10, #16]
	str	x8, [x11, #8]
	ldr	x8, [x10, #24]
	stp	x8, x20, [x11, #16]
	ldr	x10, [x10]
	mov	x20, x11
	tbz	w10, #0, LBB12_20
	b	LBB12_23
LBB12_22:                               ; %L1143
                                        ;   in Loop: Header=BB12_20 Depth=2
	bl	_caml_call_gc
Ltmp59:
	b	LBB12_21
LBB12_23:                               ; %L1077
                                        ;   in Loop: Header=BB12_8 Depth=1
	ldp	x9, x21, [x9, #16]
	tbnz	w9, #0, LBB12_7
LBB12_24:                               ; %L1107
                                        ;   Parent Loop BB12_8 Depth=1
                                        ; =>  This Inner Loop Header: Depth=2
	sub	x27, x27, #40
	ldr	x8, [x28]
	cmp	x8, x27
	b.hi	LBB12_26
LBB12_25:                               ; %L1146
                                        ;   in Loop: Header=BB12_24 Depth=2
	str	x12, [x27]
	ldr	x8, [x9, #8]
	mov	x10, x27
	str	x8, [x10, #8]!
	ldr	x8, [x9, #16]
	str	x8, [x10, #8]
	ldr	x8, [x9, #24]
	stp	x8, x21, [x10, #16]
	ldr	x9, [x9]
	mov	x21, x10
	tbz	w9, #0, LBB12_24
	b	LBB12_7
LBB12_26:                               ; %L1145
                                        ;   in Loop: Header=BB12_24 Depth=2
	bl	_caml_call_gc
Ltmp60:
	b	LBB12_25
LBB12_27:                               ; %L1043
	mov	w0, #3
	ldr	x30, [sp, #40]                  ; 8-byte Folded Reload
	add	sp, sp, #48
	ret
	.cfi_endproc
                                        ; -- End function
	.globl	_camlString_map_equal_content__equal_48_45_code ; -- Begin function _camlString_map_equal_content__equal_48_45_code
	.p2align	2
_camlString_map_equal_content__equal_48_45_code: ; @"\01_camlString_map_equal_content__equal_48_45_code"
	.cfi_startproc
; %bb.0:                                ; %L1
	sub	sp, sp, #16
	.cfi_def_cfa_offset 16
	str	x30, [sp, #8]                   ; 8-byte Folded Spill
	.cfi_offset w30, -16
	mov	x10, x2
	sub	x27, x27, #48
	ldr	x8, [x28]
	cmp	x8, x27
	b.hi	LBB13_14
LBB13_1:                                ; %L1203
	mov	w8, #5367
	str	x8, [x27]
Lloh14:
	adrp	x8, _caml_curry2L2@GOTPAGE
Lloh15:
	ldr	x8, [x8, _caml_curry2L2@GOTPAGEOFF]
	mov	x2, x27
	str	x8, [x2, #8]!
	mov	x8, #7
	movk	x8, #640, lsl #48
Lloh16:
	adrp	x9, _camlString_map_equal_content__equal_aux_49_46_code@PAGE
Lloh17:
	add	x9, x9, _camlString_map_equal_content__equal_aux_49_46_code@PAGEOFF
	str	x8, [x2, #8]
	str	x9, [x2, #16]
Lloh18:
	adrp	x8, _camlString_map_equal_content__Pmakeblock283@PAGE
Lloh19:
	add	x8, x8, _camlString_map_equal_content__Pmakeblock283@PAGEOFF
	str	x8, [x2, #24]
	str	x0, [x2, #32]
	tbnz	w10, #0, LBB13_6
; %bb.2:                                ; %L1161.preheader
	mov	w12, #1
	mov	w11, #4096
LBB13_3:                                ; %L1161
                                        ; =>This Inner Loop Header: Depth=1
	sub	x27, x27, #40
	ldr	x8, [x28]
	cmp	x8, x27
	b.hi	LBB13_5
LBB13_4:                                ; %L1205
                                        ;   in Loop: Header=BB13_3 Depth=1
	str	x11, [x27]
	ldr	x8, [x10, #8]
	mov	x9, x27
	str	x8, [x9, #8]!
	ldr	x8, [x10, #16]
	str	x8, [x9, #8]
	ldr	x8, [x10, #24]
	stp	x8, x12, [x9, #16]
	ldr	x10, [x10]
	mov	x12, x9
	tbz	w10, #0, LBB13_3
	b	LBB13_7
LBB13_5:                                ; %L1204
                                        ;   in Loop: Header=BB13_3 Depth=1
	bl	_caml_call_gc
Ltmp61:
	b	LBB13_4
LBB13_6:
	mov	w9, #1
LBB13_7:                                ; %L1159
	tbnz	w1, #0, LBB13_12
; %bb.8:                                ; %L1185.preheader
	mov	w11, #1
	mov	w10, #4096
LBB13_9:                                ; %L1185
                                        ; =>This Inner Loop Header: Depth=1
	sub	x27, x27, #40
	ldr	x8, [x28]
	cmp	x8, x27
	b.hi	LBB13_11
LBB13_10:                               ; %L1207
                                        ;   in Loop: Header=BB13_9 Depth=1
	str	x10, [x27]
	ldr	x8, [x1, #8]
	mov	x0, x27
	str	x8, [x0, #8]!
	ldr	x8, [x1, #16]
	str	x8, [x0, #8]
	ldr	x8, [x1, #24]
	stp	x8, x11, [x0, #16]
	ldr	x1, [x1]
	mov	x11, x0
	tbz	w1, #0, LBB13_9
	b	LBB13_13
LBB13_11:                               ; %L1206
                                        ;   in Loop: Header=BB13_9 Depth=1
	bl	_caml_call_gc
Ltmp62:
	b	LBB13_10
LBB13_12:
	mov	w0, #1
LBB13_13:                               ; %L1183
	mov	x1, x9
	ldr	x30, [sp, #8]                   ; 8-byte Folded Reload
	add	sp, sp, #16
	b	_camlString_map_equal_content__equal_aux_49_46_code
LBB13_14:                               ; %L1202
	bl	_caml_call_gc
Ltmp63:
	b	LBB13_1
	.loh AdrpAdd	Lloh18, Lloh19
	.loh AdrpAdd	Lloh16, Lloh17
	.loh AdrpLdrGot	Lloh14, Lloh15
	.cfi_endproc
                                        ; -- End function
	.globl	_camlString_map_equal_content__equal_aux_49_46_code ; -- Begin function _camlString_map_equal_content__equal_aux_49_46_code
	.p2align	2
_camlString_map_equal_content__equal_aux_49_46_code: ; @"\01_camlString_map_equal_content__equal_aux_49_46_code"
	.cfi_startproc
; %bb.0:                                ; %L1
	sub	sp, sp, #16
	.cfi_def_cfa_offset 16
	str	x30, [sp, #8]                   ; 8-byte Folded Spill
	.cfi_offset w30, -16
	sub	sp, sp, #32
	.cfi_def_cfa_offset 48
	mov	x19, x2
	mov	x20, x1
	mov	x21, x0
	ldr	x8, [x28, #40]
	add	x8, x8, #376
	; InlineAsm Start
	mov	x9, sp
	; InlineAsm End
	cmp	x9, x8
	b.lo	LBB14_3
; %bb.1:                                ; %L1309
	tbz	w21, #0, LBB14_5
LBB14_2:                                ; %L1216
                                        ; kill: def $w20 killed $w20 killed $x20 def $x20
	mov	w0, #1
	bfi	x0, x20, #1, #1
	ldr	x30, [sp, #40]                  ; 8-byte Folded Reload
	add	sp, sp, #48
	ret
LBB14_3:                                ; %L1308
	mov	w0, #34
	bl	_caml_llvm_call_realloc_stack
Ltmp64:
	tbz	w21, #0, LBB14_5
	b	LBB14_2
LBB14_4:                                ; %L1281
                                        ;   in Loop: Header=BB14_5 Depth=1
	tbnz	w21, #0, LBB14_2
LBB14_5:                                ; %L1220
                                        ; =>This Loop Header: Depth=1
                                        ;     Child Loop BB14_17 Depth 2
                                        ;     Child Loop BB14_21 Depth 2
	tbnz	w20, #0, LBB14_24
; %bb.6:                                ; %L1224
                                        ;   in Loop: Header=BB14_5 Depth=1
	ldr	x1, [x20]
	ldr	x0, [x21]
	cmp	x0, x1
	b.eq	LBB14_15
; %bb.7:                                ; %L1312
                                        ;   in Loop: Header=BB14_5 Depth=1
	ldur	x8, [x0, #-8]
	lsr	x8, x8, #7
	and	x8, x8, #0x1fffffffffff8
	sub	x8, x8, #1
	ldrb	w9, [x0, x8]
	sub	x8, x8, x9
	ldur	x9, [x1, #-8]
	lsr	x9, x9, #7
	and	x9, x9, #0x1fffffffffff8
	sub	x9, x9, #1
	ldrb	w10, [x1, x9]
	sub	x9, x9, x10
	cmp	x8, x9
	csel	x10, x8, x9, lo
	cmp	x10, #16
	b.lo	LBB14_9
; %bb.8:                                ; %L1313
                                        ;   in Loop: Header=BB14_5 Depth=1
	mov	x29, sp
	.cfi_remember_state
	.cfi_def_cfa_register w29
	ldr	x16, [x28, #104]
	mov	sp, x16
	bl	_caml_string_compare
	mov	sp, x29
	.cfi_restore_state
	cmp	x0, #1
	b.eq	LBB14_15
	b	LBB14_24
LBB14_9:                                ; %L1314
                                        ;   in Loop: Header=BB14_5 Depth=1
	cbz	x10, LBB14_13
; %bb.10:                               ; %L1316
                                        ;   in Loop: Header=BB14_5 Depth=1
	mov	w11, #8
	subs	x11, x11, x10
	csel	x11, xzr, x11, lo
	lsl	x11, x11, #3
	mov	x12, #-1
	lsl	x11, x12, x11
	ldr	x12, [x0]
	rev	x12, x12
	ldr	x13, [x1]
	rev	x13, x13
	and	x12, x12, x11
	and	x11, x13, x11
	cmp	x12, x11
	b.ne	LBB14_14
; %bb.11:                               ; %L1318
                                        ;   in Loop: Header=BB14_5 Depth=1
	cmp	x10, #9
	b.lo	LBB14_13
; %bb.12:                               ; %L1319
                                        ;   in Loop: Header=BB14_5 Depth=1
	lsl	x10, x10, #3
	neg	x10, x10
	mov	x11, #-1
	lsl	x10, x11, x10
	ldr	x11, [x0, #8]
	rev	x11, x11
	ldr	x12, [x1, #8]
	rev	x12, x12
	and	x11, x11, x10
	and	x10, x12, x10
	cmp	x11, x10
	b.ne	LBB14_14
LBB14_13:                               ; %L1315
                                        ;   in Loop: Header=BB14_5 Depth=1
	cmp	x8, x9
	mov	w8, #3
	csinc	x8, x8, xzr, hi
	csinv	x0, x8, xzr, hs
	cmp	x0, #1
	b.eq	LBB14_15
	b	LBB14_24
LBB14_14:                               ; %L1317
                                        ;   in Loop: Header=BB14_5 Depth=1
	mov	w8, #3
	csinv	x0, x8, xzr, hs
	cmp	x0, #1
	b.ne	LBB14_24
LBB14_15:                               ; %L1229
                                        ;   in Loop: Header=BB14_5 Depth=1
	ldr	x2, [x19, #32]
	ldr	x1, [x20, #8]
	ldr	x0, [x21, #8]
	str	x19, [sp, #16]
	str	x20, [sp, #24]
	str	x21, [sp, #8]
	bl	_caml_apply2
Ltmp65:
	cmp	x0, #2
	b.lo	LBB14_24
; %bb.16:                               ; %L1242
                                        ;   in Loop: Header=BB14_5 Depth=1
	ldr	x9, [sp, #8]
	ldr	x19, [sp, #16]
	ldr	x8, [sp, #24]
	ldp	x10, x20, [x8, #16]
	mov	w12, #4096
	tbnz	w10, #0, LBB14_20
LBB14_17:                               ; %L1255
                                        ;   Parent Loop BB14_5 Depth=1
                                        ; =>  This Inner Loop Header: Depth=2
	sub	x27, x27, #40
	ldr	x8, [x28]
	cmp	x8, x27
	b.hi	LBB14_19
LBB14_18:                               ; %L1323
                                        ;   in Loop: Header=BB14_17 Depth=2
	str	x12, [x27]
	ldr	x8, [x10, #8]
	mov	x11, x27
	str	x8, [x11, #8]!
	ldr	x8, [x10, #16]
	str	x8, [x11, #8]
	ldr	x8, [x10, #24]
	stp	x8, x20, [x11, #16]
	ldr	x10, [x10]
	mov	x20, x11
	tbz	w10, #0, LBB14_17
	b	LBB14_20
LBB14_19:                               ; %L1322
                                        ;   in Loop: Header=BB14_17 Depth=2
	bl	_caml_call_gc
Ltmp66:
	b	LBB14_18
LBB14_20:                               ; %L1253
                                        ;   in Loop: Header=BB14_5 Depth=1
	ldp	x9, x21, [x9, #16]
	tbnz	w9, #0, LBB14_4
LBB14_21:                               ; %L1283
                                        ;   Parent Loop BB14_5 Depth=1
                                        ; =>  This Inner Loop Header: Depth=2
	sub	x27, x27, #40
	ldr	x8, [x28]
	cmp	x8, x27
	b.hi	LBB14_23
LBB14_22:                               ; %L1325
                                        ;   in Loop: Header=BB14_21 Depth=2
	str	x12, [x27]
	ldr	x8, [x9, #8]
	mov	x10, x27
	str	x8, [x10, #8]!
	ldr	x8, [x9, #16]
	str	x8, [x10, #8]
	ldr	x8, [x9, #24]
	stp	x8, x21, [x10, #16]
	ldr	x9, [x9]
	mov	x21, x10
	tbz	w9, #0, LBB14_21
	b	LBB14_4
LBB14_23:                               ; %L1324
                                        ;   in Loop: Header=BB14_21 Depth=2
	bl	_caml_call_gc
Ltmp67:
	b	LBB14_22
LBB14_24:                               ; %L1222
	mov	w0, #1
	ldr	x30, [sp, #40]                  ; 8-byte Folded Reload
	add	sp, sp, #48
	ret
	.cfi_endproc
                                        ; -- End function
	.globl	_camlString_map_equal_content__of_list_53_47_code ; -- Begin function _camlString_map_equal_content__of_list_53_47_code
	.p2align	2
_camlString_map_equal_content__of_list_53_47_code: ; @"\01_camlString_map_equal_content__of_list_53_47_code"
	.cfi_startproc
; %bb.0:                                ; %L1
	sub	sp, sp, #16
	.cfi_def_cfa_offset 16
	str	x30, [sp, #8]                   ; 8-byte Folded Spill
	.cfi_offset w30, -16
	sub	sp, sp, #16
	.cfi_def_cfa_offset 32
	mov	x9, x0
	ldr	x8, [x28, #40]
	add	x8, x8, #376
	; InlineAsm Start
	mov	x10, sp
	; InlineAsm End
	cmp	x10, x8
	b.lo	LBB15_4
; %bb.1:                                ; %L1348
	mov	w2, #1
	tbnz	w9, #0, LBB15_3
LBB15_2:                                ; %L1336
                                        ; =>This Inner Loop Header: Depth=1
	ldr	x8, [x9]
	ldp	x0, x1, [x8]
	str	x9, [sp, #8]
	bl	_camlString_map_equal_content__add_6_32_code
Ltmp68:
	mov	x2, x0
	ldr	x8, [sp, #8]
	ldr	x9, [x8, #8]
	tbz	w9, #0, LBB15_2
LBB15_3:                                ; %L1334
	mov	x0, x2
	ldr	x30, [sp, #24]                  ; 8-byte Folded Reload
	add	sp, sp, #32
	ret
LBB15_4:                                ; %L1347
	mov	w0, #34
	bl	_caml_llvm_call_realloc_stack
Ltmp69:
	mov	w2, #1
	tbz	w9, #0, LBB15_2
	b	LBB15_3
	.cfi_endproc
                                        ; -- End function
	.globl	_camlString_map_equal_content__add_seq_55_48_code ; -- Begin function _camlString_map_equal_content__add_seq_55_48_code
	.p2align	2
_camlString_map_equal_content__add_seq_55_48_code: ; @"\01_camlString_map_equal_content__add_seq_55_48_code"
	.cfi_startproc
; %bb.0:                                ; %L1
	sub	sp, sp, #16
	.cfi_def_cfa_offset 16
	str	x30, [sp, #8]                   ; 8-byte Folded Spill
	.cfi_offset w30, -16
	sub	sp, sp, #16
	.cfi_def_cfa_offset 32
	mov	x9, x0
	ldr	x8, [x28, #40]
	add	x8, x8, #376
	; InlineAsm Start
	mov	x10, sp
	; InlineAsm End
	cmp	x10, x8
	b.lo	LBB16_4
LBB16_1:                                ; %L1373
	ldr	x8, [x9]
	str	x1, [sp, #8]
	mov	w0, #1
	mov	x1, x9
	blr	x8
Ltmp70:
	ldr	x2, [sp, #8]
	tbnz	w0, #0, LBB16_3
LBB16_2:                                ; %L1361
                                        ; =>This Inner Loop Header: Depth=1
	ldr	x8, [x0]
	ldp	x8, x1, [x8]
	str	x0, [sp, #8]
	mov	x0, x8
	bl	_camlString_map_equal_content__add_6_32_code
Ltmp71:
	ldr	x8, [sp, #8]
	ldr	x1, [x8, #8]
	ldr	x8, [x1]
	str	x0, [sp, #8]
	mov	w0, #1
	blr	x8
Ltmp72:
	ldr	x2, [sp, #8]
	tbz	w0, #0, LBB16_2
LBB16_3:                                ; %L1359
	mov	x0, x2
	ldr	x30, [sp, #24]                  ; 8-byte Folded Reload
	add	sp, sp, #32
	ret
LBB16_4:                                ; %L1372
	mov	w0, #34
	bl	_caml_llvm_call_realloc_stack
Ltmp73:
	b	LBB16_1
	.cfi_endproc
                                        ; -- End function
	.globl	_camlString_map_equal_content__of_seq_57_49_code ; -- Begin function _camlString_map_equal_content__of_seq_57_49_code
	.p2align	2
_camlString_map_equal_content__of_seq_57_49_code: ; @"\01_camlString_map_equal_content__of_seq_57_49_code"
	.cfi_startproc
; %bb.0:                                ; %L1
	sub	sp, sp, #16
	.cfi_def_cfa_offset 16
	str	x30, [sp, #8]                   ; 8-byte Folded Spill
	.cfi_offset w30, -16
	sub	sp, sp, #16
	.cfi_def_cfa_offset 32
	mov	x1, x0
	ldr	x8, [x28, #40]
	add	x8, x8, #376
	; InlineAsm Start
	mov	x9, sp
	; InlineAsm End
	cmp	x9, x8
	b.lo	LBB17_4
; %bb.1:                                ; %L1398
	ldr	x8, [x1]
	mov	w0, #1
	blr	x8
Ltmp74:
	mov	w2, #1
	tbnz	w0, #0, LBB17_3
LBB17_2:                                ; %L1386
                                        ; =>This Inner Loop Header: Depth=1
	ldr	x8, [x0]
	ldp	x8, x1, [x8]
	str	x0, [sp, #8]
	mov	x0, x8
	bl	_camlString_map_equal_content__add_6_32_code
Ltmp75:
	ldr	x8, [sp, #8]
	ldr	x1, [x8, #8]
	ldr	x8, [x1]
	str	x0, [sp, #8]
	mov	w0, #1
	blr	x8
Ltmp76:
	ldr	x2, [sp, #8]
	tbz	w0, #0, LBB17_2
LBB17_3:                                ; %L1384
	mov	x0, x2
	ldr	x30, [sp, #24]                  ; 8-byte Folded Reload
	add	sp, sp, #32
	ret
LBB17_4:                                ; %L1397
	mov	w0, #34
	bl	_caml_llvm_call_realloc_stack
Ltmp77:
	ldr	x8, [x1]
	mov	w0, #1
	blr	x8
Ltmp78:
	mov	w2, #1
	tbz	w0, #0, LBB17_2
	b	LBB17_3
	.cfi_endproc
                                        ; -- End function
	.globl	_camlString_map_equal_content__to_seq_from_67_50_code ; -- Begin function _camlString_map_equal_content__to_seq_from_67_50_code
	.p2align	2
_camlString_map_equal_content__to_seq_from_67_50_code: ; @"\01_camlString_map_equal_content__to_seq_from_67_50_code"
	.cfi_startproc
; %bb.0:                                ; %L1
	sub	sp, sp, #16
	.cfi_def_cfa_offset 16
	str	x30, [sp, #8]                   ; 8-byte Folded Spill
	.cfi_offset w30, -16
	mov	x20, x1
	tbnz	w20, #0, LBB18_16
; %bb.1:                                ; %L1412.outer.preheader
	mov	x19, x0
	mov	w22, #1
	mov	w25, #3
LBB18_2:                                ; %L1412
                                        ; =>This Inner Loop Header: Depth=1
	ldp	x24, x23, [x20, #16]
	ldr	x21, [x20, #8]
	cmp	x21, x19
	b.eq	LBB18_19
; %bb.3:                                ; %L1442
                                        ;   in Loop: Header=BB18_2 Depth=1
	ldur	x8, [x21, #-8]
	lsr	x8, x8, #7
	and	x8, x8, #0x1fffffffffff8
	sub	x8, x8, #1
	ldrb	w9, [x21, x8]
	sub	x8, x8, x9
	ldur	x9, [x19, #-8]
	lsr	x9, x9, #7
	and	x9, x9, #0x1fffffffffff8
	sub	x9, x9, #1
	ldrb	w10, [x19, x9]
	sub	x9, x9, x10
	cmp	x8, x9
	csel	x10, x8, x9, lo
	cmp	x10, #16
	b.lo	LBB18_5
; %bb.4:                                ; %L1443
                                        ;   in Loop: Header=BB18_2 Depth=1
	mov	x0, x21
	mov	x1, x19
	mov	x29, sp
	.cfi_remember_state
	.cfi_def_cfa_register w29
	ldr	x16, [x28, #104]
	mov	sp, x16
	bl	_caml_string_compare
	mov	sp, x29
	.cfi_restore_state
	cmp	x0, #1
	b.ne	LBB18_11
	b	LBB18_18
LBB18_5:                                ; %L1444
                                        ;   in Loop: Header=BB18_2 Depth=1
	cbz	x10, LBB18_9
; %bb.6:                                ; %L1446
                                        ;   in Loop: Header=BB18_2 Depth=1
	mov	w11, #8
	subs	x11, x11, x10
	csel	x11, xzr, x11, lo
	lsl	x11, x11, #3
	mov	x12, #-1
	lsl	x11, x12, x11
	ldr	x12, [x21]
	rev	x12, x12
	ldr	x13, [x19]
	rev	x13, x13
	and	x12, x12, x11
	and	x11, x13, x11
	cmp	x12, x11
	b.ne	LBB18_10
; %bb.7:                                ; %L1448
                                        ;   in Loop: Header=BB18_2 Depth=1
	cmp	x10, #9
	b.lo	LBB18_9
; %bb.8:                                ; %L1449
                                        ;   in Loop: Header=BB18_2 Depth=1
	lsl	x10, x10, #3
	neg	x10, x10
	mov	x11, #-1
	lsl	x10, x11, x10
	ldr	x11, [x21, #8]
	rev	x11, x11
	ldr	x12, [x19, #8]
	rev	x12, x12
	and	x11, x11, x10
	and	x10, x12, x10
	cmp	x11, x10
	b.ne	LBB18_10
LBB18_9:                                ; %L1445
                                        ;   in Loop: Header=BB18_2 Depth=1
	cmp	x8, x9
	csinc	x8, x25, xzr, hi
	csinv	x0, x8, xzr, hs
	cmp	x0, #1
	b.ne	LBB18_11
	b	LBB18_18
LBB18_10:                               ; %L1450
                                        ;   in Loop: Header=BB18_2 Depth=1
	csinv	x0, x25, xzr, hs
	cmp	x0, #1
	b.eq	LBB18_18
LBB18_11:                               ; %L1421
                                        ;   in Loop: Header=BB18_2 Depth=1
	cmp	x0, #0
	b.gt	LBB18_13
; %bb.12:                               ; %L1423
                                        ;   in Loop: Header=BB18_2 Depth=1
	mov	x20, x23
	tbz	w23, #0, LBB18_2
	b	LBB18_23
LBB18_13:                               ; %L1425
                                        ;   in Loop: Header=BB18_2 Depth=1
	sub	x27, x27, #40
	ldr	x8, [x28]
	cmp	x8, x27
	b.hi	LBB18_15
LBB18_14:                               ; %L1454
                                        ;   in Loop: Header=BB18_2 Depth=1
	mov	x9, x27
	str	x21, [x9, #8]!
	mov	w8, #4096
	str	x8, [x27]
	stp	x24, x23, [x27, #16]
	str	x22, [x27, #32]
	ldr	x20, [x20]
	mov	x22, x9
	tbz	w20, #0, LBB18_2
	b	LBB18_21
LBB18_15:                               ; %L1453
                                        ;   in Loop: Header=BB18_2 Depth=1
	bl	_caml_call_gc
Ltmp79:
	b	LBB18_14
LBB18_16:
	mov	w9, #1
	sub	x27, x27, #40
	ldr	x8, [x28]
	cmp	x8, x27
	b.ls	LBB18_22
LBB18_17:                               ; %L1457
	bl	_caml_call_gc
Ltmp80:
	b	LBB18_22
LBB18_18:
	mov	x19, x21
LBB18_19:                               ; %L1430
	sub	x27, x27, #40
	ldr	x8, [x28]
	cmp	x8, x27
	b.hi	LBB18_24
LBB18_20:                               ; %L1456
	mov	x9, x27
	str	x19, [x9, #8]!
	mov	w8, #4096
	str	x8, [x27]
	stp	x24, x23, [x27, #16]
	str	x22, [x27, #32]
LBB18_21:                               ; %L1436
	sub	x27, x27, #40
	ldr	x8, [x28]
	cmp	x8, x27
	b.hi	LBB18_17
LBB18_22:                               ; %L1458
	mov	w8, #4343
	str	x8, [x27]
Lloh20:
	adrp	x8, _camlStdlib__Map__partial_seq_of_enum__69_69_code@GOTPAGE
Lloh21:
	ldr	x8, [x8, _camlStdlib__Map__partial_seq_of_enum__69_69_code@GOTPAGEOFF]
	mov	x0, x27
	str	x8, [x0, #8]!
	mov	x8, #5
	movk	x8, #384, lsl #48
	str	x8, [x27, #16]
	str	x9, [x27, #24]
Lloh22:
	adrp	x8, _camlStdlib__Map__seq_of_enum__180@GOTPAGE
Lloh23:
	ldr	x8, [x8, _camlStdlib__Map__seq_of_enum__180@GOTPAGEOFF]
	str	x8, [x27, #32]
	ldr	x30, [sp, #8]                   ; 8-byte Folded Reload
	add	sp, sp, #16
	ret
LBB18_23:
	mov	x9, x22
	sub	x27, x27, #40
	ldr	x8, [x28]
	cmp	x8, x27
	b.ls	LBB18_22
	b	LBB18_17
LBB18_24:                               ; %L1455
	bl	_caml_call_gc
Ltmp81:
	b	LBB18_20
	.loh AdrpLdrGot	Lloh22, Lloh23
	.loh AdrpLdrGot	Lloh20, Lloh21
	.cfi_endproc
                                        ; -- End function
	.globl	_camlString_map_equal_content__black_box_int_0_9_code ; -- Begin function _camlString_map_equal_content__black_box_int_0_9_code
	.p2align	2
_camlString_map_equal_content__black_box_int_0_9_code: ; @"\01_camlString_map_equal_content__black_box_int_0_9_code"
	.cfi_startproc
; %bb.0:                                ; %L1
	; InlineAsm Start
	; InlineAsm End
	ret
	.cfi_endproc
                                        ; -- End function
	.globl	_camlString_map_equal_content__black_box_string_1_10_code ; -- Begin function _camlString_map_equal_content__black_box_string_1_10_code
	.p2align	2
_camlString_map_equal_content__black_box_string_1_10_code: ; @"\01_camlString_map_equal_content__black_box_string_1_10_code"
	.cfi_startproc
; %bb.0:                                ; %L1
	; InlineAsm Start
	; InlineAsm End
	ret
	.cfi_endproc
                                        ; -- End function
	.globl	_camlString_map_equal_content__black_box_2_11_code ; -- Begin function _camlString_map_equal_content__black_box_2_11_code
	.p2align	2
_camlString_map_equal_content__black_box_2_11_code: ; @"\01_camlString_map_equal_content__black_box_2_11_code"
	.cfi_startproc
; %bb.0:                                ; %L1
	; InlineAsm Start
	; InlineAsm End
	ret
	.cfi_endproc
                                        ; -- End function
	.globl	_camlString_map_equal_content__print_result_3_12_code ; -- Begin function _camlString_map_equal_content__print_result_3_12_code
	.p2align	2
_camlString_map_equal_content__print_result_3_12_code: ; @"\01_camlString_map_equal_content__print_result_3_12_code"
	.cfi_startproc
; %bb.0:                                ; %L1
	sub	sp, sp, #16
	.cfi_def_cfa_offset 16
	str	x30, [sp, #8]                   ; 8-byte Folded Spill
	.cfi_offset w30, -16
	sub	sp, sp, #16
	.cfi_def_cfa_offset 32
	str	x0, [sp, #8]                    ; 8-byte Folded Spill
	ldr	x8, [x28, #40]
	add	x8, x8, #376
	; InlineAsm Start
	mov	x9, sp
	; InlineAsm End
	cmp	x9, x8
	b.lo	LBB22_2
LBB22_1:                                ; %L1476
Lloh24:
	adrp	x0, _camlStdlib__Printf__fn$5b$2fworkspace_root$2fprintf.ml$3a27$2c14$2d$2d48$5d_31@GOTPAGE
Lloh25:
	ldr	x0, [x0, _camlStdlib__Printf__fn$5b$2fworkspace_root$2fprintf.ml$3a27$2c14$2d$2d48$5d_31@GOTPAGEOFF]
Lloh26:
	adrp	x2, _camlString_map_equal_content__const_block66@PAGE
Lloh27:
	add	x2, x2, _camlString_map_equal_content__const_block66@PAGEOFF
	mov	w1, #1
	bl	_camlCamlinternalFormat__make_printf_120_401_code
Ltmp82:
	mov	x1, x0
	ldr	x8, [sp, #8]                    ; 8-byte Folded Reload
	and	x0, x8, #0x7fffffff
	ldr	x2, [x1]
	ldr	x30, [sp, #24]                  ; 8-byte Folded Reload
	add	sp, sp, #32
	br	x2
LBB22_2:                                ; %L1475
	mov	w0, #34
	bl	_caml_llvm_call_realloc_stack
Ltmp83:
	b	LBB22_1
	.loh AdrpAdd	Lloh26, Lloh27
	.loh AdrpLdrGot	Lloh24, Lloh25
	.cfi_endproc
                                        ; -- End function
	.globl	_camlString_map_equal_content__fn$5bstring_map_equal_content.ml$3a14$2c21$2d$2d27$5d_4_4_code ; -- Begin function _camlString_map_equal_content__fn$5bstring_map_equal_content.ml$3a14$2c21$2d$2d27$5d_4_4_code
	.p2align	2
_camlString_map_equal_content__fn$5bstring_map_equal_content.ml$3a14$2c21$2d$2d27$5d_4_4_code: ; @"\01_camlString_map_equal_content__fn$5bstring_map_equal_content.ml$3a14$2c21$2d$2d27$5d_4_4_code"
	.cfi_startproc
; %bb.0:                                ; %L1
	sub	sp, sp, #16
	.cfi_def_cfa_offset 16
	str	x30, [sp, #8]                   ; 8-byte Folded Spill
	.cfi_offset w30, -16
	cmp	x0, x1
	b.eq	LBB23_3
; %bb.1:                                ; %L1483
	ldur	x8, [x0, #-8]
	lsr	x8, x8, #7
	and	x8, x8, #0x1fffffffffff8
	sub	x8, x8, #1
	ldrb	w9, [x0, x8]
	sub	x8, x8, x9
	ldur	x9, [x1, #-8]
	lsr	x9, x9, #7
	and	x9, x9, #0x1fffffffffff8
	sub	x9, x9, #1
	ldrb	w10, [x1, x9]
	sub	x9, x9, x10
	cmp	x8, x9
	csel	x10, x8, x9, lo
	cmp	x10, #16
	b.lo	LBB23_4
; %bb.2:                                ; %L1484
	mov	x29, sp
	.cfi_remember_state
	.cfi_def_cfa_register w29
	ldr	x16, [x28, #104]
	mov	sp, x16
	bl	_caml_string_compare
	mov	sp, x29
	.cfi_restore_state
	ldr	x30, [sp, #8]                   ; 8-byte Folded Reload
	add	sp, sp, #16
	ret
LBB23_3:
	mov	w0, #1
	ldr	x30, [sp, #8]                   ; 8-byte Folded Reload
	add	sp, sp, #16
	ret
LBB23_4:                                ; %L1485
	cbz	x10, LBB23_8
; %bb.5:                                ; %L1487
	mov	w11, #8
	subs	x11, x11, x10
	csel	x11, xzr, x11, lo
	lsl	x11, x11, #3
	mov	x12, #-1
	lsl	x11, x12, x11
	ldr	x12, [x0]
	rev	x12, x12
	ldr	x13, [x1]
	rev	x13, x13
	and	x12, x12, x11
	and	x11, x13, x11
	cmp	x12, x11
	b.ne	LBB23_9
; %bb.6:                                ; %L1489
	cmp	x10, #9
	b.lo	LBB23_8
; %bb.7:                                ; %L1490
	lsl	x10, x10, #3
	neg	x10, x10
	mov	x11, #-1
	lsl	x10, x11, x10
	ldr	x11, [x0, #8]
	rev	x11, x11
	ldr	x12, [x1, #8]
	rev	x12, x12
	and	x11, x11, x10
	and	x10, x12, x10
	cmp	x11, x10
	b.ne	LBB23_9
LBB23_8:                                ; %L1486
	cmp	x8, x9
	mov	w8, #3
	csinc	x8, x8, xzr, hi
	csinv	x0, x8, xzr, hs
	ldr	x30, [sp, #8]                   ; 8-byte Folded Reload
	add	sp, sp, #16
	ret
LBB23_9:                                ; %L1488
	mov	w8, #3
	csinv	x0, x8, xzr, hs
	ldr	x30, [sp, #8]                   ; 8-byte Folded Reload
	add	sp, sp, #16
	ret
	.cfi_endproc
                                        ; -- End function
	.globl	_camlString_map_equal_content__fresh_5_51_code ; -- Begin function _camlString_map_equal_content__fresh_5_51_code
	.p2align	2
_camlString_map_equal_content__fresh_5_51_code: ; @"\01_camlString_map_equal_content__fresh_5_51_code"
	.cfi_startproc
; %bb.0:                                ; %L1
	sub	sp, sp, #16
	.cfi_def_cfa_offset 16
	str	x30, [sp, #8]                   ; 8-byte Folded Spill
	.cfi_offset w30, -16
	ldur	x8, [x0, #-8]
	lsr	x8, x8, #7
	and	x8, x8, #0x1fffffffffff8
	sub	x8, x8, #1
	ldrb	w9, [x0, x8]
	sub	x8, x8, x9
	mov	w21, #1
	orr	x9, x21, x8, lsl #1
	str	x0, [sp, #-16]!
	.cfi_def_cfa_offset 32
	str	x9, [sp, #8]
Lloh28:
	adrp	x19, _caml_create_bytes@GOTPAGE
Lloh29:
	ldr	x19, [x19, _caml_create_bytes@GOTPAGEOFF]
	mov	x8, x19
	mov	x0, x9
	bl	_caml_c_call
Ltmp84:
	mov	x20, x0
	ldr	x0, [sp]
	ldr	x4, [sp, #8]
	mov	w1, #1
	mov	x2, x20
	mov	w3, #1
	mov	x29, sp
	.cfi_remember_state
	.cfi_def_cfa_register w29
	ldr	x16, [x28, #104]
	mov	sp, x16
	bl	_caml_blit_bytes
	mov	sp, x29
	.cfi_restore_state
	ldur	x8, [x20, #-8]
	lsr	x8, x8, #7
	and	x8, x8, #0x1fffffffffff8
	sub	x8, x8, #1
	ldrb	w9, [x20, x8]
	sub	x8, x8, x9
	orr	x0, x21, x8, lsl #1
	str	x20, [sp]
	str	x0, [sp, #8]
	mov	x8, x19
	bl	_caml_c_call
Ltmp85:
	mov	x19, x0
	ldr	x0, [sp]
	ldr	x4, [sp, #8]
	mov	w1, #1
	mov	x2, x19
	mov	w3, #1
	mov	x29, sp
	.cfi_remember_state
	.cfi_def_cfa_register w29
	ldr	x16, [x28, #104]
	mov	sp, x16
	bl	_caml_blit_bytes
	mov	sp, x29
	.cfi_restore_state
	mov	x0, x19
	ldr	x30, [sp, #24]                  ; 8-byte Folded Reload
	add	sp, sp, #32
	ret
	.loh AdrpLdrGot	Lloh28, Lloh29
	.cfi_endproc
                                        ; -- End function
	.globl	_camlString_map_equal_content__run_6_52_code ; -- Begin function _camlString_map_equal_content__run_6_52_code
	.p2align	2
_camlString_map_equal_content__run_6_52_code: ; @"\01_camlString_map_equal_content__run_6_52_code"
	.cfi_startproc
; %bb.0:                                ; %L1
	sub	sp, sp, #16
	.cfi_def_cfa_offset 16
	str	x30, [sp, #8]                   ; 8-byte Folded Spill
	.cfi_offset w30, -16
	sub	sp, sp, #96
	.cfi_def_cfa_offset 112
	str	x1, [sp, #32]                   ; 8-byte Folded Spill
	str	x0, [sp, #24]                   ; 8-byte Folded Spill
Lloh30:
	adrp	x8, _caml_format_int@GOTPAGE
Lloh31:
	ldr	x8, [x8, _caml_format_int@GOTPAGEOFF]
Lloh32:
	adrp	x0, _camlStdlib__immstring191@GOTPAGE
Lloh33:
	ldr	x0, [x0, _camlStdlib__immstring191@GOTPAGEOFF]
	mov	w19, #1
	mov	w1, #1
	bl	_caml_c_call
Ltmp86:
	ldur	x8, [x0, #-8]
	lsr	x8, x8, #7
	and	x8, x8, #0x1fffffffffff8
	sub	x8, x8, #1
	ldrb	w9, [x0, x8]
	sub	x8, x8, x9
	lsl	x9, x8, #1
	bfi	x19, x8, #1, #63
	add	x9, x9, #39
	str	x0, [sp, #88]
	str	x9, [sp, #80]
Lloh34:
	adrp	x8, _caml_create_bytes@GOTPAGE
Lloh35:
	ldr	x8, [x8, _caml_create_bytes@GOTPAGEOFF]
	mov	x0, x9
	bl	_caml_c_call
Ltmp87:
	mov	x20, x0
	ldr	x21, [sp, #88]
Lloh36:
	adrp	x0, _camlString_map_equal_content__immstring119@PAGE
Lloh37:
	add	x0, x0, _camlString_map_equal_content__immstring119@PAGEOFF
	mov	w1, #1
	mov	x2, x20
	mov	w3, #1
	mov	w4, #39
	mov	x29, sp
	.cfi_remember_state
	.cfi_def_cfa_register w29
	ldr	x16, [x28, #104]
	mov	sp, x16
	bl	_caml_blit_string
	mov	sp, x29
	.cfi_restore_state
	mov	x0, x21
	mov	w1, #1
	mov	x2, x20
	mov	w3, #39
	mov	x4, x19
	mov	x29, sp
	.cfi_remember_state
	.cfi_def_cfa_register w29
	ldr	x16, [x28, #104]
	mov	sp, x16
	bl	_caml_blit_string
	mov	sp, x29
	.cfi_restore_state
	str	x20, [sp, #88]
Lloh38:
	adrp	x8, _caml_array_make@GOTPAGE
Lloh39:
	ldr	x8, [x8, _caml_array_make@GOTPAGEOFF]
	mov	w0, #129
	mov	x1, x20
	bl	_caml_c_call
Ltmp88:
	mov	x9, x0
	ldr	x8, [x28, #40]
	add	x8, x8, #376
	; InlineAsm Start
	mov	x10, sp
	; InlineAsm End
	cmp	x10, x8
	b.lo	LBB25_37
LBB25_1:                                ; %L1544.preheader
	str	x9, [sp, #72]
	mov	w21, #1
Lloh40:
	adrp	x22, _caml_create_bytes@GOTPAGE
Lloh41:
	ldr	x22, [x22, _caml_create_bytes@GOTPAGEOFF]
	b	LBB25_3
LBB25_2:                                ; %L1581.thread
                                        ;   in Loop: Header=BB25_3 Depth=1
	add	x0, x9, x8
	mov	x1, x25
	mov	x29, sp
	.cfi_remember_state
	.cfi_def_cfa_register w29
	ldr	x16, [x28, #104]
	mov	sp, x16
	bl	_caml_modify
	mov	sp, x29
	.cfi_restore_state
	add	x21, x21, #1
	cmp	x21, #64
	b.eq	LBB25_9
LBB25_3:                                ; %L1544
                                        ; =>This Inner Loop Header: Depth=1
	mov	w8, #1
	orr	x24, x8, x21, lsl #1
	str	x24, [sp, #88]
Lloh42:
	adrp	x8, _caml_format_int@GOTPAGE
Lloh43:
	ldr	x8, [x8, _caml_format_int@GOTPAGEOFF]
Lloh44:
	adrp	x0, _camlStdlib__immstring191@GOTPAGE
Lloh45:
	ldr	x0, [x0, _camlStdlib__immstring191@GOTPAGEOFF]
	mov	x1, x24
	bl	_caml_c_call
Ltmp89:
	ldur	x8, [x0, #-8]
	lsr	x8, x8, #7
	and	x8, x8, #0x1fffffffffff8
	sub	x8, x8, #1
	ldrb	w9, [x0, x8]
	sub	x8, x8, x9
	lsl	x9, x8, #1
	mov	w19, #1
	bfi	x19, x8, #1, #63
	add	x9, x9, #39
	str	x0, [sp, #88]
	str	x9, [sp, #80]
	mov	x8, x22
	mov	x0, x9
	bl	_caml_c_call
Ltmp90:
	mov	x25, x0
	ldr	x23, [sp, #72]
	ldr	x20, [sp, #88]
Lloh46:
	adrp	x0, _camlString_map_equal_content__immstring119@PAGE
Lloh47:
	add	x0, x0, _camlString_map_equal_content__immstring119@PAGEOFF
	mov	w1, #1
	mov	x2, x25
	mov	w3, #1
	mov	w4, #39
	mov	x29, sp
	.cfi_remember_state
	.cfi_def_cfa_register w29
	ldr	x16, [x28, #104]
	mov	sp, x16
	bl	_caml_blit_string
	mov	sp, x29
	.cfi_restore_state
	mov	x0, x20
	mov	w1, #1
	mov	x2, x25
	mov	w3, #39
	mov	x4, x19
	mov	x29, sp
	.cfi_remember_state
	.cfi_def_cfa_register w29
	ldr	x16, [x28, #104]
	mov	sp, x16
	bl	_caml_blit_string
	mov	sp, x29
	.cfi_restore_state
	ldurb	w10, [x23, #-8]
	lsl	x8, x24, #2
	sub	x9, x23, #4
	cmp	w10, #254
	b.ne	LBB25_2
; %bb.4:                                ; %L1581
                                        ;   in Loop: Header=BB25_3 Depth=1
	ldr	d0, [x25]
	str	d0, [x9, x8]
	add	x21, x21, #1
	cmp	x21, #64
	b.ne	LBB25_3
; %bb.5:                                ; %L1600.us.preheader
Lloh48:
	adrp	x0, _camlString_map_equal_content__fresh_46@PAGE
Lloh49:
	add	x0, x0, _camlString_map_equal_content__fresh_46@PAGEOFF
	mov	x1, x23
	bl	_camlStdlib__Array__map_10_80_code
Ltmp91:
	str	x0, [sp, #48]                   ; 8-byte Folded Spill
	mov	x10, #0
	ldr	x9, [sp, #72]
	mov	w2, #1
LBB25_6:                                ; %L1600.us
                                        ; =>This Inner Loop Header: Depth=1
	sub	x27, x27, #16
	ldr	x8, [x28]
	cmp	x8, x27
	b.hi	LBB25_8
LBB25_7:                                ; %L1736.us
                                        ;   in Loop: Header=BB25_6 Depth=1
	mov	w8, #4
	orr	x8, x8, x10, lsl #3
	mov	w11, #1277
	str	x11, [x27]
	add	x8, x9, x8
	ldur	d0, [x8, #-4]
	mov	x0, x27
	str	d0, [x0, #8]!
	fmov	x8, d0
	lsr	x8, x8, #56
	mov	w11, #15
	sub	x1, x11, x8, lsl #1
	ldr	x8, [sp, #48]                   ; 8-byte Folded Reload
	str	x8, [sp, #80]
	str	x9, [sp, #88]
	str	x10, [sp, #40]                  ; 8-byte Folded Spill
	bl	_camlString_map_equal_content__add_6_32_code
Ltmp92:
	ldr	x10, [sp, #40]                  ; 8-byte Folded Reload
	mov	x2, x0
	ldr	x8, [sp, #80]
	str	x8, [sp, #48]                   ; 8-byte Folded Spill
	ldr	x9, [sp, #88]
	add	x10, x10, #1
	cmp	x10, #64
	b.ne	LBB25_6
	b	LBB25_12
LBB25_8:                                ; %L1735.us
                                        ;   in Loop: Header=BB25_6 Depth=1
	bl	_caml_call_gc                   ; 8-byte Folded Reload
Ltmp93:
	b	LBB25_7
LBB25_9:                                ; %L1600.preheader
Lloh50:
	adrp	x0, _camlString_map_equal_content__fresh_46@PAGE
Lloh51:
	add	x0, x0, _camlString_map_equal_content__fresh_46@PAGEOFF
	mov	x1, x23
	bl	_camlStdlib__Array__map_10_80_code
Ltmp94:
	mov	x9, #0
	ldr	x8, [sp, #72]
	str	x0, [sp, #56]
	str	x8, [sp, #64]
	mov	w2, #1
LBB25_10:                               ; %L1600
                                        ; =>This Inner Loop Header: Depth=1
	str	x9, [sp, #48]                   ; 8-byte Folded Spill
	ldr	x0, [x8, x9, lsl #3]
	ldur	x8, [x0, #-8]
	lsr	x8, x8, #7
	and	x8, x8, #0x1fffffffffff8
	sub	x8, x8, #1
	ldrb	w9, [x0, x8]
	sub	x8, x8, x9
	mov	w9, #1
	orr	x1, x9, x8, lsl #1
	bl	_camlString_map_equal_content__add_6_32_code
Ltmp95:
	ldr	x9, [sp, #48]                   ; 8-byte Folded Reload
	mov	x2, x0
	ldr	x8, [sp, #64]
	add	x9, x9, #1
	cmp	x9, #64
	b.ne	LBB25_10
; %bb.11:
	ldr	x8, [sp, #56]
	str	x8, [sp, #48]                   ; 8-byte Folded Spill
LBB25_12:                               ; %L1636
	ldr	x8, [sp, #32]                   ; 8-byte Folded Reload
	cmp	x8, #3
	b.ge	LBB25_14
; %bb.13:
	mov	w21, #1
	b	LBB25_17
LBB25_14:                               ; %L1643
	lsr	x9, x8, #1
	ldr	x8, [sp, #24]                   ; 8-byte Folded Reload
	cmp	x8, #2
	b.gt	LBB25_18
; %bb.15:                               ; %L1649.us.preheader
	mov	w21, #1
	mov	w8, #1
LBB25_16:                               ; %L1649.us
                                        ; =>This Inner Loop Header: Depth=1
	add	x8, x8, #1
	cmp	x8, x9
	b.le	LBB25_16
LBB25_17:                               ; %common.ret
	mov	x0, x21
	ldr	x30, [sp, #104]                 ; 8-byte Folded Reload
	add	sp, sp, #112
	ret
LBB25_18:                               ; %L1643.split
	str	x9, [sp, #8]                    ; 8-byte Folded Spill
	str	x2, [sp, #32]                   ; 8-byte Folded Spill
	tbnz	w2, #0, LBB25_36
; %bb.19:                               ; %L1649.preheader
	lsr	x8, x8, #1
	str	x8, [sp, #24]                   ; 8-byte Folded Spill
	mov	w25, #3
	mov	w23, #8
	mov	x20, #-1
	mov	w21, #1
	mov	w9, #1
	ldr	x19, [sp, #32]                  ; 8-byte Folded Reload
	b	LBB25_21
LBB25_20:                               ; %L1716.loopexit
                                        ;   in Loop: Header=BB25_21 Depth=1
	ldr	x9, [sp, #16]                   ; 8-byte Folded Reload
	add	x9, x9, #1
	ldr	x8, [sp, #8]                    ; 8-byte Folded Reload
	cmp	x9, x8
	b.gt	LBB25_17
LBB25_21:                               ; %L1649
                                        ; =>This Loop Header: Depth=1
                                        ;     Child Loop BB25_23 Depth 2
                                        ;       Child Loop BB25_25 Depth 3
	mov	w8, #1
	str	x9, [sp, #16]                   ; 8-byte Folded Spill
	orr	x8, x8, x9, lsl #1
	str	x8, [sp, #40]                   ; 8-byte Folded Spill
	mov	w24, #1
	b	LBB25_23
LBB25_22:                               ; %L1684
                                        ;   in Loop: Header=BB25_23 Depth=2
	ldr	x8, [x19, #16]
	add	x8, x21, x8
	sub	x21, x8, #1
	add	x24, x24, #1
	ldr	x8, [sp, #24]                   ; 8-byte Folded Reload
	cmp	x24, x8
	ldr	x19, [sp, #32]                  ; 8-byte Folded Reload
	b.gt	LBB25_20
LBB25_23:                               ; %L1661
                                        ;   Parent Loop BB25_21 Depth=1
                                        ; =>  This Loop Header: Depth=2
                                        ;       Child Loop BB25_25 Depth 3
	ldr	x8, [sp, #40]                   ; 8-byte Folded Reload
	add	w8, w8, w24, lsl #1
	ubfiz	x8, x8, #2, #7
	ldr	x9, [sp, #48]                   ; 8-byte Folded Reload
	add	x8, x9, x8
	ldur	x22, [x8, #-4]
	b	LBB25_25
LBB25_24:                               ; %L1693
                                        ;   in Loop: Header=BB25_25 Depth=3
	ldr	x19, [x19, #24]
	tbnz	w19, #0, LBB25_36
LBB25_25:                               ; %L1661
                                        ;   Parent Loop BB25_21 Depth=1
                                        ;     Parent Loop BB25_23 Depth=2
                                        ; =>    This Inner Loop Header: Depth=3
	ldr	x1, [x19, #8]
	cmp	x22, x1
	b.eq	LBB25_22
; %bb.26:                               ; %L1742
                                        ;   in Loop: Header=BB25_25 Depth=3
	ldur	x8, [x22, #-8]
	lsr	x8, x8, #7
	and	x8, x8, #0x1fffffffffff8
	sub	x8, x8, #1
	ldrb	w9, [x22, x8]
	sub	x8, x8, x9
	ldur	x9, [x1, #-8]
	lsr	x9, x9, #7
	and	x9, x9, #0x1fffffffffff8
	sub	x9, x9, #1
	ldrb	w10, [x1, x9]
	sub	x9, x9, x10
	cmp	x8, x9
	csel	x10, x8, x9, lo
	cmp	x10, #16
	b.lo	LBB25_28
; %bb.27:                               ; %L1743
                                        ;   in Loop: Header=BB25_25 Depth=3
	mov	x0, x22
	mov	x29, sp
	.cfi_remember_state
	.cfi_def_cfa_register w29
	ldr	x16, [x28, #104]
	mov	sp, x16
	bl	_caml_string_compare
	mov	sp, x29
	.cfi_restore_state
	cmp	x0, #1
	b.ne	LBB25_34
	b	LBB25_22
LBB25_28:                               ; %L1744
                                        ;   in Loop: Header=BB25_25 Depth=3
	cbz	x10, LBB25_32
; %bb.29:                               ; %L1746
                                        ;   in Loop: Header=BB25_25 Depth=3
	subs	x11, x23, x10
	csel	x11, xzr, x11, lo
	lsl	x11, x11, #3
	lsl	x11, x20, x11
	ldr	x12, [x22]
	rev	x12, x12
	ldr	x13, [x1]
	rev	x13, x13
	and	x12, x12, x11
	and	x11, x13, x11
	cmp	x12, x11
	b.ne	LBB25_33
; %bb.30:                               ; %L1748
                                        ;   in Loop: Header=BB25_25 Depth=3
	cmp	x10, #9
	b.lo	LBB25_32
; %bb.31:                               ; %L1749
                                        ;   in Loop: Header=BB25_25 Depth=3
	lsl	x10, x10, #3
	neg	x10, x10
	lsl	x10, x20, x10
	ldr	x11, [x22, #8]
	rev	x11, x11
	ldr	x12, [x1, #8]
	rev	x12, x12
	and	x11, x11, x10
	and	x10, x12, x10
	cmp	x11, x10
	b.ne	LBB25_33
LBB25_32:                               ; %L1745
                                        ;   in Loop: Header=BB25_25 Depth=3
	cmp	x8, x9
	csinc	x8, x25, xzr, hi
	csinv	x0, x8, xzr, hs
	cmp	x0, #1
	b.ne	LBB25_34
	b	LBB25_22
LBB25_33:                               ; %L1747
                                        ;   in Loop: Header=BB25_25 Depth=3
	csinv	x0, x25, xzr, hs
	cmp	x0, #1
	b.eq	LBB25_22
LBB25_34:                               ; %L1688
                                        ;   in Loop: Header=BB25_25 Depth=3
	cmp	x0, #0
	b.gt	LBB25_24
; %bb.35:                               ; %L1690
                                        ;   in Loop: Header=BB25_25 Depth=3
	ldr	x19, [x19]
	tbz	w19, #0, LBB25_25
LBB25_36:                               ; %L1677
Lloh52:
	adrp	x8, _caml_exn_Not_found@GOTPAGE
Lloh53:
	ldr	x8, [x8, _caml_exn_Not_found@GOTPAGEOFF]
	mov	x0, x8
	mov	sp, x26
	ldp	x26, x16, [sp], #16
	br	x16
LBB25_37:                               ; %L1731
	mov	w0, #34
	bl	_caml_llvm_call_realloc_stack
Ltmp96:
	b	LBB25_1
	.loh AdrpLdrGot	Lloh38, Lloh39
	.loh AdrpAdd	Lloh36, Lloh37
	.loh AdrpLdrGot	Lloh34, Lloh35
	.loh AdrpLdrGot	Lloh32, Lloh33
	.loh AdrpLdrGot	Lloh30, Lloh31
	.loh AdrpLdrGot	Lloh40, Lloh41
	.loh AdrpAdd	Lloh46, Lloh47
	.loh AdrpLdrGot	Lloh44, Lloh45
	.loh AdrpLdrGot	Lloh42, Lloh43
	.loh AdrpAdd	Lloh48, Lloh49
	.loh AdrpAdd	Lloh50, Lloh51
	.loh AdrpLdrGot	Lloh52, Lloh53
	.cfi_endproc
                                        ; -- End function
	.globl	_camlString_map_equal_content__entry ; -- Begin function _camlString_map_equal_content__entry
	.p2align	2
_camlString_map_equal_content__entry:   ; @"\01_camlString_map_equal_content__entry"
	.cfi_startproc
; %bb.0:                                ; %L1
	sub	sp, sp, #16
	.cfi_def_cfa_offset 16
	str	x30, [sp, #8]                   ; 8-byte Folded Spill
	.cfi_offset w30, -16
	sub	sp, sp, #32
	.cfi_def_cfa_offset 48
Lloh54:
	adrp	x8, _caml_sys_argv@GOTPAGE
Lloh55:
	ldr	x8, [x8, _caml_sys_argv@GOTPAGEOFF]
	mov	w0, #1
	bl	_caml_c_call
Ltmp97:
	ldur	x8, [x0, #-8]
	tst	x8, #0xfffffffffff800
	b.eq	LBB26_3
; %bb.1:                                ; %L1769
Lloh56:
	adrp	x8, _caml_sys_argv@GOTPAGE
Lloh57:
	ldr	x8, [x8, _caml_sys_argv@GOTPAGEOFF]
	mov	w0, #1
	bl	_caml_c_call
Ltmp98:
	ldur	x8, [x0, #-8]
	tst	x8, #0xfffffffffff800
	b.eq	LBB26_11
; %bb.2:                                ; %L1779
	ldr	x0, [x0, #8]
	str	x0, [sp, #24]
Lloh58:
	adrp	x8, _caml_int_of_string@GOTPAGE
Lloh59:
	ldr	x8, [x8, _caml_int_of_string@GOTPAGEOFF]
	bl	_caml_c_call
Ltmp99:
	mov	x20, x0
	b	LBB26_4
LBB26_3:
	mov	w20, #3393
	movk	w20, #3, lsl #16
LBB26_4:                                ; %L1793
Lloh60:
	adrp	x0, _camlString_map_equal_content@PAGE+24
Lloh61:
	add	x0, x0, _camlString_map_equal_content@PAGEOFF+24
	mov	x1, x20
	mov	x29, sp
	.cfi_remember_state
	.cfi_def_cfa_register w29
	ldr	x16, [x28, #104]
	mov	sp, x16
	bl	_caml_initialize
	mov	sp, x29
	.cfi_restore_state
Lloh62:
	adrp	x8, _caml_sys_argv@GOTPAGE
Lloh63:
	ldr	x8, [x8, _caml_sys_argv@GOTPAGEOFF]
	mov	w0, #1
	bl	_caml_c_call
Ltmp100:
	ldur	x8, [x0, #-8]
	and	x8, x8, #0xfffffffffffc00
	cmp	x8, #2561
	b.lo	LBB26_7
; %bb.5:                                ; %L1805
Lloh64:
	adrp	x8, _caml_sys_argv@GOTPAGE
Lloh65:
	ldr	x8, [x8, _caml_sys_argv@GOTPAGEOFF]
	mov	w0, #1
	bl	_caml_c_call
Ltmp101:
	ldur	x8, [x0, #-8]
	and	x8, x8, #0xfffffffffffc00
	cmp	x8, #2561
	b.lo	LBB26_11
; %bb.6:                                ; %L1815
	ldr	x0, [x0, #16]
	str	x0, [sp, #24]
Lloh66:
	adrp	x8, _caml_int_of_string@GOTPAGE
Lloh67:
	ldr	x8, [x8, _caml_int_of_string@GOTPAGEOFF]
	bl	_caml_c_call
Ltmp102:
	mov	x19, x0
	b	LBB26_8
LBB26_7:
	mov	w19, #21
LBB26_8:                                ; %L1829
Lloh68:
	adrp	x0, _camlString_map_equal_content@PAGE+32
Lloh69:
	add	x0, x0, _camlString_map_equal_content@PAGEOFF+32
	mov	x1, x19
	mov	x29, sp
	.cfi_remember_state
	.cfi_def_cfa_register w29
	ldr	x16, [x28, #104]
	mov	sp, x16
	bl	_caml_initialize
	mov	sp, x29
	.cfi_restore_state
	ldr	x8, [x28, #40]
	add	x8, x8, #376
	; InlineAsm Start
	mov	x9, sp
	; InlineAsm End
	cmp	x9, x8
	str	x20, [sp, #16]                  ; 8-byte Folded Spill
	b.lo	LBB26_10
LBB26_9:                                ; %L1850
	mov	x0, x19
	bl	_camlString_map_equal_content__black_box_int_0_9_code
Ltmp103:
	str	x0, [sp, #8]                    ; 8-byte Folded Spill
	ldr	x0, [sp, #16]                   ; 8-byte Folded Reload
	bl	_camlString_map_equal_content__black_box_int_0_9_code
Ltmp104:
	ldr	x1, [sp, #8]                    ; 8-byte Folded Reload
	bl	_camlString_map_equal_content__run_6_52_code
Ltmp105:
	str	x0, [sp, #16]                   ; 8-byte Folded Spill
Lloh70:
	adrp	x0, _camlStdlib__Printf__fn$5b$2fworkspace_root$2fprintf.ml$3a27$2c14$2d$2d48$5d_31@GOTPAGE
Lloh71:
	ldr	x0, [x0, _camlStdlib__Printf__fn$5b$2fworkspace_root$2fprintf.ml$3a27$2c14$2d$2d48$5d_31@GOTPAGEOFF]
Lloh72:
	adrp	x2, _camlString_map_equal_content__const_block66@PAGE
Lloh73:
	add	x2, x2, _camlString_map_equal_content__const_block66@PAGEOFF
	mov	w1, #1
	bl	_camlCamlinternalFormat__make_printf_120_401_code
Ltmp106:
	mov	x1, x0
	ldr	x8, [sp, #16]                   ; 8-byte Folded Reload
	and	x0, x8, #0x7fffffff
	ldr	x8, [x1]
	blr	x8
Ltmp107:
	mov	w0, #1
	ldr	x30, [sp, #40]                  ; 8-byte Folded Reload
	add	sp, sp, #48
	ret
LBB26_10:                               ; %L1849
	mov	w0, #34
	bl	_caml_llvm_call_realloc_stack
Ltmp108:
	b	LBB26_9
LBB26_11:                               ; %L1823
Lloh74:
	adrp	x8, _camlString_map_equal_content__block35@PAGE
Lloh75:
	add	x8, x8, _camlString_map_equal_content__block35@PAGEOFF
	mov	x0, x8
	mov	sp, x26
	ldp	x26, x16, [sp], #16
	br	x16
	.loh AdrpLdrGot	Lloh54, Lloh55
	.loh AdrpLdrGot	Lloh56, Lloh57
	.loh AdrpLdrGot	Lloh58, Lloh59
	.loh AdrpLdrGot	Lloh62, Lloh63
	.loh AdrpAdd	Lloh60, Lloh61
	.loh AdrpLdrGot	Lloh64, Lloh65
	.loh AdrpLdrGot	Lloh66, Lloh67
	.loh AdrpAdd	Lloh68, Lloh69
	.loh AdrpAdd	Lloh72, Lloh73
	.loh AdrpLdrGot	Lloh70, Lloh71
	.loh AdrpAdd	Lloh74, Lloh75
	.cfi_endproc
                                        ; -- End function
	.section	__DATA,__data
	.globl	_camlString_map_equal_content__gc_roots ; @"\01_camlString_map_equal_content__gc_roots"
	.p2align	3, 0x0
_camlString_map_equal_content__gc_roots:
	.quad	_camlString_map_equal_content
	.quad	0                               ; 0x0

	.globl	_header.camlString_map_equal_content ; @"\01_header.camlString_map_equal_content"
	.p2align	3, 0x0
_header.camlString_map_equal_content:
	.quad	9984                            ; 0x2700

	.globl	_camlString_map_equal_content   ; @"\01_camlString_map_equal_content"
	.p2align	3, 0x0
_camlString_map_equal_content:
	.quad	_camlString_map_equal_content__black_box_int_9
	.quad	_camlString_map_equal_content__black_box_string_10
	.quad	_camlString_map_equal_content__black_box_11
	.quad	1                               ; 0x1
	.quad	1                               ; 0x1
	.quad	_camlString_map_equal_content__print_result_12
	.quad	_camlString_map_equal_content__Pmakeblock4061
	.quad	_camlString_map_equal_content__fresh_46
	.quad	_camlString_map_equal_content__run_47

	.globl	_header.camlString_map_equal_content__run_47 ; @"\01_header.camlString_map_equal_content__run_47"
	.p2align	3, 0x0
_header.camlString_map_equal_content__run_47:
	.quad	4087                            ; 0xff7

	.globl	_camlString_map_equal_content__run_47 ; @"\01_camlString_map_equal_content__run_47"
	.p2align	3, 0x0
_camlString_map_equal_content__run_47:
	.quad	_caml_curry2
	.quad	180143985094819847              ; 0x280000000000007
	.quad	_camlString_map_equal_content__run_6_52_code

	.globl	_header.camlString_map_equal_content__fresh_46 ; @"\01_header.camlString_map_equal_content__fresh_46"
	.p2align	3, 0x0
_header.camlString_map_equal_content__fresh_46:
	.quad	3063                            ; 0xbf7

	.globl	_camlString_map_equal_content__fresh_46 ; @"\01_camlString_map_equal_content__fresh_46"
	.p2align	3, 0x0
_camlString_map_equal_content__fresh_46:
	.quad	_camlString_map_equal_content__fresh_5_51_code
	.quad	108086391056891909              ; 0x180000000000005

	.globl	_header.camlString_map_equal_content__Pmakeblock4061 ; @"\01_header.camlString_map_equal_content__Pmakeblock4061"
	.p2align	3, 0x0
_header.camlString_map_equal_content__Pmakeblock4061:
	.quad	44800                           ; 0xaf00

	.globl	_camlString_map_equal_content__Pmakeblock4061 ; @"\01_camlString_map_equal_content__Pmakeblock4061"
	.p2align	3, 0x0
_camlString_map_equal_content__Pmakeblock4061:
	.quad	1                               ; 0x1
	.quad	_camlString_map_equal_content__add_30
	.quad	_camlString_map_equal_content__add_to_list_36
	.quad	_camlString_map_equal_content__update_35
	.quad	_camlStdlib__Map__singleton_145
	.quad	_camlString_map_equal_content__remove_34
	.quad	_camlString_map_equal_content__merge_38
	.quad	_camlString_map_equal_content__union_39
	.quad	_camlStdlib__Map__cardinal_177
	.quad	_camlStdlib__Map__bindings_179
	.quad	_camlStdlib__Map__min_binding_156
	.quad	_camlStdlib__Map__min_binding_opt_157
	.quad	_camlStdlib__Map__max_binding_158
	.quad	_camlStdlib__Map__max_binding_opt_159
	.quad	_camlStdlib__Map__min_binding_156
	.quad	_camlStdlib__Map__min_binding_opt_157
	.quad	_camlString_map_equal_content__find_31
	.quad	_camlString_map_equal_content__find_opt_32
	.quad	_camlStdlib__Map__find_first_149
	.quad	_camlStdlib__Map__find_first_opt_151
	.quad	_camlStdlib__Map__find_last_153
	.quad	_camlStdlib__Map__find_last_opt_155
	.quad	_camlStdlib__Map__iter_162
	.quad	_camlStdlib__Map__fold_165
	.quad	_camlStdlib__Map__map_163
	.quad	_camlStdlib__Map__mapi_164
	.quad	_camlStdlib__Map__filter_173
	.quad	_camlStdlib__Map__filter_map_174
	.quad	_camlStdlib__Map__partition_175
	.quad	_camlString_map_equal_content__split_37
	.quad	_camlStdlib__Map__is_empty_147
	.quad	_camlString_map_equal_content__mem_33
	.quad	_camlString_map_equal_content__equal_41
	.quad	_camlString_map_equal_content__compare_40
	.quad	_camlStdlib__Map__for_all_166
	.quad	_camlStdlib__Map__exists_167
	.quad	_camlStdlib__Map__bindings_179
	.quad	_camlString_map_equal_content__of_list_42
	.quad	_camlStdlib__Map__to_seq_181
	.quad	_camlStdlib__Map__to_rev_seq_184
	.quad	_camlString_map_equal_content__to_seq_from_45
	.quad	_camlString_map_equal_content__add_seq_43
	.quad	_camlString_map_equal_content__of_seq_44

	.globl	_header.camlString_map_equal_content__to_seq_from_45 ; @"\01_header.camlString_map_equal_content__to_seq_from_45"
	.p2align	3, 0x0
_header.camlString_map_equal_content__to_seq_from_45:
	.quad	5111                            ; 0x13f7

	.globl	_camlString_map_equal_content__to_seq_from_45 ; @"\01_camlString_map_equal_content__to_seq_from_45"
	.p2align	3, 0x0
_camlString_map_equal_content__to_seq_from_45:
	.quad	_caml_curry2
	.quad	180143985094819847              ; 0x280000000000007
	.quad	_camlString_map_equal_content__to_seq_from_67_50_code
	.quad	_camlString_map_equal_content__Pmakeblock283

	.globl	_header.camlString_map_equal_content__of_seq_44 ; @"\01_header.camlString_map_equal_content__of_seq_44"
	.p2align	3, 0x0
_header.camlString_map_equal_content__of_seq_44:
	.quad	4087                            ; 0xff7

	.globl	_camlString_map_equal_content__of_seq_44 ; @"\01_camlString_map_equal_content__of_seq_44"
	.p2align	3, 0x0
_camlString_map_equal_content__of_seq_44:
	.quad	_camlString_map_equal_content__of_seq_57_49_code
	.quad	108086391056891909              ; 0x180000000000005
	.quad	_camlString_map_equal_content__add_seq_43

	.globl	_header.camlString_map_equal_content__add_seq_43 ; @"\01_header.camlString_map_equal_content__add_seq_43"
	.p2align	3, 0x0
_header.camlString_map_equal_content__add_seq_43:
	.quad	5111                            ; 0x13f7

	.globl	_camlString_map_equal_content__add_seq_43 ; @"\01_camlString_map_equal_content__add_seq_43"
	.p2align	3, 0x0
_camlString_map_equal_content__add_seq_43:
	.quad	_caml_curry2
	.quad	180143985094819847              ; 0x280000000000007
	.quad	_camlString_map_equal_content__add_seq_55_48_code
	.quad	_camlString_map_equal_content__add_30

	.globl	_header.camlString_map_equal_content__of_list_42 ; @"\01_header.camlString_map_equal_content__of_list_42"
	.p2align	3, 0x0
_header.camlString_map_equal_content__of_list_42:
	.quad	4087                            ; 0xff7

	.globl	_camlString_map_equal_content__of_list_42 ; @"\01_camlString_map_equal_content__of_list_42"
	.p2align	3, 0x0
_camlString_map_equal_content__of_list_42:
	.quad	_camlString_map_equal_content__of_list_53_47_code
	.quad	108086391056891909              ; 0x180000000000005
	.quad	_camlString_map_equal_content__add_30

	.globl	_header.camlString_map_equal_content__equal_41 ; @"\01_header.camlString_map_equal_content__equal_41"
	.p2align	3, 0x0
_header.camlString_map_equal_content__equal_41:
	.quad	5111                            ; 0x13f7

	.globl	_camlString_map_equal_content__equal_41 ; @"\01_camlString_map_equal_content__equal_41"
	.p2align	3, 0x0
_camlString_map_equal_content__equal_41:
	.quad	_caml_curry3
	.quad	252201579132747783              ; 0x380000000000007
	.quad	_camlString_map_equal_content__equal_48_45_code
	.quad	_camlString_map_equal_content__Pmakeblock283

	.globl	_header.camlString_map_equal_content__compare_40 ; @"\01_header.camlString_map_equal_content__compare_40"
	.p2align	3, 0x0
_header.camlString_map_equal_content__compare_40:
	.quad	5111                            ; 0x13f7

	.globl	_camlString_map_equal_content__compare_40 ; @"\01_camlString_map_equal_content__compare_40"
	.p2align	3, 0x0
_camlString_map_equal_content__compare_40:
	.quad	_caml_curry3
	.quad	252201579132747783              ; 0x380000000000007
	.quad	_camlString_map_equal_content__compare_46_43_code
	.quad	_camlString_map_equal_content__Pmakeblock283

	.globl	_header.camlString_map_equal_content__union_39 ; @"\01_header.camlString_map_equal_content__union_39"
	.p2align	3, 0x0
_header.camlString_map_equal_content__union_39:
	.quad	5111                            ; 0x13f7

	.globl	_camlString_map_equal_content__union_39 ; @"\01_camlString_map_equal_content__union_39"
	.p2align	3, 0x0
_camlString_map_equal_content__union_39:
	.quad	_caml_curry3
	.quad	252201579132747783              ; 0x380000000000007
	.quad	_camlString_map_equal_content__union_41_42_code
	.quad	_camlString_map_equal_content__split_37

	.globl	_header.camlString_map_equal_content__merge_38 ; @"\01_header.camlString_map_equal_content__merge_38"
	.p2align	3, 0x0
_header.camlString_map_equal_content__merge_38:
	.quad	5111                            ; 0x13f7

	.globl	_camlString_map_equal_content__merge_38 ; @"\01_camlString_map_equal_content__merge_38"
	.p2align	3, 0x0
_camlString_map_equal_content__merge_38:
	.quad	_caml_curry3
	.quad	252201579132747783              ; 0x380000000000007
	.quad	_camlString_map_equal_content__merge_40_41_code
	.quad	_camlString_map_equal_content__split_37

	.globl	_header.camlString_map_equal_content__split_37 ; @"\01_header.camlString_map_equal_content__split_37"
	.p2align	3, 0x0
_header.camlString_map_equal_content__split_37:
	.quad	5111                            ; 0x13f7

	.globl	_camlString_map_equal_content__split_37 ; @"\01_camlString_map_equal_content__split_37"
	.p2align	3, 0x0
_camlString_map_equal_content__split_37:
	.quad	_caml_curry2
	.quad	180143985094819847              ; 0x280000000000007
	.quad	_camlString_map_equal_content__split_39_40_code
	.quad	_camlString_map_equal_content__Pmakeblock283

	.globl	_header.camlString_map_equal_content__add_to_list_36 ; @"\01_header.camlString_map_equal_content__add_to_list_36"
	.p2align	3, 0x0
_header.camlString_map_equal_content__add_to_list_36:
	.quad	5111                            ; 0x13f7

	.globl	_camlString_map_equal_content__add_to_list_36 ; @"\01_camlString_map_equal_content__add_to_list_36"
	.p2align	3, 0x0
_camlString_map_equal_content__add_to_list_36:
	.quad	_caml_curry3
	.quad	252201579132747783              ; 0x380000000000007
	.quad	_camlString_map_equal_content__add_to_list_26_38_code
	.quad	_camlString_map_equal_content__update_35

	.globl	_header.camlString_map_equal_content__update_35 ; @"\01_header.camlString_map_equal_content__update_35"
	.p2align	3, 0x0
_header.camlString_map_equal_content__update_35:
	.quad	5111                            ; 0x13f7

	.globl	_camlString_map_equal_content__update_35 ; @"\01_camlString_map_equal_content__update_35"
	.p2align	3, 0x0
_camlString_map_equal_content__update_35:
	.quad	_caml_curry3
	.quad	252201579132747783              ; 0x380000000000007
	.quad	_camlString_map_equal_content__update_25_37_code
	.quad	_camlString_map_equal_content__Pmakeblock283

	.globl	_header.camlString_map_equal_content__remove_34 ; @"\01_header.camlString_map_equal_content__remove_34"
	.p2align	3, 0x0
_header.camlString_map_equal_content__remove_34:
	.quad	5111                            ; 0x13f7

	.globl	_camlString_map_equal_content__remove_34 ; @"\01_camlString_map_equal_content__remove_34"
	.p2align	3, 0x0
_camlString_map_equal_content__remove_34:
	.quad	_caml_curry2
	.quad	180143985094819847              ; 0x280000000000007
	.quad	_camlString_map_equal_content__remove_24_36_code
	.quad	_camlString_map_equal_content__Pmakeblock283

	.globl	_header.camlString_map_equal_content__mem_33 ; @"\01_header.camlString_map_equal_content__mem_33"
	.p2align	3, 0x0
_header.camlString_map_equal_content__mem_33:
	.quad	5111                            ; 0x13f7

	.globl	_camlString_map_equal_content__mem_33 ; @"\01_camlString_map_equal_content__mem_33"
	.p2align	3, 0x0
_camlString_map_equal_content__mem_33:
	.quad	_caml_curry2
	.quad	180143985094819847              ; 0x280000000000007
	.quad	_camlString_map_equal_content__mem_17_35_code
	.quad	_camlString_map_equal_content__Pmakeblock283

	.globl	_header.camlString_map_equal_content__find_opt_32 ; @"\01_header.camlString_map_equal_content__find_opt_32"
	.p2align	3, 0x0
_header.camlString_map_equal_content__find_opt_32:
	.quad	5111                            ; 0x13f7

	.globl	_camlString_map_equal_content__find_opt_32 ; @"\01_camlString_map_equal_content__find_opt_32"
	.p2align	3, 0x0
_camlString_map_equal_content__find_opt_32:
	.quad	_caml_curry2
	.quad	180143985094819847              ; 0x280000000000007
	.quad	_camlString_map_equal_content__find_opt_16_34_code
	.quad	_camlString_map_equal_content__Pmakeblock283

	.globl	_header.camlString_map_equal_content__find_31 ; @"\01_header.camlString_map_equal_content__find_31"
	.p2align	3, 0x0
_header.camlString_map_equal_content__find_31:
	.quad	5111                            ; 0x13f7

	.globl	_camlString_map_equal_content__find_31 ; @"\01_camlString_map_equal_content__find_31"
	.p2align	3, 0x0
_camlString_map_equal_content__find_31:
	.quad	_caml_curry2
	.quad	180143985094819847              ; 0x280000000000007
	.quad	_camlString_map_equal_content__find_7_33_code
	.quad	_camlString_map_equal_content__Pmakeblock283

	.globl	_header.camlString_map_equal_content__add_30 ; @"\01_header.camlString_map_equal_content__add_30"
	.p2align	3, 0x0
_header.camlString_map_equal_content__add_30:
	.quad	5111                            ; 0x13f7

	.globl	_camlString_map_equal_content__add_30 ; @"\01_camlString_map_equal_content__add_30"
	.p2align	3, 0x0
_camlString_map_equal_content__add_30:
	.quad	_caml_curry3
	.quad	252201579132747783              ; 0x380000000000007
	.quad	_camlString_map_equal_content__add_6_32_code
	.quad	_camlString_map_equal_content__Pmakeblock283

	.globl	_header.camlString_map_equal_content__Pmakeblock283 ; @"\01_header.camlString_map_equal_content__Pmakeblock283"
	.p2align	3, 0x0
_header.camlString_map_equal_content__Pmakeblock283:
	.quad	1792                            ; 0x700

	.globl	_camlString_map_equal_content__Pmakeblock283 ; @"\01_camlString_map_equal_content__Pmakeblock283"
	.p2align	3, 0x0
_camlString_map_equal_content__Pmakeblock283:
	.quad	_camlString_map_equal_content__fn$5bstring_map_equal_content.ml$3a14$2c21$2d$2d27$5d_13

	.globl	_header.camlString_map_equal_content__fn$5bstring_map_equal_content.ml$3a14$2c21$2d$2d27$5d_13 ; @"\01_header.camlString_map_equal_content__fn$5bstring_map_equal_content.ml$3a14$2c21$2d$2d27$5d_13"
	.p2align	3, 0x0
_header.camlString_map_equal_content__fn$5bstring_map_equal_content.ml$3a14$2c21$2d$2d27$5d_13:
	.quad	4087                            ; 0xff7

	.globl	_camlString_map_equal_content__fn$5bstring_map_equal_content.ml$3a14$2c21$2d$2d27$5d_13 ; @"\01_camlString_map_equal_content__fn$5bstring_map_equal_content.ml$3a14$2c21$2d$2d27$5d_13"
	.p2align	3, 0x0
_camlString_map_equal_content__fn$5bstring_map_equal_content.ml$3a14$2c21$2d$2d27$5d_13:
	.quad	_caml_curry2
	.quad	180143985094819847              ; 0x280000000000007
	.quad	_camlString_map_equal_content__fn$5bstring_map_equal_content.ml$3a14$2c21$2d$2d27$5d_4_4_code

	.globl	_header.camlString_map_equal_content__print_result_12 ; @"\01_header.camlString_map_equal_content__print_result_12"
	.p2align	3, 0x0
_header.camlString_map_equal_content__print_result_12:
	.quad	3063                            ; 0xbf7

	.globl	_camlString_map_equal_content__print_result_12 ; @"\01_camlString_map_equal_content__print_result_12"
	.p2align	3, 0x0
_camlString_map_equal_content__print_result_12:
	.quad	_camlString_map_equal_content__print_result_3_12_code
	.quad	108086391056891909              ; 0x180000000000005

	.globl	_header.camlString_map_equal_content__black_box_11 ; @"\01_header.camlString_map_equal_content__black_box_11"
	.p2align	3, 0x0
_header.camlString_map_equal_content__black_box_11:
	.quad	3063                            ; 0xbf7

	.globl	_camlString_map_equal_content__black_box_11 ; @"\01_camlString_map_equal_content__black_box_11"
	.p2align	3, 0x0
_camlString_map_equal_content__black_box_11:
	.quad	_camlString_map_equal_content__black_box_2_11_code
	.quad	108086391056891909              ; 0x180000000000005

	.globl	_header.camlString_map_equal_content__black_box_string_10 ; @"\01_header.camlString_map_equal_content__black_box_string_10"
	.p2align	3, 0x0
_header.camlString_map_equal_content__black_box_string_10:
	.quad	3063                            ; 0xbf7

	.globl	_camlString_map_equal_content__black_box_string_10 ; @"\01_camlString_map_equal_content__black_box_string_10"
	.p2align	3, 0x0
_camlString_map_equal_content__black_box_string_10:
	.quad	_camlString_map_equal_content__black_box_string_1_10_code
	.quad	108086391056891909              ; 0x180000000000005

	.globl	_header.camlString_map_equal_content__black_box_int_9 ; @"\01_header.camlString_map_equal_content__black_box_int_9"
	.p2align	3, 0x0
_header.camlString_map_equal_content__black_box_int_9:
	.quad	3063                            ; 0xbf7

	.globl	_camlString_map_equal_content__black_box_int_9 ; @"\01_camlString_map_equal_content__black_box_int_9"
	.p2align	3, 0x0
_camlString_map_equal_content__black_box_int_9:
	.quad	_camlString_map_equal_content__black_box_int_0_9_code
	.quad	108086391056891909              ; 0x180000000000005

	.globl	_header.camlString_map_equal_content__block35 ; @"\01_header.camlString_map_equal_content__block35"
	.p2align	3, 0x0
_header.camlString_map_equal_content__block35:
	.quad	2816                            ; 0xb00

	.globl	_camlString_map_equal_content__block35 ; @"\01_camlString_map_equal_content__block35"
	.p2align	3, 0x0
_camlString_map_equal_content__block35:
	.quad	_caml_exn_Invalid_argument
	.quad	_camlString_map_equal_content__string33

	.globl	_header.camlString_map_equal_content__string33 ; @"\01_header.camlString_map_equal_content__string33"
	.p2align	3, 0x0
_header.camlString_map_equal_content__string33:
	.quad	4092                            ; 0xffc

	.globl	_camlString_map_equal_content__string33 ; @"\01_camlString_map_equal_content__string33"
	.p2align	3, 0x0
_camlString_map_equal_content__string33:
	.ascii	"index out of bounds"
	.space	4
	.byte	4                               ; 0x4

	.globl	_header.camlString_map_equal_content__immstring119 ; @"\01_header.camlString_map_equal_content__immstring119"
	.p2align	3, 0x0
_header.camlString_map_equal_content__immstring119:
	.quad	4092                            ; 0xffc

	.globl	_camlString_map_equal_content__immstring119 ; @"\01_camlString_map_equal_content__immstring119"
	.p2align	3, 0x0
_camlString_map_equal_content__immstring119:
	.ascii	"compiler_equal_key_"
	.space	4
	.byte	4                               ; 0x4

	.globl	_header.camlString_map_equal_content__const_block66 ; @"\01_header.camlString_map_equal_content__const_block66"
	.p2align	3, 0x0
_header.camlString_map_equal_content__const_block66:
	.quad	4868                            ; 0x1304

	.globl	_camlString_map_equal_content__const_block66 ; @"\01_camlString_map_equal_content__const_block66"
	.p2align	3, 0x0
_camlString_map_equal_content__const_block66:
	.quad	1                               ; 0x1
	.quad	1                               ; 0x1
	.quad	1                               ; 0x1
	.quad	_camlString_map_equal_content__const_block64

	.globl	_header.camlString_map_equal_content__const_block64 ; @"\01_header.camlString_map_equal_content__const_block64"
	.p2align	3, 0x0
_header.camlString_map_equal_content__const_block64:
	.quad	2828                            ; 0xb0c

	.globl	_camlString_map_equal_content__const_block64 ; @"\01_camlString_map_equal_content__const_block64"
	.p2align	3, 0x0
_camlString_map_equal_content__const_block64:
	.quad	21                              ; 0x15
	.quad	_camlString_map_equal_content__const_block62

	.globl	_header.camlString_map_equal_content__const_block62 ; @"\01_header.camlString_map_equal_content__const_block62"
	.p2align	3, 0x0
_header.camlString_map_equal_content__const_block62:
	.quad	1802                            ; 0x70a

	.globl	_camlString_map_equal_content__const_block62 ; @"\01_camlString_map_equal_content__const_block62"
	.p2align	3, 0x0
_camlString_map_equal_content__const_block62:
	.quad	1                               ; 0x1

	.quad	0
	.globl	_camlString_map_equal_content__data_end
_camlString_map_equal_content__data_end:
	.quad	0
	.p2align	3, 0x0
	.globl	_camlString_map_equal_content__frametable
_camlString_map_equal_content__frametable:
	.quad	109
Ltmp109:
	.long	Ltmp0-Ltmp109
	.short	65
	.short	5
	.short	40
	.short	32
	.short	24
	.short	16
	.short	8
	.p2align	2, 0x0
Ltmp111:
	.long	Ltmp110-Ltmp111
	.p2align	3, 0x0
Ltmp112:
	.long	Ltmp1-Ltmp112
	.short	67
	.short	2
	.short	35
	.short	33
	.byte	1
	.byte	4
	.p2align	2, 0x0
Ltmp114:
	.long	Ltmp113-Ltmp114
	.p2align	3, 0x0
Ltmp115:
	.long	Ltmp2-Ltmp115
	.short	64
	.short	8
	.short	19
	.short	33
	.short	35
	.short	39
	.short	45
	.short	43
	.short	37
	.short	41
	.p2align	3, 0x0
Ltmp116:
	.long	Ltmp3-Ltmp116
	.short	65
	.short	5
	.short	40
	.short	32
	.short	24
	.short	16
	.short	8
	.p2align	2, 0x0
Ltmp118:
	.long	Ltmp117-Ltmp118
	.p2align	3, 0x0
Ltmp119:
	.long	Ltmp4-Ltmp119
	.short	67
	.short	5
	.short	41
	.short	35
	.short	33
	.short	39
	.short	37
	.byte	1
	.byte	4
	.p2align	2, 0x0
Ltmp121:
	.long	Ltmp120-Ltmp121
	.p2align	3, 0x0
Ltmp122:
	.long	Ltmp5-Ltmp122
	.short	19
	.short	1
	.short	33
	.byte	1
	.byte	0
	.p2align	2, 0x0
Ltmp124:
	.long	Ltmp123-Ltmp124
	.p2align	3, 0x0
Ltmp125:
	.long	Ltmp6-Ltmp125
	.short	64
	.short	7
	.short	19
	.short	37
	.short	43
	.short	41
	.short	39
	.short	35
	.short	33
	.p2align	3, 0x0
Ltmp126:
	.long	Ltmp7-Ltmp126
	.short	65
	.short	3
	.short	40
	.short	32
	.short	24
	.p2align	2, 0x0
Ltmp128:
	.long	Ltmp127-Ltmp128
	.p2align	3, 0x0
Ltmp129:
	.long	Ltmp8-Ltmp129
	.short	65
	.short	5
	.short	40
	.short	32
	.short	24
	.short	16
	.short	8
	.p2align	2, 0x0
Ltmp131:
	.long	Ltmp130-Ltmp131
	.p2align	3, 0x0
Ltmp132:
	.long	Ltmp9-Ltmp132
	.short	65
	.short	5
	.short	40
	.short	32
	.short	24
	.short	16
	.short	8
	.p2align	2, 0x0
Ltmp134:
	.long	Ltmp133-Ltmp134
	.p2align	3, 0x0
Ltmp135:
	.long	Ltmp10-Ltmp135
	.short	65
	.short	5
	.short	40
	.short	32
	.short	24
	.short	16
	.short	8
	.p2align	2, 0x0
Ltmp137:
	.long	Ltmp136-Ltmp137
	.p2align	3, 0x0
Ltmp138:
	.long	Ltmp11-Ltmp138
	.short	65
	.short	5
	.short	40
	.short	32
	.short	24
	.short	16
	.short	8
	.p2align	2, 0x0
Ltmp140:
	.long	Ltmp139-Ltmp140
	.p2align	3, 0x0
Ltmp141:
	.long	Ltmp12-Ltmp141
	.short	65
	.short	3
	.short	40
	.short	24
	.short	32
	.p2align	2, 0x0
Ltmp143:
	.long	Ltmp142-Ltmp143
	.p2align	3, 0x0
Ltmp144:
	.long	Ltmp13-Ltmp144
	.short	65
	.short	5
	.short	40
	.short	32
	.short	24
	.short	16
	.short	8
	.p2align	2, 0x0
Ltmp146:
	.long	Ltmp145-Ltmp146
	.p2align	3, 0x0
Ltmp147:
	.long	Ltmp14-Ltmp147
	.short	64
	.short	3
	.short	33
	.short	35
	.short	37
	.p2align	3, 0x0
Ltmp148:
	.long	Ltmp15-Ltmp148
	.short	65
	.short	1
	.short	40
	.p2align	2, 0x0
Ltmp150:
	.long	Ltmp149-Ltmp150
	.p2align	3, 0x0
Ltmp151:
	.long	Ltmp16-Ltmp151
	.short	67
	.short	6
	.short	33
	.short	45
	.short	41
	.short	35
	.short	39
	.short	37
	.byte	1
	.byte	0
	.p2align	2, 0x0
Ltmp153:
	.long	Ltmp152-Ltmp153
	.p2align	3, 0x0
Ltmp154:
	.long	Ltmp17-Ltmp154
	.short	67
	.short	2
	.short	19
	.short	1
	.byte	1
	.byte	4
	.p2align	2, 0x0
Ltmp156:
	.long	Ltmp155-Ltmp156
	.p2align	3, 0x0
Ltmp157:
	.long	Ltmp18-Ltmp157
	.short	67
	.short	5
	.short	25
	.short	23
	.short	21
	.short	1
	.short	19
	.byte	1
	.byte	4
	.p2align	2, 0x0
Ltmp159:
	.long	Ltmp158-Ltmp159
	.p2align	3, 0x0
Ltmp160:
	.long	Ltmp19-Ltmp160
	.short	19
	.short	3
	.short	3
	.short	5
	.short	1
	.byte	1
	.byte	2
	.p2align	2, 0x0
Ltmp162:
	.long	Ltmp161-Ltmp162
	.p2align	3, 0x0
Ltmp163:
	.long	Ltmp20-Ltmp163
	.short	19
	.short	2
	.short	3
	.short	1
	.byte	2
	.byte	0
	.byte	1
	.p2align	2, 0x0
Ltmp166:
	.long	Ltmp164-Ltmp166
	.p2align	2, 0x0
Ltmp167:
	.long	Ltmp165-Ltmp167
	.p2align	3, 0x0
Ltmp168:
	.long	Ltmp21-Ltmp168
	.short	19
	.short	1
	.short	3
	.byte	2
	.byte	0
	.byte	1
	.p2align	2, 0x0
Ltmp171:
	.long	Ltmp169-Ltmp171
	.p2align	2, 0x0
Ltmp172:
	.long	Ltmp170-Ltmp172
	.p2align	3, 0x0
Ltmp173:
	.long	Ltmp22-Ltmp173
	.short	49
	.short	3
	.short	24
	.short	16
	.short	8
	.p2align	2, 0x0
Ltmp175:
	.long	Ltmp174-Ltmp175
	.p2align	3, 0x0
Ltmp176:
	.long	Ltmp23-Ltmp176
	.short	49
	.short	1
	.short	24
	.p2align	2, 0x0
Ltmp178:
	.long	Ltmp177-Ltmp178
	.p2align	3, 0x0
Ltmp179:
	.long	Ltmp24-Ltmp179
	.short	51
	.short	3
	.short	33
	.short	41
	.short	35
	.byte	2
	.byte	2
	.byte	0
	.p2align	2, 0x0
Ltmp182:
	.long	Ltmp180-Ltmp182
	.p2align	2, 0x0
Ltmp183:
	.long	Ltmp181-Ltmp183
	.p2align	3, 0x0
Ltmp184:
	.long	Ltmp25-Ltmp184
	.short	48
	.short	6
	.short	19
	.short	35
	.short	37
	.short	33
	.short	41
	.short	39
	.p2align	3, 0x0
Ltmp185:
	.long	Ltmp26-Ltmp185
	.short	49
	.short	3
	.short	24
	.short	16
	.short	8
	.p2align	2, 0x0
Ltmp187:
	.long	Ltmp186-Ltmp187
	.p2align	3, 0x0
Ltmp188:
	.long	Ltmp27-Ltmp188
	.short	49
	.short	1
	.short	24
	.p2align	2, 0x0
Ltmp190:
	.long	Ltmp189-Ltmp190
	.p2align	3, 0x0
Ltmp191:
	.long	Ltmp28-Ltmp191
	.short	51
	.short	2
	.short	33
	.short	19
	.byte	1
	.byte	2
	.p2align	2, 0x0
Ltmp193:
	.long	Ltmp192-Ltmp193
	.p2align	3, 0x0
Ltmp194:
	.long	Ltmp29-Ltmp194
	.short	51
	.short	2
	.short	19
	.short	21
	.byte	1
	.byte	2
	.p2align	2, 0x0
Ltmp196:
	.long	Ltmp195-Ltmp196
	.p2align	3, 0x0
Ltmp197:
	.long	Ltmp30-Ltmp197
	.short	65
	.short	3
	.short	40
	.short	32
	.short	24
	.p2align	2, 0x0
Ltmp199:
	.long	Ltmp198-Ltmp199
	.p2align	3, 0x0
Ltmp200:
	.long	Ltmp31-Ltmp200
	.short	65
	.short	4
	.short	16
	.short	40
	.short	32
	.short	24
	.p2align	2, 0x0
Ltmp202:
	.long	Ltmp201-Ltmp202
	.p2align	3, 0x0
Ltmp203:
	.long	Ltmp32-Ltmp203
	.short	65
	.short	5
	.short	40
	.short	32
	.short	24
	.short	16
	.short	8
	.p2align	2, 0x0
Ltmp205:
	.long	Ltmp204-Ltmp205
	.p2align	3, 0x0
Ltmp206:
	.long	Ltmp33-Ltmp206
	.short	65
	.short	3
	.short	40
	.short	16
	.short	8
	.p2align	2, 0x0
Ltmp208:
	.long	Ltmp207-Ltmp208
	.p2align	3, 0x0
Ltmp209:
	.long	Ltmp34-Ltmp209
	.short	65
	.short	3
	.short	40
	.short	32
	.short	24
	.p2align	2, 0x0
Ltmp211:
	.long	Ltmp210-Ltmp211
	.p2align	3, 0x0
Ltmp212:
	.long	Ltmp35-Ltmp212
	.short	64
	.short	3
	.short	3
	.short	5
	.short	19
	.p2align	3, 0x0
Ltmp213:
	.long	Ltmp36-Ltmp213
	.short	65
	.short	3
	.short	40
	.short	32
	.short	24
	.p2align	2, 0x0
Ltmp215:
	.long	Ltmp214-Ltmp215
	.p2align	3, 0x0
Ltmp216:
	.long	Ltmp37-Ltmp216
	.short	65
	.short	4
	.short	40
	.short	16
	.short	32
	.short	24
	.p2align	2, 0x0
Ltmp218:
	.long	Ltmp217-Ltmp218
	.p2align	3, 0x0
Ltmp219:
	.long	Ltmp38-Ltmp219
	.short	65
	.short	5
	.short	40
	.short	32
	.short	24
	.short	16
	.short	8
	.p2align	2, 0x0
Ltmp221:
	.long	Ltmp220-Ltmp221
	.p2align	3, 0x0
Ltmp222:
	.long	Ltmp39-Ltmp222
	.short	65
	.short	3
	.short	40
	.short	16
	.short	8
	.p2align	2, 0x0
Ltmp224:
	.long	Ltmp223-Ltmp224
	.p2align	3, 0x0
Ltmp225:
	.long	Ltmp40-Ltmp225
	.short	65
	.short	3
	.short	40
	.short	32
	.short	24
	.p2align	2, 0x0
Ltmp227:
	.long	Ltmp226-Ltmp227
	.p2align	3, 0x0
Ltmp228:
	.long	Ltmp41-Ltmp228
	.short	67
	.short	5
	.short	23
	.short	21
	.short	7
	.short	19
	.short	1
	.byte	1
	.byte	0
	.p2align	2, 0x0
Ltmp230:
	.long	Ltmp229-Ltmp230
	.p2align	3, 0x0
Ltmp231:
	.long	Ltmp42-Ltmp231
	.short	67
	.short	5
	.short	23
	.short	21
	.short	7
	.short	19
	.short	1
	.byte	1
	.byte	0
	.p2align	2, 0x0
Ltmp233:
	.long	Ltmp232-Ltmp233
	.p2align	3, 0x0
Ltmp234:
	.long	Ltmp43-Ltmp234
	.short	65
	.short	4
	.short	40
	.short	32
	.short	24
	.short	16
	.p2align	2, 0x0
Ltmp236:
	.long	Ltmp235-Ltmp236
	.p2align	3, 0x0
Ltmp237:
	.long	Ltmp44-Ltmp237
	.short	65
	.short	6
	.short	40
	.short	8
	.short	0
	.short	32
	.short	24
	.short	16
	.p2align	2, 0x0
Ltmp239:
	.long	Ltmp238-Ltmp239
	.p2align	3, 0x0
Ltmp240:
	.long	Ltmp45-Ltmp240
	.short	65
	.short	5
	.short	0
	.short	32
	.short	24
	.short	16
	.short	40
	.p2align	2, 0x0
Ltmp242:
	.long	Ltmp241-Ltmp242
	.p2align	3, 0x0
Ltmp243:
	.long	Ltmp46-Ltmp243
	.short	65
	.short	3
	.short	32
	.short	16
	.short	40
	.p2align	2, 0x0
Ltmp245:
	.long	Ltmp244-Ltmp245
	.p2align	3, 0x0
Ltmp246:
	.long	Ltmp47-Ltmp246
	.short	65
	.short	3
	.short	32
	.short	24
	.short	40
	.p2align	2, 0x0
Ltmp248:
	.long	Ltmp247-Ltmp248
	.p2align	3, 0x0
Ltmp249:
	.long	Ltmp48-Ltmp249
	.short	64
	.short	3
	.short	3
	.short	5
	.short	19
	.p2align	3, 0x0
Ltmp250:
	.long	Ltmp49-Ltmp250
	.short	65
	.short	4
	.short	40
	.short	32
	.short	24
	.short	16
	.p2align	2, 0x0
Ltmp252:
	.long	Ltmp251-Ltmp252
	.p2align	3, 0x0
Ltmp253:
	.long	Ltmp50-Ltmp253
	.short	65
	.short	6
	.short	8
	.short	40
	.short	0
	.short	32
	.short	24
	.short	16
	.p2align	2, 0x0
Ltmp255:
	.long	Ltmp254-Ltmp255
	.p2align	3, 0x0
Ltmp256:
	.long	Ltmp51-Ltmp256
	.short	65
	.short	5
	.short	0
	.short	32
	.short	24
	.short	16
	.short	40
	.p2align	2, 0x0
Ltmp258:
	.long	Ltmp257-Ltmp258
	.p2align	3, 0x0
Ltmp259:
	.long	Ltmp52-Ltmp259
	.short	65
	.short	3
	.short	32
	.short	16
	.short	40
	.p2align	2, 0x0
Ltmp261:
	.long	Ltmp260-Ltmp261
	.p2align	3, 0x0
Ltmp262:
	.long	Ltmp53-Ltmp262
	.short	65
	.short	3
	.short	32
	.short	24
	.short	40
	.p2align	2, 0x0
Ltmp264:
	.long	Ltmp263-Ltmp264
	.p2align	3, 0x0
Ltmp265:
	.long	Ltmp54-Ltmp265
	.short	19
	.short	4
	.short	5
	.short	3
	.short	25
	.short	21
	.byte	1
	.byte	3
	.p2align	2, 0x0
Ltmp267:
	.long	Ltmp266-Ltmp267
	.p2align	3, 0x0
Ltmp268:
	.long	Ltmp55-Ltmp268
	.short	19
	.short	4
	.short	5
	.short	19
	.short	23
	.short	3
	.byte	1
	.byte	3
	.p2align	2, 0x0
Ltmp270:
	.long	Ltmp269-Ltmp270
	.p2align	3, 0x0
Ltmp271:
	.long	Ltmp56-Ltmp271
	.short	19
	.short	3
	.short	1
	.short	3
	.short	21
	.byte	1
	.byte	4
	.p2align	2, 0x0
Ltmp273:
	.long	Ltmp272-Ltmp273
	.p2align	3, 0x0
Ltmp274:
	.long	Ltmp57-Ltmp274
	.short	48
	.short	3
	.short	33
	.short	37
	.short	35
	.p2align	3, 0x0
Ltmp275:
	.long	Ltmp58-Ltmp275
	.short	49
	.short	3
	.short	24
	.short	16
	.short	8
	.p2align	2, 0x0
Ltmp277:
	.long	Ltmp276-Ltmp277
	.p2align	3, 0x0
Ltmp278:
	.long	Ltmp59-Ltmp278
	.short	51
	.short	4
	.short	33
	.short	19
	.short	35
	.short	21
	.byte	1
	.byte	3
	.p2align	2, 0x0
Ltmp280:
	.long	Ltmp279-Ltmp280
	.p2align	3, 0x0
Ltmp281:
	.long	Ltmp60-Ltmp281
	.short	51
	.short	4
	.short	33
	.short	35
	.short	37
	.short	19
	.byte	1
	.byte	3
	.p2align	2, 0x0
Ltmp283:
	.long	Ltmp282-Ltmp283
	.p2align	3, 0x0
Ltmp284:
	.long	Ltmp61-Ltmp284
	.short	19
	.short	4
	.short	5
	.short	3
	.short	25
	.short	21
	.byte	1
	.byte	3
	.p2align	2, 0x0
Ltmp286:
	.long	Ltmp285-Ltmp286
	.p2align	3, 0x0
Ltmp287:
	.long	Ltmp62-Ltmp287
	.short	19
	.short	4
	.short	5
	.short	19
	.short	23
	.short	3
	.byte	1
	.byte	3
	.p2align	2, 0x0
Ltmp289:
	.long	Ltmp288-Ltmp289
	.p2align	3, 0x0
Ltmp290:
	.long	Ltmp63-Ltmp290
	.short	19
	.short	3
	.short	1
	.short	3
	.short	21
	.byte	1
	.byte	4
	.p2align	2, 0x0
Ltmp292:
	.long	Ltmp291-Ltmp292
	.p2align	3, 0x0
Ltmp293:
	.long	Ltmp64-Ltmp293
	.short	48
	.short	3
	.short	33
	.short	37
	.short	35
	.p2align	3, 0x0
Ltmp294:
	.long	Ltmp65-Ltmp294
	.short	49
	.short	3
	.short	24
	.short	16
	.short	8
	.p2align	2, 0x0
Ltmp296:
	.long	Ltmp295-Ltmp296
	.p2align	3, 0x0
Ltmp297:
	.long	Ltmp66-Ltmp297
	.short	51
	.short	4
	.short	33
	.short	19
	.short	35
	.short	21
	.byte	1
	.byte	3
	.p2align	2, 0x0
Ltmp299:
	.long	Ltmp298-Ltmp299
	.p2align	3, 0x0
Ltmp300:
	.long	Ltmp67-Ltmp300
	.short	51
	.short	4
	.short	33
	.short	35
	.short	37
	.short	19
	.byte	1
	.byte	3
	.p2align	2, 0x0
Ltmp302:
	.long	Ltmp301-Ltmp302
	.p2align	3, 0x0
Ltmp303:
	.long	Ltmp68-Ltmp303
	.short	33
	.short	1
	.short	8
	.p2align	2, 0x0
Ltmp305:
	.long	Ltmp304-Ltmp305
	.p2align	3, 0x0
Ltmp306:
	.long	Ltmp69-Ltmp306
	.short	32
	.short	1
	.short	19
	.p2align	3, 0x0
Ltmp307:
	.long	Ltmp70-Ltmp307
	.short	33
	.short	1
	.short	8
	.p2align	2, 0x0
Ltmp309:
	.long	Ltmp308-Ltmp309
	.p2align	3, 0x0
Ltmp310:
	.long	Ltmp71-Ltmp310
	.short	33
	.short	1
	.short	8
	.p2align	2, 0x0
Ltmp312:
	.long	Ltmp311-Ltmp312
	.p2align	3, 0x0
Ltmp313:
	.long	Ltmp72-Ltmp313
	.short	33
	.short	1
	.short	8
	.p2align	2, 0x0
Ltmp315:
	.long	Ltmp314-Ltmp315
	.p2align	3, 0x0
Ltmp316:
	.long	Ltmp73-Ltmp316
	.short	32
	.short	2
	.short	19
	.short	3
	.p2align	3, 0x0
Ltmp317:
	.long	Ltmp74-Ltmp317
	.short	33
	.short	0
	.p2align	2, 0x0
Ltmp319:
	.long	Ltmp318-Ltmp319
	.p2align	3, 0x0
Ltmp320:
	.long	Ltmp75-Ltmp320
	.short	33
	.short	1
	.short	8
	.p2align	2, 0x0
Ltmp322:
	.long	Ltmp321-Ltmp322
	.p2align	3, 0x0
Ltmp323:
	.long	Ltmp76-Ltmp323
	.short	33
	.short	1
	.short	8
	.p2align	2, 0x0
Ltmp325:
	.long	Ltmp324-Ltmp325
	.p2align	3, 0x0
Ltmp326:
	.long	Ltmp77-Ltmp326
	.short	32
	.short	1
	.short	3
	.p2align	3, 0x0
Ltmp327:
	.long	Ltmp78-Ltmp327
	.short	33
	.short	0
	.p2align	2, 0x0
Ltmp329:
	.long	Ltmp328-Ltmp329
	.p2align	3, 0x0
Ltmp330:
	.long	Ltmp79-Ltmp330
	.short	19
	.short	6
	.short	33
	.short	37
	.short	43
	.short	41
	.short	39
	.short	35
	.byte	1
	.byte	3
	.p2align	2, 0x0
Ltmp332:
	.long	Ltmp331-Ltmp332
	.p2align	3, 0x0
Ltmp333:
	.long	Ltmp80-Ltmp333
	.short	19
	.short	1
	.short	19
	.byte	1
	.byte	3
	.p2align	2, 0x0
Ltmp335:
	.long	Ltmp334-Ltmp335
	.p2align	3, 0x0
Ltmp336:
	.long	Ltmp81-Ltmp336
	.short	19
	.short	4
	.short	33
	.short	43
	.short	41
	.short	39
	.byte	1
	.byte	3
	.p2align	2, 0x0
Ltmp338:
	.long	Ltmp337-Ltmp338
	.p2align	3, 0x0
Ltmp339:
	.long	Ltmp82-Ltmp339
	.short	33
	.short	0
	.p2align	2, 0x0
Ltmp341:
	.long	Ltmp340-Ltmp341
	.p2align	3, 0x0
Ltmp342:
	.long	Ltmp83-Ltmp342
	.short	32
	.short	0
	.p2align	3, 0x0
Ltmp343:
	.long	Ltmp84-Ltmp343
	.short	33
	.short	2
	.short	8
	.short	0
	.p2align	2, 0x0
Ltmp345:
	.long	Ltmp344-Ltmp345
	.p2align	3, 0x0
Ltmp346:
	.long	Ltmp85-Ltmp346
	.short	33
	.short	2
	.short	8
	.short	0
	.p2align	2, 0x0
Ltmp348:
	.long	Ltmp347-Ltmp348
	.p2align	3, 0x0
Ltmp349:
	.long	Ltmp86-Ltmp349
	.short	113
	.short	0
	.p2align	2, 0x0
Ltmp351:
	.long	Ltmp350-Ltmp351
	.p2align	3, 0x0
Ltmp352:
	.long	Ltmp87-Ltmp352
	.short	113
	.short	2
	.short	88
	.short	80
	.p2align	2, 0x0
Ltmp354:
	.long	Ltmp353-Ltmp354
	.p2align	3, 0x0
Ltmp355:
	.long	Ltmp88-Ltmp355
	.short	113
	.short	1
	.short	88
	.p2align	2, 0x0
Ltmp357:
	.long	Ltmp356-Ltmp357
	.p2align	3, 0x0
Ltmp358:
	.long	Ltmp89-Ltmp358
	.short	113
	.short	2
	.short	72
	.short	88
	.p2align	2, 0x0
Ltmp360:
	.long	Ltmp359-Ltmp360
	.p2align	3, 0x0
Ltmp361:
	.long	Ltmp90-Ltmp361
	.short	113
	.short	3
	.short	88
	.short	72
	.short	80
	.p2align	2, 0x0
Ltmp363:
	.long	Ltmp362-Ltmp363
	.p2align	3, 0x0
Ltmp364:
	.long	Ltmp91-Ltmp364
	.short	113
	.short	1
	.short	72
	.p2align	2, 0x0
Ltmp366:
	.long	Ltmp365-Ltmp366
	.p2align	3, 0x0
Ltmp367:
	.long	Ltmp92-Ltmp367
	.short	113
	.short	2
	.short	88
	.short	80
	.p2align	2, 0x0
Ltmp369:
	.long	Ltmp368-Ltmp369
	.p2align	3, 0x0
Ltmp370:
	.long	Ltmp93-Ltmp370
	.short	115
	.short	3
	.short	5
	.short	19
	.short	48
	.byte	1
	.byte	0
	.p2align	2, 0x0
Ltmp372:
	.long	Ltmp371-Ltmp372
	.p2align	3, 0x0
Ltmp373:
	.long	Ltmp94-Ltmp373
	.short	113
	.short	1
	.short	72
	.p2align	2, 0x0
Ltmp375:
	.long	Ltmp374-Ltmp375
	.p2align	3, 0x0
Ltmp376:
	.long	Ltmp95-Ltmp376
	.short	113
	.short	2
	.short	64
	.short	56
	.p2align	2, 0x0
Ltmp378:
	.long	Ltmp377-Ltmp378
	.p2align	3, 0x0
Ltmp379:
	.long	Ltmp96-Ltmp379
	.short	112
	.short	1
	.short	19
	.p2align	3, 0x0
Ltmp380:
	.long	Ltmp97-Ltmp380
	.short	49
	.short	0
	.p2align	2, 0x0
Ltmp382:
	.long	Ltmp381-Ltmp382
	.p2align	3, 0x0
Ltmp383:
	.long	Ltmp98-Ltmp383
	.short	49
	.short	0
	.p2align	2, 0x0
Ltmp385:
	.long	Ltmp384-Ltmp385
	.p2align	3, 0x0
Ltmp386:
	.long	Ltmp99-Ltmp386
	.short	49
	.short	1
	.short	24
	.p2align	2, 0x0
Ltmp388:
	.long	Ltmp387-Ltmp388
	.p2align	3, 0x0
Ltmp389:
	.long	Ltmp100-Ltmp389
	.short	49
	.short	0
	.p2align	2, 0x0
Ltmp391:
	.long	Ltmp390-Ltmp391
	.p2align	3, 0x0
Ltmp392:
	.long	Ltmp101-Ltmp392
	.short	49
	.short	0
	.p2align	2, 0x0
Ltmp394:
	.long	Ltmp393-Ltmp394
	.p2align	3, 0x0
Ltmp395:
	.long	Ltmp102-Ltmp395
	.short	49
	.short	1
	.short	24
	.p2align	2, 0x0
Ltmp397:
	.long	Ltmp396-Ltmp397
	.p2align	3, 0x0
Ltmp398:
	.long	Ltmp103-Ltmp398
	.short	49
	.short	0
	.p2align	2, 0x0
Ltmp400:
	.long	Ltmp399-Ltmp400
	.p2align	3, 0x0
Ltmp401:
	.long	Ltmp104-Ltmp401
	.short	49
	.short	0
	.p2align	2, 0x0
Ltmp403:
	.long	Ltmp402-Ltmp403
	.p2align	3, 0x0
Ltmp404:
	.long	Ltmp105-Ltmp404
	.short	49
	.short	0
	.p2align	2, 0x0
Ltmp406:
	.long	Ltmp405-Ltmp406
	.p2align	3, 0x0
Ltmp407:
	.long	Ltmp106-Ltmp407
	.short	49
	.short	0
	.p2align	2, 0x0
Ltmp409:
	.long	Ltmp408-Ltmp409
	.p2align	3, 0x0
Ltmp410:
	.long	Ltmp107-Ltmp410
	.short	49
	.short	0
	.p2align	2, 0x0
Ltmp412:
	.long	Ltmp411-Ltmp412
	.p2align	3, 0x0
Ltmp413:
	.long	Ltmp108-Ltmp413
	.short	48
	.short	0
	.p2align	3, 0x0
	.p2align	2, 0x0
Ltmp110:
Ltmp416:
	.long	(Ltmp414-Ltmp416)+0
	.long	72373512
	.p2align	2, 0x0
Ltmp414:
	.long	Ltmp415-Ltmp414
	.ascii	"Stdlib__Map.Make.add"
	.byte	0
Ltmp415:
	.ascii	"map.ml"
	.byte	0
	.p2align	2, 0x0
Ltmp113:
Ltmp419:
	.long	(Ltmp417-Ltmp419)+0
	.long	69220752
	.p2align	2, 0x0
Ltmp417:
	.long	Ltmp418-Ltmp417
	.ascii	"Stdlib__Map.Make.add"
	.byte	0
Ltmp418:
	.ascii	"map.ml"
	.byte	0
	.p2align	2, 0x0
Ltmp117:
Ltmp422:
	.long	(Ltmp420-Ltmp422)+0
	.long	73946376
	.p2align	2, 0x0
Ltmp420:
	.long	Ltmp421-Ltmp420
	.ascii	"Stdlib__Map.Make.add"
	.byte	0
Ltmp421:
	.ascii	"map.ml"
	.byte	0
	.p2align	2, 0x0
Ltmp120:
Ltmp425:
	.long	(Ltmp423-Ltmp425)+0
	.long	71345656
	.p2align	2, 0x0
Ltmp423:
	.long	Ltmp424-Ltmp423
	.ascii	"Stdlib__Map.Make.add"
	.byte	0
Ltmp424:
	.ascii	"map.ml"
	.byte	0
	.p2align	2, 0x0
Ltmp123:
Ltmp428:
	.long	(Ltmp426-Ltmp428)+0
	.long	120086768
	.p2align	2, 0x0
Ltmp426:
	.long	Ltmp427-Ltmp426
	.ascii	"Stdlib__Map.Make.find_opt"
	.byte	0
Ltmp427:
	.ascii	"map.ml"
	.byte	0
	.p2align	2, 0x0
Ltmp127:
Ltmp433:
	.long	(Ltmp429-Ltmp433)+1
	.long	141579616
Ltmp434:
	.long	(Ltmp431-Ltmp434)+0
	.long	145252616
	.p2align	2, 0x0
Ltmp429:
	.long	Ltmp430-Ltmp429
	.ascii	"Stdlib__Map.Make.merge"
	.byte	0
Ltmp430:
	.ascii	"map.ml"
	.byte	0
	.p2align	2, 0x0
Ltmp431:
	.long	Ltmp432-Ltmp431
	.ascii	"Stdlib__Map.Make.remove"
	.byte	0
Ltmp432:
	.ascii	"map.ml"
	.byte	0
	.p2align	2, 0x0
Ltmp130:
Ltmp437:
	.long	(Ltmp435-Ltmp437)+0
	.long	146298104
	.p2align	2, 0x0
Ltmp435:
	.long	Ltmp436-Ltmp435
	.ascii	"Stdlib__Map.Make.remove"
	.byte	0
Ltmp436:
	.ascii	"map.ml"
	.byte	0
	.p2align	2, 0x0
Ltmp133:
Ltmp440:
	.long	(Ltmp438-Ltmp440)+0
	.long	147346680
	.p2align	2, 0x0
Ltmp438:
	.long	Ltmp439-Ltmp438
	.ascii	"Stdlib__Map.Make.remove"
	.byte	0
Ltmp439:
	.ascii	"map.ml"
	.byte	0
	.p2align	2, 0x0
Ltmp136:
Ltmp443:
	.long	(Ltmp441-Ltmp443)+0
	.long	155735304
	.p2align	2, 0x0
Ltmp441:
	.long	Ltmp442-Ltmp441
	.ascii	"Stdlib__Map.Make.update"
	.byte	0
Ltmp442:
	.ascii	"map.ml"
	.byte	0
	.p2align	2, 0x0
Ltmp139:
Ltmp446:
	.long	(Ltmp444-Ltmp446)+0
	.long	153110752
	.p2align	2, 0x0
Ltmp444:
	.long	Ltmp445-Ltmp444
	.ascii	"Stdlib__Map.Make.update"
	.byte	0
Ltmp445:
	.ascii	"map.ml"
	.byte	0
	.p2align	2, 0x0
Ltmp142:
Ltmp451:
	.long	(Ltmp447-Ltmp451)+1
	.long	141579616
Ltmp452:
	.long	(Ltmp449-Ltmp452)+0
	.long	153639160
	.p2align	2, 0x0
Ltmp447:
	.long	Ltmp448-Ltmp447
	.ascii	"Stdlib__Map.Make.merge"
	.byte	0
Ltmp448:
	.ascii	"map.ml"
	.byte	0
	.p2align	2, 0x0
Ltmp449:
	.long	Ltmp450-Ltmp449
	.ascii	"Stdlib__Map.Make.update"
	.byte	0
Ltmp450:
	.ascii	"map.ml"
	.byte	0
	.p2align	2, 0x0
Ltmp145:
Ltmp455:
	.long	(Ltmp453-Ltmp455)+0
	.long	157308168
	.p2align	2, 0x0
Ltmp453:
	.long	Ltmp454-Ltmp453
	.ascii	"Stdlib__Map.Make.update"
	.byte	0
Ltmp454:
	.ascii	"map.ml"
	.byte	0
	.p2align	2, 0x0
Ltmp149:
Ltmp458:
	.long	(Ltmp456-Ltmp458)+0
	.long	149444832
	.p2align	2, 0x0
Ltmp456:
	.long	Ltmp457-Ltmp456
	.ascii	"Stdlib__Map.Make.update"
	.byte	0
Ltmp457:
	.ascii	"map.ml"
	.byte	0
	.p2align	2, 0x0
Ltmp152:
Ltmp461:
	.long	(Ltmp459-Ltmp461)+0
	.long	153112800
	.p2align	2, 0x0
Ltmp459:
	.long	Ltmp460-Ltmp459
	.ascii	"Stdlib__Map.Make.update"
	.byte	0
Ltmp460:
	.ascii	"map.ml"
	.byte	0
	.p2align	2, 0x0
Ltmp155:
Ltmp464:
	.long	(Ltmp462-Ltmp464)+0
	.long	150500872
	.p2align	2, 0x0
Ltmp462:
	.long	Ltmp463-Ltmp462
	.ascii	"Stdlib__Map.Make.update"
	.byte	0
Ltmp463:
	.ascii	"map.ml"
	.byte	0
	.p2align	2, 0x0
Ltmp158:
Ltmp467:
	.long	(Ltmp465-Ltmp467)+0
	.long	154711576
	.p2align	2, 0x0
Ltmp465:
	.long	Ltmp466-Ltmp465
	.ascii	"Stdlib__Map.Make.update"
	.byte	0
Ltmp466:
	.ascii	"map.ml"
	.byte	0
	.p2align	2, 0x0
Ltmp161:
Ltmp470:
	.long	(Ltmp468-Ltmp470)+0
	.long	159400520
	.p2align	2, 0x0
Ltmp468:
	.long	Ltmp469-Ltmp468
	.ascii	"Stdlib__Map.Make.add_to_list.add"
	.byte	0
Ltmp469:
	.ascii	"map.ml"
	.byte	0
	.p2align	2, 0x0
Ltmp164:
Ltmp473:
	.long	(Ltmp471-Ltmp473)+0
	.long	159442504
	.p2align	2, 0x0
Ltmp471:
	.long	Ltmp472-Ltmp471
	.ascii	"Stdlib__Map.Make.add_to_list.add"
	.byte	0
Ltmp472:
	.ascii	"map.ml"
	.byte	0
	.p2align	2, 0x0
Ltmp165:
Ltmp476:
	.long	(Ltmp474-Ltmp476)+0
	.long	159447624
	.p2align	2, 0x0
Ltmp474:
	.long	Ltmp475-Ltmp474
	.ascii	"Stdlib__Map.Make.add_to_list.add"
	.byte	0
Ltmp475:
	.ascii	"map.ml"
	.byte	0
	.p2align	2, 0x0
Ltmp169:
Ltmp479:
	.long	(Ltmp477-Ltmp479)+0
	.long	159417696
	.p2align	2, 0x0
Ltmp477:
	.long	Ltmp478-Ltmp477
	.ascii	"Stdlib__Map.Make.add_to_list.add"
	.byte	0
Ltmp478:
	.ascii	"map.ml"
	.byte	0
	.p2align	2, 0x0
Ltmp170:
Ltmp482:
	.long	(Ltmp480-Ltmp482)+0
	.long	159422816
	.p2align	2, 0x0
Ltmp480:
	.long	Ltmp481-Ltmp480
	.ascii	"Stdlib__Map.Make.add_to_list.add"
	.byte	0
Ltmp481:
	.ascii	"map.ml"
	.byte	0
	.p2align	2, 0x0
Ltmp174:
Ltmp485:
	.long	(Ltmp483-Ltmp485)+0
	.long	209225040
	.p2align	2, 0x0
Ltmp483:
	.long	Ltmp484-Ltmp483
	.ascii	"Stdlib__Map.Make.split"
	.byte	0
Ltmp484:
	.ascii	"map.ml"
	.byte	0
	.p2align	2, 0x0
Ltmp177:
Ltmp488:
	.long	(Ltmp486-Ltmp488)+0
	.long	209249840
	.p2align	2, 0x0
Ltmp486:
	.long	Ltmp487-Ltmp486
	.ascii	"Stdlib__Map.Make.split"
	.byte	0
Ltmp487:
	.ascii	"map.ml"
	.byte	0
	.p2align	2, 0x0
Ltmp180:
Ltmp491:
	.long	(Ltmp489-Ltmp491)+0
	.long	208167216
	.p2align	2, 0x0
Ltmp489:
	.long	Ltmp490-Ltmp489
	.ascii	"Stdlib__Map.Make.split"
	.byte	0
Ltmp490:
	.ascii	"map.ml"
	.byte	0
	.p2align	2, 0x0
Ltmp181:
Ltmp494:
	.long	(Ltmp492-Ltmp494)+0
	.long	208171280
	.p2align	2, 0x0
Ltmp492:
	.long	Ltmp493-Ltmp492
	.ascii	"Stdlib__Map.Make.split"
	.byte	0
Ltmp493:
	.ascii	"map.ml"
	.byte	0
	.p2align	2, 0x0
Ltmp186:
Ltmp497:
	.long	(Ltmp495-Ltmp497)+0
	.long	210273616
	.p2align	2, 0x0
Ltmp495:
	.long	Ltmp496-Ltmp495
	.ascii	"Stdlib__Map.Make.split"
	.byte	0
Ltmp496:
	.ascii	"map.ml"
	.byte	0
	.p2align	2, 0x0
Ltmp189:
Ltmp500:
	.long	(Ltmp498-Ltmp500)+0
	.long	210288096
	.p2align	2, 0x0
Ltmp498:
	.long	Ltmp499-Ltmp498
	.ascii	"Stdlib__Map.Make.split"
	.byte	0
Ltmp499:
	.ascii	"map.ml"
	.byte	0
	.p2align	2, 0x0
Ltmp192:
Ltmp503:
	.long	(Ltmp501-Ltmp503)+0
	.long	209238584
	.p2align	2, 0x0
Ltmp501:
	.long	Ltmp502-Ltmp501
	.ascii	"Stdlib__Map.Make.split"
	.byte	0
Ltmp502:
	.ascii	"map.ml"
	.byte	0
	.p2align	2, 0x0
Ltmp195:
Ltmp506:
	.long	(Ltmp504-Ltmp506)+0
	.long	210287160
	.p2align	2, 0x0
Ltmp504:
	.long	Ltmp505-Ltmp504
	.ascii	"Stdlib__Map.Make.split"
	.byte	0
Ltmp505:
	.ascii	"map.ml"
	.byte	0
	.p2align	2, 0x0
Ltmp198:
Ltmp509:
	.long	(Ltmp507-Ltmp509)+0
	.long	213415232
	.p2align	2, 0x0
Ltmp507:
	.long	Ltmp508-Ltmp507
	.ascii	"Stdlib__Map.Make.merge"
	.byte	0
Ltmp508:
	.ascii	"map.ml"
	.byte	0
	.p2align	2, 0x0
Ltmp201:
Ltmp512:
	.long	(Ltmp510-Ltmp512)+0
	.long	2149154816
	.p2align	2, 0x0
Ltmp510:
	.long	Ltmp511-Ltmp510
	.short	64
	.short	79
	.long	79
	.ascii	"Stdlib__Map.Make.merge"
	.byte	0
Ltmp511:
	.ascii	"map.ml"
	.byte	0
	.p2align	2, 0x0
Ltmp204:
Ltmp515:
	.long	(Ltmp513-Ltmp515)+0
	.long	213955064
	.p2align	2, 0x0
Ltmp513:
	.long	Ltmp514-Ltmp513
	.ascii	"Stdlib__Map.Make.merge"
	.byte	0
Ltmp514:
	.ascii	"map.ml"
	.byte	0
	.p2align	2, 0x0
Ltmp207:
Ltmp518:
	.long	(Ltmp516-Ltmp518)+0
	.long	213935424
	.p2align	2, 0x0
Ltmp516:
	.long	Ltmp517-Ltmp516
	.ascii	"Stdlib__Map.Make.merge"
	.byte	0
Ltmp517:
	.ascii	"map.ml"
	.byte	0
	.p2align	2, 0x0
Ltmp210:
Ltmp525:
	.long	(Ltmp519-Ltmp525)+1
	.long	201873768
Ltmp526:
	.long	(Ltmp521-Ltmp526)+1
	.long	204488928
Ltmp527:
	.long	(Ltmp523-Ltmp527)+0
	.long	213920376
	.p2align	2, 0x0
Ltmp519:
	.long	Ltmp520-Ltmp519
	.ascii	"Stdlib__Map.Make.concat"
	.byte	0
Ltmp520:
	.ascii	"map.ml"
	.byte	0
	.p2align	2, 0x0
Ltmp521:
	.long	Ltmp522-Ltmp521
	.ascii	"Stdlib__Map.Make.concat_or_join"
	.byte	0
Ltmp522:
	.ascii	"map.ml"
	.byte	0
	.p2align	2, 0x0
Ltmp523:
	.long	Ltmp524-Ltmp523
	.ascii	"Stdlib__Map.Make.merge"
	.byte	0
Ltmp524:
	.ascii	"map.ml"
	.byte	0
	.p2align	2, 0x0
Ltmp214:
Ltmp530:
	.long	(Ltmp528-Ltmp530)+0
	.long	214988096
	.p2align	2, 0x0
Ltmp528:
	.long	Ltmp529-Ltmp528
	.ascii	"Stdlib__Map.Make.merge"
	.byte	0
Ltmp529:
	.ascii	"map.ml"
	.byte	0
	.p2align	2, 0x0
Ltmp217:
Ltmp533:
	.long	(Ltmp531-Ltmp533)+0
	.long	2149167104
	.p2align	2, 0x0
Ltmp531:
	.long	Ltmp532-Ltmp531
	.short	64
	.short	79
	.long	79
	.ascii	"Stdlib__Map.Make.merge"
	.byte	0
Ltmp532:
	.ascii	"map.ml"
	.byte	0
	.p2align	2, 0x0
Ltmp220:
Ltmp536:
	.long	(Ltmp534-Ltmp536)+0
	.long	215527928
	.p2align	2, 0x0
Ltmp534:
	.long	Ltmp535-Ltmp534
	.ascii	"Stdlib__Map.Make.merge"
	.byte	0
Ltmp535:
	.ascii	"map.ml"
	.byte	0
	.p2align	2, 0x0
Ltmp223:
Ltmp539:
	.long	(Ltmp537-Ltmp539)+0
	.long	215508288
	.p2align	2, 0x0
Ltmp537:
	.long	Ltmp538-Ltmp537
	.ascii	"Stdlib__Map.Make.merge"
	.byte	0
Ltmp538:
	.ascii	"map.ml"
	.byte	0
	.p2align	2, 0x0
Ltmp226:
Ltmp546:
	.long	(Ltmp540-Ltmp546)+1
	.long	201873768
Ltmp547:
	.long	(Ltmp542-Ltmp547)+1
	.long	204488928
Ltmp548:
	.long	(Ltmp544-Ltmp548)+0
	.long	215493240
	.p2align	2, 0x0
Ltmp540:
	.long	Ltmp541-Ltmp540
	.ascii	"Stdlib__Map.Make.concat"
	.byte	0
Ltmp541:
	.ascii	"map.ml"
	.byte	0
	.p2align	2, 0x0
Ltmp542:
	.long	Ltmp543-Ltmp542
	.ascii	"Stdlib__Map.Make.concat_or_join"
	.byte	0
Ltmp543:
	.ascii	"map.ml"
	.byte	0
	.p2align	2, 0x0
Ltmp544:
	.long	Ltmp545-Ltmp544
	.ascii	"Stdlib__Map.Make.merge"
	.byte	0
Ltmp545:
	.ascii	"map.ml"
	.byte	0
	.p2align	2, 0x0
Ltmp229:
Ltmp551:
	.long	(Ltmp549-Ltmp551)+0
	.long	215537136
	.p2align	2, 0x0
Ltmp549:
	.long	Ltmp550-Ltmp549
	.ascii	"Stdlib__Map.Make.merge"
	.byte	0
Ltmp550:
	.ascii	"map.ml"
	.byte	0
	.p2align	2, 0x0
Ltmp232:
Ltmp554:
	.long	(Ltmp552-Ltmp554)+0
	.long	213961176
	.p2align	2, 0x0
Ltmp552:
	.long	Ltmp553-Ltmp552
	.ascii	"Stdlib__Map.Make.merge"
	.byte	0
Ltmp553:
	.ascii	"map.ml"
	.byte	0
	.p2align	2, 0x0
Ltmp235:
Ltmp557:
	.long	(Ltmp555-Ltmp557)+0
	.long	223903056
	.p2align	2, 0x0
Ltmp555:
	.long	Ltmp556-Ltmp555
	.ascii	"Stdlib__Map.Make.union"
	.byte	0
Ltmp556:
	.ascii	"map.ml"
	.byte	0
	.p2align	2, 0x0
Ltmp238:
Ltmp560:
	.long	(Ltmp558-Ltmp560)+0
	.long	224416008
	.p2align	2, 0x0
Ltmp558:
	.long	Ltmp559-Ltmp558
	.ascii	"Stdlib__Map.Make.union"
	.byte	0
Ltmp559:
	.ascii	"map.ml"
	.byte	0
	.p2align	2, 0x0
Ltmp241:
Ltmp563:
	.long	(Ltmp561-Ltmp563)+0
	.long	224438712
	.p2align	2, 0x0
Ltmp561:
	.long	Ltmp562-Ltmp561
	.ascii	"Stdlib__Map.Make.union"
	.byte	0
Ltmp562:
	.ascii	"map.ml"
	.byte	0
	.p2align	2, 0x0
Ltmp244:
Ltmp566:
	.long	(Ltmp564-Ltmp566)+0
	.long	226014664
	.p2align	2, 0x0
Ltmp564:
	.long	Ltmp565-Ltmp564
	.ascii	"Stdlib__Map.Make.union"
	.byte	0
Ltmp565:
	.ascii	"map.ml"
	.byte	0
	.p2align	2, 0x0
Ltmp247:
Ltmp573:
	.long	(Ltmp567-Ltmp573)+1
	.long	201873768
Ltmp574:
	.long	(Ltmp569-Ltmp574)+1
	.long	204488928
Ltmp575:
	.long	(Ltmp571-Ltmp575)+0
	.long	225994200
	.p2align	2, 0x0
Ltmp567:
	.long	Ltmp568-Ltmp567
	.ascii	"Stdlib__Map.Make.concat"
	.byte	0
Ltmp568:
	.ascii	"map.ml"
	.byte	0
	.p2align	2, 0x0
Ltmp569:
	.long	Ltmp570-Ltmp569
	.ascii	"Stdlib__Map.Make.concat_or_join"
	.byte	0
Ltmp570:
	.ascii	"map.ml"
	.byte	0
	.p2align	2, 0x0
Ltmp571:
	.long	Ltmp572-Ltmp571
	.ascii	"Stdlib__Map.Make.union"
	.byte	0
Ltmp572:
	.ascii	"map.ml"
	.byte	0
	.p2align	2, 0x0
Ltmp251:
Ltmp578:
	.long	(Ltmp576-Ltmp578)+0
	.long	220757328
	.p2align	2, 0x0
Ltmp576:
	.long	Ltmp577-Ltmp576
	.ascii	"Stdlib__Map.Make.union"
	.byte	0
Ltmp577:
	.ascii	"map.ml"
	.byte	0
	.p2align	2, 0x0
Ltmp254:
Ltmp581:
	.long	(Ltmp579-Ltmp581)+0
	.long	221270280
	.p2align	2, 0x0
Ltmp579:
	.long	Ltmp580-Ltmp579
	.ascii	"Stdlib__Map.Make.union"
	.byte	0
Ltmp580:
	.ascii	"map.ml"
	.byte	0
	.p2align	2, 0x0
Ltmp257:
Ltmp584:
	.long	(Ltmp582-Ltmp584)+0
	.long	221292984
	.p2align	2, 0x0
Ltmp582:
	.long	Ltmp583-Ltmp582
	.ascii	"Stdlib__Map.Make.union"
	.byte	0
Ltmp583:
	.ascii	"map.ml"
	.byte	0
	.p2align	2, 0x0
Ltmp260:
Ltmp587:
	.long	(Ltmp585-Ltmp587)+0
	.long	222868936
	.p2align	2, 0x0
Ltmp585:
	.long	Ltmp586-Ltmp585
	.ascii	"Stdlib__Map.Make.union"
	.byte	0
Ltmp586:
	.ascii	"map.ml"
	.byte	0
	.p2align	2, 0x0
Ltmp263:
Ltmp594:
	.long	(Ltmp588-Ltmp594)+1
	.long	201873768
Ltmp595:
	.long	(Ltmp590-Ltmp595)+1
	.long	204488928
Ltmp596:
	.long	(Ltmp592-Ltmp596)+0
	.long	222848472
	.p2align	2, 0x0
Ltmp588:
	.long	Ltmp589-Ltmp588
	.ascii	"Stdlib__Map.Make.concat"
	.byte	0
Ltmp589:
	.ascii	"map.ml"
	.byte	0
	.p2align	2, 0x0
Ltmp590:
	.long	Ltmp591-Ltmp590
	.ascii	"Stdlib__Map.Make.concat_or_join"
	.byte	0
Ltmp591:
	.ascii	"map.ml"
	.byte	0
	.p2align	2, 0x0
Ltmp592:
	.long	Ltmp593-Ltmp592
	.ascii	"Stdlib__Map.Make.union"
	.byte	0
Ltmp593:
	.ascii	"map.ml"
	.byte	0
	.p2align	2, 0x0
Ltmp266:
Ltmp601:
	.long	(Ltmp597-Ltmp601)+1
	.long	246982104
Ltmp602:
	.long	(Ltmp599-Ltmp602)+0
	.long	254321104
	.p2align	2, 0x0
Ltmp597:
	.long	Ltmp598-Ltmp597
	.ascii	"Stdlib__Map.Make.cons_enum"
	.byte	0
Ltmp598:
	.ascii	"map.ml"
	.byte	0
	.p2align	2, 0x0
Ltmp599:
	.long	Ltmp600-Ltmp599
	.ascii	"Stdlib__Map.Make.compare"
	.byte	0
Ltmp600:
	.ascii	"map.ml"
	.byte	0
	.p2align	2, 0x0
Ltmp269:
Ltmp607:
	.long	(Ltmp603-Ltmp607)+1
	.long	246982104
Ltmp608:
	.long	(Ltmp605-Ltmp608)+0
	.long	254301496
	.p2align	2, 0x0
Ltmp603:
	.long	Ltmp604-Ltmp603
	.ascii	"Stdlib__Map.Make.cons_enum"
	.byte	0
Ltmp604:
	.ascii	"map.ml"
	.byte	0
	.p2align	2, 0x0
Ltmp605:
	.long	Ltmp606-Ltmp605
	.ascii	"Stdlib__Map.Make.compare"
	.byte	0
Ltmp606:
	.ascii	"map.ml"
	.byte	0
	.p2align	2, 0x0
Ltmp272:
Ltmp611:
	.long	(Ltmp609-Ltmp611)+671088640
	.long	2149425152
	.p2align	2, 0x0
Ltmp609:
	.long	Ltmp610-Ltmp609
	.short	26
	.short	59
	.long	399
	.ascii	"Stdlib__Map.Make.compare.compare_aux"
	.byte	0
Ltmp610:
	.ascii	"map.ml"
	.byte	0
	.p2align	2, 0x0
Ltmp276:
Ltmp614:
	.long	(Ltmp612-Ltmp614)+0
	.long	252727528
	.p2align	2, 0x0
Ltmp612:
	.long	Ltmp613-Ltmp612
	.ascii	"Stdlib__Map.Make.compare.compare_aux"
	.byte	0
Ltmp613:
	.ascii	"map.ml"
	.byte	0
	.p2align	2, 0x0
Ltmp279:
Ltmp619:
	.long	(Ltmp615-Ltmp619)+1
	.long	246982104
Ltmp620:
	.long	(Ltmp617-Ltmp620)+0
	.long	253798872
	.p2align	2, 0x0
Ltmp615:
	.long	Ltmp616-Ltmp615
	.ascii	"Stdlib__Map.Make.cons_enum"
	.byte	0
Ltmp616:
	.ascii	"map.ml"
	.byte	0
	.p2align	2, 0x0
Ltmp617:
	.long	Ltmp618-Ltmp617
	.ascii	"Stdlib__Map.Make.compare.compare_aux"
	.byte	0
Ltmp618:
	.ascii	"map.ml"
	.byte	0
	.p2align	2, 0x0
Ltmp282:
Ltmp625:
	.long	(Ltmp621-Ltmp625)+1
	.long	246982104
Ltmp626:
	.long	(Ltmp623-Ltmp626)+0
	.long	253780296
	.p2align	2, 0x0
Ltmp621:
	.long	Ltmp622-Ltmp621
	.ascii	"Stdlib__Map.Make.cons_enum"
	.byte	0
Ltmp622:
	.ascii	"map.ml"
	.byte	0
	.p2align	2, 0x0
Ltmp623:
	.long	Ltmp624-Ltmp623
	.ascii	"Stdlib__Map.Make.compare.compare_aux"
	.byte	0
Ltmp624:
	.ascii	"map.ml"
	.byte	0
	.p2align	2, 0x0
Ltmp285:
Ltmp631:
	.long	(Ltmp627-Ltmp631)+1
	.long	246982104
Ltmp632:
	.long	(Ltmp629-Ltmp632)+0
	.long	260086208
	.p2align	2, 0x0
Ltmp627:
	.long	Ltmp628-Ltmp627
	.ascii	"Stdlib__Map.Make.cons_enum"
	.byte	0
Ltmp628:
	.ascii	"map.ml"
	.byte	0
	.p2align	2, 0x0
Ltmp629:
	.long	Ltmp630-Ltmp629
	.ascii	"Stdlib__Map.Make.equal"
	.byte	0
Ltmp630:
	.ascii	"map.ml"
	.byte	0
	.p2align	2, 0x0
Ltmp288:
Ltmp637:
	.long	(Ltmp633-Ltmp637)+1
	.long	246982104
Ltmp638:
	.long	(Ltmp635-Ltmp638)+0
	.long	260066600
	.p2align	2, 0x0
Ltmp633:
	.long	Ltmp634-Ltmp633
	.ascii	"Stdlib__Map.Make.cons_enum"
	.byte	0
Ltmp634:
	.ascii	"map.ml"
	.byte	0
	.p2align	2, 0x0
Ltmp635:
	.long	Ltmp636-Ltmp635
	.ascii	"Stdlib__Map.Make.equal"
	.byte	0
Ltmp636:
	.ascii	"map.ml"
	.byte	0
	.p2align	2, 0x0
Ltmp291:
Ltmp641:
	.long	(Ltmp639-Ltmp641)+0
	.long	256336332
	.p2align	2, 0x0
Ltmp639:
	.long	Ltmp640-Ltmp639
	.ascii	"Stdlib__Map.Make.equal.equal_aux"
	.byte	0
Ltmp640:
	.ascii	"map.ml"
	.byte	0
	.p2align	2, 0x0
Ltmp295:
Ltmp644:
	.long	(Ltmp642-Ltmp644)+0
	.long	259036528
	.p2align	2, 0x0
Ltmp642:
	.long	Ltmp643-Ltmp642
	.ascii	"Stdlib__Map.Make.equal.equal_aux"
	.byte	0
Ltmp643:
	.ascii	"map.ml"
	.byte	0
	.p2align	2, 0x0
Ltmp298:
Ltmp649:
	.long	(Ltmp645-Ltmp649)+1
	.long	246982104
Ltmp650:
	.long	(Ltmp647-Ltmp650)+0
	.long	259563976
	.p2align	2, 0x0
Ltmp645:
	.long	Ltmp646-Ltmp645
	.ascii	"Stdlib__Map.Make.cons_enum"
	.byte	0
Ltmp646:
	.ascii	"map.ml"
	.byte	0
	.p2align	2, 0x0
Ltmp647:
	.long	Ltmp648-Ltmp647
	.ascii	"Stdlib__Map.Make.equal.equal_aux"
	.byte	0
Ltmp648:
	.ascii	"map.ml"
	.byte	0
	.p2align	2, 0x0
Ltmp301:
Ltmp655:
	.long	(Ltmp651-Ltmp655)+1
	.long	246982104
Ltmp656:
	.long	(Ltmp653-Ltmp656)+0
	.long	259545400
	.p2align	2, 0x0
Ltmp651:
	.long	Ltmp652-Ltmp651
	.ascii	"Stdlib__Map.Make.cons_enum"
	.byte	0
Ltmp652:
	.ascii	"map.ml"
	.byte	0
	.p2align	2, 0x0
Ltmp653:
	.long	Ltmp654-Ltmp653
	.ascii	"Stdlib__Map.Make.equal.equal_aux"
	.byte	0
Ltmp654:
	.ascii	"map.ml"
	.byte	0
	.p2align	2, 0x0
Ltmp304:
Ltmp663:
	.long	(Ltmp657-Ltmp663)+1
	.long	269538800
Ltmp664:
	.long	(Ltmp659-Ltmp664)+1
	.long	67133712
Ltmp665:
	.long	(Ltmp661-Ltmp665)+0
	.long	269506112
	.p2align	2, 0x0
Ltmp657:
	.long	Ltmp658-Ltmp657
	.ascii	"Stdlib__Map.Make.of_list.(fun)"
	.byte	0
Ltmp658:
	.ascii	"map.ml"
	.byte	0
	.p2align	2, 0x0
Ltmp659:
	.long	Ltmp660-Ltmp659
	.ascii	"Stdlib__List.fold_left"
	.byte	0
Ltmp660:
	.ascii	"list.ml"
	.byte	0
	.p2align	2, 0x0
Ltmp661:
	.long	Ltmp662-Ltmp661
	.ascii	"Stdlib__Map.Make.of_list"
	.byte	0
Ltmp662:
	.ascii	"map.ml"
	.byte	0
	.p2align	2, 0x0
Ltmp308:
Ltmp670:
	.long	(Ltmp666-Ltmp670)+1
	.long	37232752
Ltmp671:
	.long	(Ltmp668-Ltmp671)+0
	.long	271063440
	.p2align	2, 0x0
Ltmp666:
	.long	Ltmp667-Ltmp666
	.ascii	"Stdlib__Seq.fold_left"
	.byte	0
Ltmp667:
	.ascii	"seq.ml"
	.byte	0
	.p2align	2, 0x0
Ltmp668:
	.long	Ltmp669-Ltmp668
	.ascii	"Stdlib__Map.Make.add_seq"
	.byte	0
Ltmp669:
	.ascii	"map.ml"
	.byte	0
	.p2align	2, 0x0
Ltmp311:
Ltmp678:
	.long	(Ltmp672-Ltmp678)+1
	.long	271094120
Ltmp679:
	.long	(Ltmp674-Ltmp679)+1
	.long	38815944
Ltmp680:
	.long	(Ltmp676-Ltmp680)+0
	.long	271063440
	.p2align	2, 0x0
Ltmp672:
	.long	Ltmp673-Ltmp672
	.ascii	"Stdlib__Map.Make.add_seq.(fun)"
	.byte	0
Ltmp673:
	.ascii	"map.ml"
	.byte	0
	.p2align	2, 0x0
Ltmp674:
	.long	Ltmp675-Ltmp674
	.ascii	"Stdlib__Seq.fold_left"
	.byte	0
Ltmp675:
	.ascii	"seq.ml"
	.byte	0
	.p2align	2, 0x0
Ltmp676:
	.long	Ltmp677-Ltmp676
	.ascii	"Stdlib__Map.Make.add_seq"
	.byte	0
Ltmp677:
	.ascii	"map.ml"
	.byte	0
	.p2align	2, 0x0
Ltmp314:
Ltmp685:
	.long	(Ltmp681-Ltmp685)+1
	.long	37232752
Ltmp686:
	.long	(Ltmp683-Ltmp686)+0
	.long	271063440
	.p2align	2, 0x0
Ltmp681:
	.long	Ltmp682-Ltmp681
	.ascii	"Stdlib__Seq.fold_left"
	.byte	0
Ltmp682:
	.ascii	"seq.ml"
	.byte	0
	.p2align	2, 0x0
Ltmp683:
	.long	Ltmp684-Ltmp683
	.ascii	"Stdlib__Map.Make.add_seq"
	.byte	0
Ltmp684:
	.ascii	"map.ml"
	.byte	0
	.p2align	2, 0x0
Ltmp318:
Ltmp693:
	.long	(Ltmp687-Ltmp693)+1
	.long	37232752
Ltmp694:
	.long	(Ltmp689-Ltmp694)+1
	.long	271063440
Ltmp695:
	.long	(Ltmp691-Ltmp695)+0
	.long	272125200
	.p2align	2, 0x0
Ltmp687:
	.long	Ltmp688-Ltmp687
	.ascii	"Stdlib__Seq.fold_left"
	.byte	0
Ltmp688:
	.ascii	"seq.ml"
	.byte	0
	.p2align	2, 0x0
Ltmp689:
	.long	Ltmp690-Ltmp689
	.ascii	"Stdlib__Map.Make.add_seq"
	.byte	0
Ltmp690:
	.ascii	"map.ml"
	.byte	0
	.p2align	2, 0x0
Ltmp691:
	.long	Ltmp692-Ltmp691
	.ascii	"Stdlib__Map.Make.of_seq"
	.byte	0
Ltmp692:
	.ascii	"map.ml"
	.byte	0
	.p2align	2, 0x0
Ltmp321:
Ltmp704:
	.long	(Ltmp696-Ltmp704)+1
	.long	271094120
Ltmp705:
	.long	(Ltmp698-Ltmp705)+1
	.long	38815944
Ltmp706:
	.long	(Ltmp700-Ltmp706)+1
	.long	271063440
Ltmp707:
	.long	(Ltmp702-Ltmp707)+0
	.long	272125200
	.p2align	2, 0x0
Ltmp696:
	.long	Ltmp697-Ltmp696
	.ascii	"Stdlib__Map.Make.add_seq.(fun)"
	.byte	0
Ltmp697:
	.ascii	"map.ml"
	.byte	0
	.p2align	2, 0x0
Ltmp698:
	.long	Ltmp699-Ltmp698
	.ascii	"Stdlib__Seq.fold_left"
	.byte	0
Ltmp699:
	.ascii	"seq.ml"
	.byte	0
	.p2align	2, 0x0
Ltmp700:
	.long	Ltmp701-Ltmp700
	.ascii	"Stdlib__Map.Make.add_seq"
	.byte	0
Ltmp701:
	.ascii	"map.ml"
	.byte	0
	.p2align	2, 0x0
Ltmp702:
	.long	Ltmp703-Ltmp702
	.ascii	"Stdlib__Map.Make.of_seq"
	.byte	0
Ltmp703:
	.ascii	"map.ml"
	.byte	0
	.p2align	2, 0x0
Ltmp324:
Ltmp714:
	.long	(Ltmp708-Ltmp714)+1
	.long	37232752
Ltmp715:
	.long	(Ltmp710-Ltmp715)+1
	.long	271063440
Ltmp716:
	.long	(Ltmp712-Ltmp716)+0
	.long	272125200
	.p2align	2, 0x0
Ltmp708:
	.long	Ltmp709-Ltmp708
	.ascii	"Stdlib__Seq.fold_left"
	.byte	0
Ltmp709:
	.ascii	"seq.ml"
	.byte	0
	.p2align	2, 0x0
Ltmp710:
	.long	Ltmp711-Ltmp710
	.ascii	"Stdlib__Map.Make.add_seq"
	.byte	0
Ltmp711:
	.ascii	"map.ml"
	.byte	0
	.p2align	2, 0x0
Ltmp712:
	.long	Ltmp713-Ltmp712
	.ascii	"Stdlib__Map.Make.of_seq"
	.byte	0
Ltmp713:
	.ascii	"map.ml"
	.byte	0
	.p2align	2, 0x0
Ltmp328:
Ltmp723:
	.long	(Ltmp717-Ltmp723)+1
	.long	37232752
Ltmp724:
	.long	(Ltmp719-Ltmp724)+1
	.long	271063440
Ltmp725:
	.long	(Ltmp721-Ltmp725)+0
	.long	272125200
	.p2align	2, 0x0
Ltmp717:
	.long	Ltmp718-Ltmp717
	.ascii	"Stdlib__Seq.fold_left"
	.byte	0
Ltmp718:
	.ascii	"seq.ml"
	.byte	0
	.p2align	2, 0x0
Ltmp719:
	.long	Ltmp720-Ltmp719
	.ascii	"Stdlib__Map.Make.add_seq"
	.byte	0
Ltmp720:
	.ascii	"map.ml"
	.byte	0
	.p2align	2, 0x0
Ltmp721:
	.long	Ltmp722-Ltmp721
	.ascii	"Stdlib__Map.Make.of_seq"
	.byte	0
Ltmp722:
	.ascii	"map.ml"
	.byte	0
	.p2align	2, 0x0
Ltmp331:
Ltmp730:
	.long	(Ltmp726-Ltmp730)+1
	.long	287341968
Ltmp731:
	.long	(Ltmp728-Ltmp731)+0
	.long	288902416
	.p2align	2, 0x0
Ltmp726:
	.long	Ltmp727-Ltmp726
	.ascii	"Stdlib__Map.Make.to_seq_from.aux"
	.byte	0
Ltmp727:
	.ascii	"map.ml"
	.byte	0
	.p2align	2, 0x0
Ltmp728:
	.long	Ltmp729-Ltmp728
	.ascii	"Stdlib__Map.Make.to_seq_from"
	.byte	0
Ltmp729:
	.ascii	"map.ml"
	.byte	0
	.p2align	2, 0x0
Ltmp334:
Ltmp734:
	.long	(Ltmp732-Ltmp734)+0
	.long	288889104
	.p2align	2, 0x0
Ltmp732:
	.long	Ltmp733-Ltmp732
	.ascii	"Stdlib__Map.Make.to_seq_from"
	.byte	0
Ltmp733:
	.ascii	"map.ml"
	.byte	0
	.p2align	2, 0x0
Ltmp337:
Ltmp739:
	.long	(Ltmp735-Ltmp739)+1
	.long	286283056
Ltmp740:
	.long	(Ltmp737-Ltmp740)+0
	.long	288902416
	.p2align	2, 0x0
Ltmp735:
	.long	Ltmp736-Ltmp735
	.ascii	"Stdlib__Map.Make.to_seq_from.aux"
	.byte	0
Ltmp736:
	.ascii	"map.ml"
	.byte	0
	.p2align	2, 0x0
Ltmp737:
	.long	Ltmp738-Ltmp737
	.ascii	"Stdlib__Map.Make.to_seq_from"
	.byte	0
Ltmp738:
	.ascii	"map.ml"
	.byte	0
	.p2align	2, 0x0
Ltmp340:
Ltmp749:
	.long	(Ltmp741-Ltmp749)+1
	.long	14158328
Ltmp750:
	.long	(Ltmp743-Ltmp750)+1
	.long	17847640
Ltmp751:
	.long	(Ltmp745-Ltmp751)+1
	.long	19940632
Ltmp752:
	.long	(Ltmp747-Ltmp752)+0
	.long	5789176
	.p2align	2, 0x0
Ltmp741:
	.long	Ltmp742-Ltmp741
	.ascii	"Stdlib__Printf.kfprintf"
	.byte	0
Ltmp742:
	.ascii	"printf.ml"
	.byte	0
	.p2align	2, 0x0
Ltmp743:
	.long	Ltmp744-Ltmp743
	.ascii	"Stdlib__Printf.fprintf"
	.byte	0
Ltmp744:
	.ascii	"printf.ml"
	.byte	0
	.p2align	2, 0x0
Ltmp745:
	.long	Ltmp746-Ltmp745
	.ascii	"Stdlib__Printf.printf"
	.byte	0
Ltmp746:
	.ascii	"printf.ml"
	.byte	0
	.p2align	2, 0x0
Ltmp747:
	.long	Ltmp748-Ltmp747
	.ascii	"String_map_equal_content.print_result"
	.byte	0
Ltmp748:
	.ascii	"string_map_equal_content.ml"
	.byte	0
	.p2align	2, 0x0
Ltmp344:
Ltmp759:
	.long	(Ltmp753-Ltmp759)+1
	.long	39332000
Ltmp760:
	.long	(Ltmp755-Ltmp760)+1
	.long	41961816
Ltmp761:
	.long	(Ltmp757-Ltmp761)+0
	.long	8419720
	.p2align	2, 0x0
Ltmp753:
	.long	Ltmp754-Ltmp753
	.ascii	"Stdlib__Bytes.copy"
	.byte	0
Ltmp754:
	.ascii	"bytes.ml"
	.byte	0
	.p2align	2, 0x0
Ltmp755:
	.long	Ltmp756-Ltmp755
	.ascii	"Stdlib__Bytes.of_string"
	.byte	0
Ltmp756:
	.ascii	"bytes.ml"
	.byte	0
	.p2align	2, 0x0
Ltmp757:
	.long	Ltmp758-Ltmp757
	.ascii	"String_map_equal_content.fresh"
	.byte	0
Ltmp758:
	.ascii	"string_map_equal_content.ml"
	.byte	0
	.p2align	2, 0x0
Ltmp347:
Ltmp768:
	.long	(Ltmp762-Ltmp768)+1
	.long	39332000
Ltmp769:
	.long	(Ltmp764-Ltmp769)+1
	.long	41454936
Ltmp770:
	.long	(Ltmp766-Ltmp770)+0
	.long	8403336
	.p2align	2, 0x0
Ltmp762:
	.long	Ltmp763-Ltmp762
	.ascii	"Stdlib__Bytes.copy"
	.byte	0
Ltmp763:
	.ascii	"bytes.ml"
	.byte	0
	.p2align	2, 0x0
Ltmp764:
	.long	Ltmp765-Ltmp764
	.ascii	"Stdlib__Bytes.to_string"
	.byte	0
Ltmp765:
	.ascii	"bytes.ml"
	.byte	0
	.p2align	2, 0x0
Ltmp766:
	.long	Ltmp767-Ltmp766
	.ascii	"String_map_equal_content.fresh"
	.byte	0
Ltmp767:
	.ascii	"string_map_equal_content.ml"
	.byte	0
	.p2align	2, 0x0
Ltmp350:
Ltmp779:
	.long	(Ltmp771-Ltmp779)+1
	.long	146802840
Ltmp780:
	.long	(Ltmp773-Ltmp780)+1
	.long	10026608
Ltmp781:
	.long	(Ltmp775-Ltmp781)+1
	.long	44587224
Ltmp782:
	.long	(Ltmp777-Ltmp782)+0
	.long	9977464
	.p2align	2, 0x0
Ltmp771:
	.long	Ltmp772-Ltmp771
	.ascii	"Stdlib.string_of_int"
	.byte	0
Ltmp772:
	.ascii	"stdlib.ml"
	.byte	0
	.p2align	2, 0x0
Ltmp773:
	.long	Ltmp774-Ltmp773
	.ascii	"String_map_equal_content.run.(fun)"
	.byte	0
Ltmp774:
	.ascii	"string_map_equal_content.ml"
	.byte	0
	.p2align	2, 0x0
Ltmp775:
	.long	Ltmp776-Ltmp775
	.ascii	"Stdlib__Array.init"
	.byte	0
Ltmp776:
	.ascii	"array.ml"
	.byte	0
	.p2align	2, 0x0
Ltmp777:
	.long	Ltmp778-Ltmp777
	.ascii	"String_map_equal_content.run"
	.byte	0
Ltmp778:
	.ascii	"string_map_equal_content.ml"
	.byte	0
	.p2align	2, 0x0
Ltmp353:
Ltmp791:
	.long	(Ltmp783-Ltmp791)+1
	.long	118499584
Ltmp792:
	.long	(Ltmp785-Ltmp792)+1
	.long	10002032
Ltmp793:
	.long	(Ltmp787-Ltmp793)+1
	.long	44587224
Ltmp794:
	.long	(Ltmp789-Ltmp794)+0
	.long	9977464
	.p2align	2, 0x0
Ltmp783:
	.long	Ltmp784-Ltmp783
	.ascii	"Stdlib.(^)"
	.byte	0
Ltmp784:
	.ascii	"stdlib.ml"
	.byte	0
	.p2align	2, 0x0
Ltmp785:
	.long	Ltmp786-Ltmp785
	.ascii	"String_map_equal_content.run.(fun)"
	.byte	0
Ltmp786:
	.ascii	"string_map_equal_content.ml"
	.byte	0
	.p2align	2, 0x0
Ltmp787:
	.long	Ltmp788-Ltmp787
	.ascii	"Stdlib__Array.init"
	.byte	0
Ltmp788:
	.ascii	"array.ml"
	.byte	0
	.p2align	2, 0x0
Ltmp789:
	.long	Ltmp790-Ltmp789
	.ascii	"String_map_equal_content.run"
	.byte	0
Ltmp790:
	.ascii	"string_map_equal_content.ml"
	.byte	0
	.p2align	2, 0x0
Ltmp356:
Ltmp799:
	.long	(Ltmp795-Ltmp799)+1
	.long	44578008
Ltmp800:
	.long	(Ltmp797-Ltmp800)+0
	.long	9977464
	.p2align	2, 0x0
Ltmp795:
	.long	Ltmp796-Ltmp795
	.ascii	"Stdlib__Array.init"
	.byte	0
Ltmp796:
	.ascii	"array.ml"
	.byte	0
	.p2align	2, 0x0
Ltmp797:
	.long	Ltmp798-Ltmp797
	.ascii	"String_map_equal_content.run"
	.byte	0
Ltmp798:
	.ascii	"string_map_equal_content.ml"
	.byte	0
	.p2align	2, 0x0
Ltmp359:
Ltmp809:
	.long	(Ltmp801-Ltmp809)+1
	.long	146802840
Ltmp810:
	.long	(Ltmp803-Ltmp810)+1
	.long	10026608
Ltmp811:
	.long	(Ltmp805-Ltmp811)+1
	.long	45635800
Ltmp812:
	.long	(Ltmp807-Ltmp812)+0
	.long	9977464
	.p2align	2, 0x0
Ltmp801:
	.long	Ltmp802-Ltmp801
	.ascii	"Stdlib.string_of_int"
	.byte	0
Ltmp802:
	.ascii	"stdlib.ml"
	.byte	0
	.p2align	2, 0x0
Ltmp803:
	.long	Ltmp804-Ltmp803
	.ascii	"String_map_equal_content.run.(fun)"
	.byte	0
Ltmp804:
	.ascii	"string_map_equal_content.ml"
	.byte	0
	.p2align	2, 0x0
Ltmp805:
	.long	Ltmp806-Ltmp805
	.ascii	"Stdlib__Array.init"
	.byte	0
Ltmp806:
	.ascii	"array.ml"
	.byte	0
	.p2align	2, 0x0
Ltmp807:
	.long	Ltmp808-Ltmp807
	.ascii	"String_map_equal_content.run"
	.byte	0
Ltmp808:
	.ascii	"string_map_equal_content.ml"
	.byte	0
	.p2align	2, 0x0
Ltmp362:
Ltmp821:
	.long	(Ltmp813-Ltmp821)+1
	.long	118499584
Ltmp822:
	.long	(Ltmp815-Ltmp822)+1
	.long	10002032
Ltmp823:
	.long	(Ltmp817-Ltmp823)+1
	.long	45635800
Ltmp824:
	.long	(Ltmp819-Ltmp824)+0
	.long	9977464
	.p2align	2, 0x0
Ltmp813:
	.long	Ltmp814-Ltmp813
	.ascii	"Stdlib.(^)"
	.byte	0
Ltmp814:
	.ascii	"stdlib.ml"
	.byte	0
	.p2align	2, 0x0
Ltmp815:
	.long	Ltmp816-Ltmp815
	.ascii	"String_map_equal_content.run.(fun)"
	.byte	0
Ltmp816:
	.ascii	"string_map_equal_content.ml"
	.byte	0
	.p2align	2, 0x0
Ltmp817:
	.long	Ltmp818-Ltmp817
	.ascii	"Stdlib__Array.init"
	.byte	0
Ltmp818:
	.ascii	"array.ml"
	.byte	0
	.p2align	2, 0x0
Ltmp819:
	.long	Ltmp820-Ltmp819
	.ascii	"String_map_equal_content.run"
	.byte	0
Ltmp820:
	.ascii	"string_map_equal_content.ml"
	.byte	0
	.p2align	2, 0x0
Ltmp365:
Ltmp827:
	.long	(Ltmp825-Ltmp827)+0
	.long	10501416
	.p2align	2, 0x0
Ltmp825:
	.long	Ltmp826-Ltmp825
	.ascii	"String_map_equal_content.run"
	.byte	0
Ltmp826:
	.ascii	"string_map_equal_content.ml"
	.byte	0
	.p2align	2, 0x0
Ltmp368:
Ltmp834:
	.long	(Ltmp828-Ltmp834)+1
	.long	11567576
Ltmp835:
	.long	(Ltmp830-Ltmp835)+1
	.long	116401392
Ltmp836:
	.long	(Ltmp832-Ltmp836)+0
	.long	11539032
	.p2align	2, 0x0
Ltmp828:
	.long	Ltmp829-Ltmp828
	.ascii	"String_map_equal_content.run.(fun)"
	.byte	0
Ltmp829:
	.ascii	"string_map_equal_content.ml"
	.byte	0
	.p2align	2, 0x0
Ltmp830:
	.long	Ltmp831-Ltmp830
	.ascii	"Stdlib__Array.fold_left"
	.byte	0
Ltmp831:
	.ascii	"array.ml"
	.byte	0
	.p2align	2, 0x0
Ltmp832:
	.long	Ltmp833-Ltmp832
	.ascii	"String_map_equal_content.run"
	.byte	0
Ltmp833:
	.ascii	"string_map_equal_content.ml"
	.byte	0
	.p2align	2, 0x0
Ltmp371:
Ltmp841:
	.long	(Ltmp837-Ltmp841)+1
	.long	116406512
Ltmp842:
	.long	(Ltmp839-Ltmp842)+0
	.long	11539032
	.p2align	2, 0x0
Ltmp837:
	.long	Ltmp838-Ltmp837
	.ascii	"Stdlib__Array.fold_left"
	.byte	0
Ltmp838:
	.ascii	"array.ml"
	.byte	0
	.p2align	2, 0x0
Ltmp839:
	.long	Ltmp840-Ltmp839
	.ascii	"String_map_equal_content.run"
	.byte	0
Ltmp840:
	.ascii	"string_map_equal_content.ml"
	.byte	0
	.p2align	2, 0x0
Ltmp374:
Ltmp845:
	.long	(Ltmp843-Ltmp845)+0
	.long	10501416
	.p2align	2, 0x0
Ltmp843:
	.long	Ltmp844-Ltmp843
	.ascii	"String_map_equal_content.run"
	.byte	0
Ltmp844:
	.ascii	"string_map_equal_content.ml"
	.byte	0
	.p2align	2, 0x0
Ltmp377:
Ltmp852:
	.long	(Ltmp846-Ltmp852)+1
	.long	11567576
Ltmp853:
	.long	(Ltmp848-Ltmp853)+1
	.long	116401392
Ltmp854:
	.long	(Ltmp850-Ltmp854)+0
	.long	11539032
	.p2align	2, 0x0
Ltmp846:
	.long	Ltmp847-Ltmp846
	.ascii	"String_map_equal_content.run.(fun)"
	.byte	0
Ltmp847:
	.ascii	"string_map_equal_content.ml"
	.byte	0
	.p2align	2, 0x0
Ltmp848:
	.long	Ltmp849-Ltmp848
	.ascii	"Stdlib__Array.fold_left"
	.byte	0
Ltmp849:
	.ascii	"array.ml"
	.byte	0
	.p2align	2, 0x0
Ltmp850:
	.long	Ltmp851-Ltmp850
	.ascii	"String_map_equal_content.run"
	.byte	0
Ltmp851:
	.ascii	"string_map_equal_content.ml"
	.byte	0
	.p2align	2, 0x0
Ltmp381:
Ltmp857:
	.long	(Ltmp855-Ltmp857)+0
	.long	3164368
	.p2align	2, 0x0
Ltmp855:
	.long	Ltmp856-Ltmp855
	.ascii	"String_map_equal_content.n"
	.byte	0
Ltmp856:
	.ascii	"string_map_equal_content.ml"
	.byte	0
	.p2align	2, 0x0
Ltmp384:
Ltmp860:
	.long	(Ltmp858-Ltmp860)+0
	.long	3197392
	.p2align	2, 0x0
Ltmp858:
	.long	Ltmp859-Ltmp858
	.ascii	"String_map_equal_content.n"
	.byte	0
Ltmp859:
	.ascii	"string_map_equal_content.ml"
	.byte	0
	.p2align	2, 0x0
Ltmp387:
Ltmp863:
	.long	(Ltmp861-Ltmp863)+0
	.long	3183088
	.p2align	2, 0x0
Ltmp861:
	.long	Ltmp862-Ltmp861
	.ascii	"String_map_equal_content.n"
	.byte	0
Ltmp862:
	.ascii	"string_map_equal_content.ml"
	.byte	0
	.p2align	2, 0x0
Ltmp390:
Ltmp866:
	.long	(Ltmp864-Ltmp866)+0
	.long	4737232
	.p2align	2, 0x0
Ltmp864:
	.long	Ltmp865-Ltmp864
	.ascii	"String_map_equal_content.reps"
	.byte	0
Ltmp865:
	.ascii	"string_map_equal_content.ml"
	.byte	0
	.p2align	2, 0x0
Ltmp393:
Ltmp869:
	.long	(Ltmp867-Ltmp869)+0
	.long	4770256
	.p2align	2, 0x0
Ltmp867:
	.long	Ltmp868-Ltmp867
	.ascii	"String_map_equal_content.reps"
	.byte	0
Ltmp868:
	.ascii	"string_map_equal_content.ml"
	.byte	0
	.p2align	2, 0x0
Ltmp396:
Ltmp872:
	.long	(Ltmp870-Ltmp872)+0
	.long	4755952
	.p2align	2, 0x0
Ltmp870:
	.long	Ltmp871-Ltmp870
	.ascii	"String_map_equal_content.reps"
	.byte	0
Ltmp871:
	.ascii	"string_map_equal_content.ml"
	.byte	0
	.p2align	2, 0x0
Ltmp399:
Ltmp875:
	.long	(Ltmp873-Ltmp875)+0
	.long	17348104
	.p2align	2, 0x0
Ltmp873:
	.long	Ltmp874-Ltmp873
	.ascii	"String_map_equal_content"
	.byte	0
Ltmp874:
	.ascii	"string_map_equal_content.ml"
	.byte	0
	.p2align	2, 0x0
Ltmp402:
Ltmp878:
	.long	(Ltmp876-Ltmp878)+0
	.long	17329504
	.p2align	2, 0x0
Ltmp876:
	.long	Ltmp877-Ltmp876
	.ascii	"String_map_equal_content"
	.byte	0
Ltmp877:
	.ascii	"string_map_equal_content.ml"
	.byte	0
	.p2align	2, 0x0
Ltmp405:
Ltmp881:
	.long	(Ltmp879-Ltmp881)+0
	.long	17324560
	.p2align	2, 0x0
Ltmp879:
	.long	Ltmp880-Ltmp879
	.ascii	"String_map_equal_content"
	.byte	0
Ltmp880:
	.ascii	"string_map_equal_content.ml"
	.byte	0
	.p2align	2, 0x0
Ltmp408:
Ltmp892:
	.long	(Ltmp882-Ltmp892)+1
	.long	14158328
Ltmp893:
	.long	(Ltmp884-Ltmp893)+1
	.long	17847640
Ltmp894:
	.long	(Ltmp886-Ltmp894)+1
	.long	19940632
Ltmp895:
	.long	(Ltmp888-Ltmp895)+1
	.long	5789176
Ltmp896:
	.long	(Ltmp890-Ltmp896)+0
	.long	17311248
	.p2align	2, 0x0
Ltmp882:
	.long	Ltmp883-Ltmp882
	.ascii	"Stdlib__Printf.kfprintf"
	.byte	0
Ltmp883:
	.ascii	"printf.ml"
	.byte	0
	.p2align	2, 0x0
Ltmp884:
	.long	Ltmp885-Ltmp884
	.ascii	"Stdlib__Printf.fprintf"
	.byte	0
Ltmp885:
	.ascii	"printf.ml"
	.byte	0
	.p2align	2, 0x0
Ltmp886:
	.long	Ltmp887-Ltmp886
	.ascii	"Stdlib__Printf.printf"
	.byte	0
Ltmp887:
	.ascii	"printf.ml"
	.byte	0
	.p2align	2, 0x0
Ltmp888:
	.long	Ltmp889-Ltmp888
	.ascii	"String_map_equal_content.print_result"
	.byte	0
Ltmp889:
	.ascii	"string_map_equal_content.ml"
	.byte	0
	.p2align	2, 0x0
Ltmp890:
	.long	Ltmp891-Ltmp890
	.ascii	"String_map_equal_content"
	.byte	0
Ltmp891:
	.ascii	"string_map_equal_content.ml"
	.byte	0
	.p2align	2, 0x0
Ltmp411:
Ltmp901:
	.long	(Ltmp897-Ltmp901)+1
	.long	5789176
Ltmp902:
	.long	(Ltmp899-Ltmp902)+0
	.long	17311248
	.p2align	2, 0x0
Ltmp897:
	.long	Ltmp898-Ltmp897
	.ascii	"String_map_equal_content.print_result"
	.byte	0
Ltmp898:
	.ascii	"string_map_equal_content.ml"
	.byte	0
	.p2align	2, 0x0
Ltmp899:
	.long	Ltmp900-Ltmp899
	.ascii	"String_map_equal_content"
	.byte	0
Ltmp900:
	.ascii	"string_map_equal_content.ml"
	.byte	0

	.section	__TEXT,__text,regular,pure_instructions
	.globl	_camlString_map_equal_content__code_end
_camlString_map_equal_content__code_end:
.subsections_via_symbols
