	.file	""
	.data
	.globl	_camlString_map_equal_content__data_begin
_camlString_map_equal_content__data_begin:
	.text
	.globl	_camlString_map_equal_content__code_begin
_camlString_map_equal_content__code_begin:
	nop
	.align	3
	.data
	.align	3
	.globl	_camlString_map_equal_content__gc_roots
_camlString_map_equal_content__gc_roots:
L_camlString_map_equal_content__gc_roots:
	.8byte	_camlString_map_equal_content
	.8byte	0
	.data
	.align	3
	.8byte	9984
	.globl	_camlString_map_equal_content
_camlString_map_equal_content:
L_camlString_map_equal_content:
	.8byte	_camlString_map_equal_content__black_box_int_9
	.8byte	_camlString_map_equal_content__black_box_string_10
	.8byte	_camlString_map_equal_content__black_box_11
	.8byte	1
	.8byte	1
	.8byte	_camlString_map_equal_content__print_result_12
	.8byte	_camlString_map_equal_content__Pmakeblock4061
	.8byte	_camlString_map_equal_content__fresh_46
	.8byte	_camlString_map_equal_content__run_47
	.data
	.align	3
	.8byte	4087
	.globl	_camlString_map_equal_content__run_47
_camlString_map_equal_content__run_47:
L_camlString_map_equal_content__run_47:
	.8byte	_caml_curry2
	.8byte	0x280000000000007
	.8byte	_camlString_map_equal_content__run_6_52_code
	.data
	.align	3
	.8byte	3063
	.globl	_camlString_map_equal_content__fresh_46
_camlString_map_equal_content__fresh_46:
L_camlString_map_equal_content__fresh_46:
	.8byte	_camlString_map_equal_content__fresh_5_51_code
	.8byte	0x180000000000005
	.data
	.align	3
	.8byte	44800
	.globl	_camlString_map_equal_content__Pmakeblock4061
_camlString_map_equal_content__Pmakeblock4061:
L_camlString_map_equal_content__Pmakeblock4061:
	.8byte	1
	.8byte	_camlString_map_equal_content__add_30
	.8byte	_camlString_map_equal_content__add_to_list_36
	.8byte	_camlString_map_equal_content__update_35
	.8byte	_camlStdlib__Map__singleton_145
	.8byte	_camlString_map_equal_content__remove_34
	.8byte	_camlString_map_equal_content__merge_38
	.8byte	_camlString_map_equal_content__union_39
	.8byte	_camlStdlib__Map__cardinal_177
	.8byte	_camlStdlib__Map__bindings_179
	.8byte	_camlStdlib__Map__min_binding_156
	.8byte	_camlStdlib__Map__min_binding_opt_157
	.8byte	_camlStdlib__Map__max_binding_158
	.8byte	_camlStdlib__Map__max_binding_opt_159
	.8byte	_camlStdlib__Map__min_binding_156
	.8byte	_camlStdlib__Map__min_binding_opt_157
	.8byte	_camlString_map_equal_content__find_31
	.8byte	_camlString_map_equal_content__find_opt_32
	.8byte	_camlStdlib__Map__find_first_149
	.8byte	_camlStdlib__Map__find_first_opt_151
	.8byte	_camlStdlib__Map__find_last_153
	.8byte	_camlStdlib__Map__find_last_opt_155
	.8byte	_camlStdlib__Map__iter_162
	.8byte	_camlStdlib__Map__fold_165
	.8byte	_camlStdlib__Map__map_163
	.8byte	_camlStdlib__Map__mapi_164
	.8byte	_camlStdlib__Map__filter_173
	.8byte	_camlStdlib__Map__filter_map_174
	.8byte	_camlStdlib__Map__partition_175
	.8byte	_camlString_map_equal_content__split_37
	.8byte	_camlStdlib__Map__is_empty_147
	.8byte	_camlString_map_equal_content__mem_33
	.8byte	_camlString_map_equal_content__equal_41
	.8byte	_camlString_map_equal_content__compare_40
	.8byte	_camlStdlib__Map__for_all_166
	.8byte	_camlStdlib__Map__exists_167
	.8byte	_camlStdlib__Map__bindings_179
	.8byte	_camlString_map_equal_content__of_list_42
	.8byte	_camlStdlib__Map__to_seq_181
	.8byte	_camlStdlib__Map__to_rev_seq_184
	.8byte	_camlString_map_equal_content__to_seq_from_45
	.8byte	_camlString_map_equal_content__add_seq_43
	.8byte	_camlString_map_equal_content__of_seq_44
	.data
	.align	3
	.8byte	5111
	.globl	_camlString_map_equal_content__to_seq_from_45
_camlString_map_equal_content__to_seq_from_45:
L_camlString_map_equal_content__to_seq_from_45:
	.8byte	_caml_curry2
	.8byte	0x280000000000007
	.8byte	_camlString_map_equal_content__to_seq_from_67_50_code
	.8byte	_camlString_map_equal_content__Pmakeblock283
	.data
	.align	3
	.8byte	4087
	.globl	_camlString_map_equal_content__of_seq_44
_camlString_map_equal_content__of_seq_44:
L_camlString_map_equal_content__of_seq_44:
	.8byte	_camlString_map_equal_content__of_seq_57_49_code
	.8byte	0x180000000000005
	.8byte	_camlString_map_equal_content__add_seq_43
	.data
	.align	3
	.8byte	5111
	.globl	_camlString_map_equal_content__add_seq_43
_camlString_map_equal_content__add_seq_43:
L_camlString_map_equal_content__add_seq_43:
	.8byte	_caml_curry2
	.8byte	0x280000000000007
	.8byte	_camlString_map_equal_content__add_seq_55_48_code
	.8byte	_camlString_map_equal_content__add_30
	.data
	.align	3
	.8byte	4087
	.globl	_camlString_map_equal_content__of_list_42
_camlString_map_equal_content__of_list_42:
L_camlString_map_equal_content__of_list_42:
	.8byte	_camlString_map_equal_content__of_list_53_47_code
	.8byte	0x180000000000005
	.8byte	_camlString_map_equal_content__add_30
	.data
	.align	3
	.8byte	5111
	.globl	_camlString_map_equal_content__equal_41
_camlString_map_equal_content__equal_41:
L_camlString_map_equal_content__equal_41:
	.8byte	_caml_curry3
	.8byte	0x380000000000007
	.8byte	_camlString_map_equal_content__equal_48_45_code
	.8byte	_camlString_map_equal_content__Pmakeblock283
	.data
	.align	3
	.8byte	5111
	.globl	_camlString_map_equal_content__compare_40
_camlString_map_equal_content__compare_40:
L_camlString_map_equal_content__compare_40:
	.8byte	_caml_curry3
	.8byte	0x380000000000007
	.8byte	_camlString_map_equal_content__compare_46_43_code
	.8byte	_camlString_map_equal_content__Pmakeblock283
	.data
	.align	3
	.8byte	5111
	.globl	_camlString_map_equal_content__union_39
_camlString_map_equal_content__union_39:
L_camlString_map_equal_content__union_39:
	.8byte	_caml_curry3
	.8byte	0x380000000000007
	.8byte	_camlString_map_equal_content__union_41_42_code
	.8byte	_camlString_map_equal_content__split_37
	.data
	.align	3
	.8byte	5111
	.globl	_camlString_map_equal_content__merge_38
_camlString_map_equal_content__merge_38:
L_camlString_map_equal_content__merge_38:
	.8byte	_caml_curry3
	.8byte	0x380000000000007
	.8byte	_camlString_map_equal_content__merge_40_41_code
	.8byte	_camlString_map_equal_content__split_37
	.data
	.align	3
	.8byte	5111
	.globl	_camlString_map_equal_content__split_37
_camlString_map_equal_content__split_37:
L_camlString_map_equal_content__split_37:
	.8byte	_caml_curry2
	.8byte	0x280000000000007
	.8byte	_camlString_map_equal_content__split_39_40_code
	.8byte	_camlString_map_equal_content__Pmakeblock283
	.data
	.align	3
	.8byte	5111
	.globl	_camlString_map_equal_content__add_to_list_36
_camlString_map_equal_content__add_to_list_36:
L_camlString_map_equal_content__add_to_list_36:
	.8byte	_caml_curry3
	.8byte	0x380000000000007
	.8byte	_camlString_map_equal_content__add_to_list_26_38_code
	.8byte	_camlString_map_equal_content__update_35
	.data
	.align	3
	.8byte	5111
	.globl	_camlString_map_equal_content__update_35
_camlString_map_equal_content__update_35:
L_camlString_map_equal_content__update_35:
	.8byte	_caml_curry3
	.8byte	0x380000000000007
	.8byte	_camlString_map_equal_content__update_25_37_code
	.8byte	_camlString_map_equal_content__Pmakeblock283
	.data
	.align	3
	.8byte	5111
	.globl	_camlString_map_equal_content__remove_34
_camlString_map_equal_content__remove_34:
L_camlString_map_equal_content__remove_34:
	.8byte	_caml_curry2
	.8byte	0x280000000000007
	.8byte	_camlString_map_equal_content__remove_24_36_code
	.8byte	_camlString_map_equal_content__Pmakeblock283
	.data
	.align	3
	.8byte	5111
	.globl	_camlString_map_equal_content__mem_33
_camlString_map_equal_content__mem_33:
L_camlString_map_equal_content__mem_33:
	.8byte	_caml_curry2
	.8byte	0x280000000000007
	.8byte	_camlString_map_equal_content__mem_17_35_code
	.8byte	_camlString_map_equal_content__Pmakeblock283
	.data
	.align	3
	.8byte	5111
	.globl	_camlString_map_equal_content__find_opt_32
_camlString_map_equal_content__find_opt_32:
L_camlString_map_equal_content__find_opt_32:
	.8byte	_caml_curry2
	.8byte	0x280000000000007
	.8byte	_camlString_map_equal_content__find_opt_16_34_code
	.8byte	_camlString_map_equal_content__Pmakeblock283
	.data
	.align	3
	.8byte	5111
	.globl	_camlString_map_equal_content__find_31
_camlString_map_equal_content__find_31:
L_camlString_map_equal_content__find_31:
	.8byte	_caml_curry2
	.8byte	0x280000000000007
	.8byte	_camlString_map_equal_content__find_7_33_code
	.8byte	_camlString_map_equal_content__Pmakeblock283
	.data
	.align	3
	.8byte	5111
	.globl	_camlString_map_equal_content__add_30
_camlString_map_equal_content__add_30:
L_camlString_map_equal_content__add_30:
	.8byte	_caml_curry3
	.8byte	0x380000000000007
	.8byte	_camlString_map_equal_content__add_6_32_code
	.8byte	_camlString_map_equal_content__Pmakeblock283
	.data
	.align	3
	.8byte	1792
	.globl	_camlString_map_equal_content__Pmakeblock283
_camlString_map_equal_content__Pmakeblock283:
L_camlString_map_equal_content__Pmakeblock283:
	.8byte	_camlString_map_equal_content__fn$5bstring_map_equal_content.ml$3a14$2c21$2d$2d27$5d_13
	.data
	.align	3
	.8byte	4087
	.globl	_camlString_map_equal_content__fn$5bstring_map_equal_content.ml$3a14$2c21$2d$2d27$5d_13
_camlString_map_equal_content__fn$5bstring_map_equal_content.ml$3a14$2c21$2d$2d27$5d_13:
L_camlString_map_equal_content__fn$5bstring_map_equal_content.ml$3a14$2c21$2d$2d27$5d_13:
	.8byte	_caml_curry2
	.8byte	0x280000000000007
	.8byte	_camlString_map_equal_content__fn$5bstring_map_equal_content.ml$3a14$2c21$2d$2d27$5d_4_4_code
	.data
	.align	3
	.8byte	3063
	.globl	_camlString_map_equal_content__print_result_12
_camlString_map_equal_content__print_result_12:
L_camlString_map_equal_content__print_result_12:
	.8byte	_camlString_map_equal_content__print_result_3_12_code
	.8byte	0x180000000000005
	.data
	.align	3
	.8byte	3063
	.globl	_camlString_map_equal_content__black_box_11
_camlString_map_equal_content__black_box_11:
L_camlString_map_equal_content__black_box_11:
	.8byte	_camlString_map_equal_content__black_box_2_11_code
	.8byte	0x180000000000005
	.data
	.align	3
	.8byte	3063
	.globl	_camlString_map_equal_content__black_box_string_10
_camlString_map_equal_content__black_box_string_10:
L_camlString_map_equal_content__black_box_string_10:
	.8byte	_camlString_map_equal_content__black_box_string_1_10_code
	.8byte	0x180000000000005
	.data
	.align	3
	.8byte	3063
	.globl	_camlString_map_equal_content__black_box_int_9
_camlString_map_equal_content__black_box_int_9:
L_camlString_map_equal_content__black_box_int_9:
	.8byte	_camlString_map_equal_content__black_box_int_0_9_code
	.8byte	0x180000000000005
	.data
	.align	3
	.8byte	2816
L_camlString_map_equal_content__block35:
	.8byte	_caml_exn_Invalid_argument
	.8byte	L_camlString_map_equal_content__string33
	.data
	.align	3
	.8byte	4092
L_camlString_map_equal_content__string33:
	.ascii	"index out of bounds"
	.space	4
	.byte	4
	.data
	.align	3
	.8byte	4092
L_camlString_map_equal_content__immstring119:
	.ascii	"compiler_equal_key_"
	.space	4
	.byte	4
	.data
	.align	3
	.8byte	4868
	.globl	_camlString_map_equal_content__const_block66
_camlString_map_equal_content__const_block66:
L_camlString_map_equal_content__const_block66:
	.8byte	1
	.8byte	1
	.8byte	1
	.8byte	_camlString_map_equal_content__const_block64
	.data
	.align	3
	.8byte	2828
	.globl	_camlString_map_equal_content__const_block64
_camlString_map_equal_content__const_block64:
L_camlString_map_equal_content__const_block64:
	.8byte	21
	.8byte	_camlString_map_equal_content__const_block62
	.data
	.align	3
	.8byte	1802
	.globl	_camlString_map_equal_content__const_block62
_camlString_map_equal_content__const_block62:
L_camlString_map_equal_content__const_block62:
	.8byte	1
	.text
	.align	3
	.globl	_camlString_map_equal_content__add_6_32_code
_camlString_map_equal_content__add_6_32_code:
L_camlString_map_equal_content__add_6_32_code:
	.file	1	"map.ml"
	.loc	1	130	16
	.cfi_startproc
	sub	sp, sp, #48
	.cfi_adjust_cfa_offset 48
	.cfi_offset 30, -8
	str	lr, [sp, #40]
	orr	x19, xzr, x0
	orr	x20, xzr, x1
	orr	x21, xzr, x2
	tbz	x21, #0, L106
	.loc	1	132	14
	ldr	x16, [x28, #0]
	sub	x27, x27, #48
	subs	xzr, x27, x16
	b.cc	L159
L158:
	add	x0, x27, #8
	movz	x1, #5120, lsl #0
	.loc	1	132	14
	str	x1, [x0, #-8]
	orr	x1, xzr, #1
	.loc	1	132	14
	str	x1, [x0, #0]
	.loc	1	132	14
	str	x19, [x0, #8]
	.loc	1	132	14
	str	x20, [x0, #16]
	orr	x1, xzr, #1
	.loc	1	132	14
	str	x1, [x0, #24]
	orr	x1, xzr, #3
	.loc	1	132	14
	str	x1, [x0, #32]
	ldr	lr, [sp, #40]
	add	sp, sp, #48
	.cfi_adjust_cfa_offset -48
	ret
	.cfi_adjust_cfa_offset 48
L106:
	.loc	1	133	13
	ldr	x22, [x21, #24]
	.loc	1	133	13
	ldr	x23, [x21, #16]
	.loc	1	133	13
	ldr	x24, [x21, #8]
	.loc	1	133	13
	ldr	x25, [x21, #0]
	orr	x0, xzr, x19
	orr	x1, xzr, x24
	.file	2	"string_map_equal_content.ml"
	.loc	2	14	21
	add	fp, sp, #0
	.cfi_remember_state
	.cfi_def_cfa_register %29
	ldr	x16, [x28, #104]
	add	sp, x16, #0
	bl	_caml_string_compare
	add	sp, fp, #0
	.cfi_restore_state
	subs	xzr, x0, #1
	b.ne	L122
	subs	xzr, x23, x20
	b.ne	L117
	orr	x0, xzr, x21
	ldr	lr, [sp, #40]
	add	sp, sp, #48
	.cfi_adjust_cfa_offset -48
	ret
	.cfi_adjust_cfa_offset 48
L117:
	.loc	1	136	41
	ldr	x16, [x28, #0]
	sub	x27, x27, #48
	subs	xzr, x27, x16
	b.cc	L162
L161:
	add	x0, x27, #8
	movz	x1, #5120, lsl #0
	.loc	1	136	41
	str	x1, [x0, #-8]
	.loc	1	136	41
	str	x25, [x0, #0]
	.loc	1	136	41
	str	x19, [x0, #8]
	.loc	1	136	41
	str	x20, [x0, #16]
	.loc	1	136	41
	str	x22, [x0, #24]
	.loc	1	133	13
	ldr	x1, [x21, #32]
	.loc	1	136	41
	str	x1, [x0, #32]
	ldr	lr, [sp, #40]
	add	sp, sp, #48
	.cfi_adjust_cfa_offset -48
	ret
	.cfi_adjust_cfa_offset 48
L122:
	ldr	x16, [x28, #40]
	add	x16, x16, #408
	subs	xzr, sp, x16
	b.cc	L163
L164:
	subs	xzr, x0, #1
	b.ge	L133
	str	x24, [sp, #24]
	str	x23, [sp, #16]
	str	x22, [sp, #8]
	str	x21, [sp, #0]
	orr	x0, xzr, x19
	orr	x1, xzr, x20
	orr	x2, xzr, x25
	str	x25, [sp, #32]
	.loc	1	138	21
	bl	_camlString_map_equal_content__add_6_32_code
L165:
	ldr	x4, [sp, #0]
	ldr	x3, [sp, #8]
	ldr	x2, [sp, #16]
	ldr	x1, [sp, #24]
	ldr	x5, [sp, #32]
	subs	xzr, x5, x0
	b.ne	L129
	orr	x0, xzr, x4
	ldr	lr, [sp, #40]
	add	sp, sp, #48
	.cfi_adjust_cfa_offset -48
	ret
	.cfi_adjust_cfa_offset 48
L129:
	.loc	1	139	35
	ldr	lr, [sp, #40]
	add	sp, sp, #48
	.cfi_adjust_cfa_offset -48
	b	_camlStdlib__Map__bal_4_146_code
	.cfi_adjust_cfa_offset 48
L133:
	str	x25, [sp, #32]
	str	x24, [sp, #24]
	str	x23, [sp, #16]
	str	x21, [sp, #0]
	orr	x0, xzr, x19
	orr	x1, xzr, x20
	orr	x2, xzr, x22
	str	x22, [sp, #8]
	.loc	1	141	21
	bl	_camlString_map_equal_content__add_6_32_code
L166:
	orr	x3, xzr, x0
	ldr	x4, [sp, #0]
	ldr	x5, [sp, #8]
	ldr	x2, [sp, #16]
	ldr	x1, [sp, #24]
	ldr	x0, [sp, #32]
	subs	xzr, x5, x3
	b.ne	L138
	orr	x0, xzr, x4
	ldr	lr, [sp, #40]
	add	sp, sp, #48
	.cfi_adjust_cfa_offset -48
	ret
	.cfi_adjust_cfa_offset 48
L138:
	.loc	1	142	35
	ldr	lr, [sp, #40]
	add	sp, sp, #48
	.cfi_adjust_cfa_offset -48
	b	_camlStdlib__Map__bal_4_146_code
	.cfi_adjust_cfa_offset 48
L162:
	bl	_caml_call_gc
L160:
	b	L161
L159:
	bl	_caml_call_gc
L157:
	b	L158
L163:
	movz	x16, #48
	stp	x16, lr, [sp, #-16]!
	bl	_caml_call_realloc_stack
	ldp	x16, lr, [sp], #16
	b	L164
	.cfi_endproc
	.text
	.align	3
	.globl	_camlString_map_equal_content__find_7_33_code
_camlString_map_equal_content__find_7_33_code:
L_camlString_map_equal_content__find_7_33_code:
	.loc	1	144	17
	.cfi_startproc
	sub	sp, sp, #16
	.cfi_adjust_cfa_offset 16
	.cfi_offset 30, -8
	str	lr, [sp, #8]
	orr	x19, xzr, x0
	orr	x20, xzr, x1
	tbz	x20, #0, L177
L175:
	adrp	x0, _caml_exn_Not_found@GOTPAGE
	ldr	x0, [x0, _caml_exn_Not_found@GOTPAGEOFF]
	.loc	1	146	10
	add	sp, x26, #0
	ldp	x26, x16, [sp], #16
	br	x16
L177:
	.loc	1	147	13
	ldr	x1, [x20, #8]
	orr	x0, xzr, x19
	.loc	2	14	21
	add	fp, sp, #0
	.cfi_remember_state
	.cfi_def_cfa_register %29
	ldr	x16, [x28, #104]
	add	sp, x16, #0
	bl	_caml_string_compare
	add	sp, fp, #0
	.cfi_restore_state
	subs	xzr, x0, #1
	b.ne	L184
	.loc	1	147	13
	ldr	x0, [x20, #16]
	ldr	lr, [sp, #8]
	add	sp, sp, #16
	.cfi_adjust_cfa_offset -16
	ret
	.cfi_adjust_cfa_offset 16
L184:
	subs	xzr, x0, #1
	b.ge	L189
	.loc	1	147	13
	ldr	x20, [x20, #0]
	tbz	x20, #0, L177
	b	L175
L189:
	.loc	1	147	13
	ldr	x20, [x20, #24]
	tbz	x20, #0, L177
	b	L175
	.cfi_endproc
	.text
	.align	3
	.globl	_camlString_map_equal_content__find_opt_16_34_code
_camlString_map_equal_content__find_opt_16_34_code:
L_camlString_map_equal_content__find_opt_16_34_code:
	.loc	1	224	21
	.cfi_startproc
	sub	sp, sp, #16
	.cfi_adjust_cfa_offset 16
	.cfi_offset 30, -8
	str	lr, [sp, #8]
	orr	x19, xzr, x0
	orr	x20, xzr, x1
	tbz	x20, #0, L206
L204:
	orr	x0, xzr, #1
	ldr	lr, [sp, #8]
	add	sp, sp, #16
	.cfi_adjust_cfa_offset -16
	ret
	.cfi_adjust_cfa_offset 16
L206:
	.loc	1	227	13
	ldr	x1, [x20, #8]
	orr	x0, xzr, x19
	.loc	2	14	21
	add	fp, sp, #0
	.cfi_remember_state
	.cfi_def_cfa_register %29
	ldr	x16, [x28, #104]
	add	sp, x16, #0
	bl	_caml_string_compare
	add	sp, fp, #0
	.cfi_restore_state
	subs	xzr, x0, #1
	b.ne	L214
	.loc	1	229	24
	ldr	x16, [x28, #0]
	sub	x27, x27, #16
	subs	xzr, x27, x16
	b.cc	L231
L230:
	add	x0, x27, #8
	orr	x1, xzr, #1024
	.loc	1	229	24
	str	x1, [x0, #-8]
	.loc	1	227	13
	ldr	x1, [x20, #16]
	.loc	1	229	24
	str	x1, [x0, #0]
	ldr	lr, [sp, #8]
	add	sp, sp, #16
	.cfi_adjust_cfa_offset -16
	ret
	.cfi_adjust_cfa_offset 16
L214:
	subs	xzr, x0, #1
	b.ge	L219
	.loc	1	227	13
	ldr	x20, [x20, #0]
	tbz	x20, #0, L206
	b	L204
L219:
	.loc	1	227	13
	ldr	x20, [x20, #24]
	tbz	x20, #0, L206
	b	L204
L231:
	bl	_caml_call_gc
L229:
	b	L230
	.cfi_endproc
	.text
	.align	3
	.globl	_camlString_map_equal_content__mem_17_35_code
_camlString_map_equal_content__mem_17_35_code:
L_camlString_map_equal_content__mem_17_35_code:
	.loc	1	232	16
	.cfi_startproc
	sub	sp, sp, #16
	.cfi_adjust_cfa_offset 16
	.cfi_offset 30, -8
	str	lr, [sp, #8]
	orr	x19, xzr, x0
	orr	x20, xzr, x1
	tbz	x20, #0, L242
L240:
	orr	x0, xzr, #1
	ldr	lr, [sp, #8]
	add	sp, sp, #16
	.cfi_adjust_cfa_offset -16
	ret
	.cfi_adjust_cfa_offset 16
L242:
	.loc	1	235	13
	ldr	x1, [x20, #8]
	orr	x0, xzr, x19
	.loc	2	14	21
	add	fp, sp, #0
	.cfi_remember_state
	.cfi_def_cfa_register %29
	ldr	x16, [x28, #104]
	add	sp, x16, #0
	bl	_caml_string_compare
	add	sp, fp, #0
	.cfi_restore_state
	subs	xzr, x0, #1
	b.ne	L248
	orr	x0, xzr, #3
	ldr	lr, [sp, #8]
	add	sp, sp, #16
	.cfi_adjust_cfa_offset -16
	ret
	.cfi_adjust_cfa_offset 16
L248:
	subs	xzr, x0, #1
	b.ge	L253
	.loc	1	235	13
	ldr	x20, [x20, #0]
	tbz	x20, #0, L242
	b	L240
L253:
	.loc	1	235	13
	ldr	x20, [x20, #24]
	tbz	x20, #0, L242
	b	L240
	.cfi_endproc
	.text
	.align	3
	.globl	_camlString_map_equal_content__remove_24_36_code
_camlString_map_equal_content__remove_24_36_code:
L_camlString_map_equal_content__remove_24_36_code:
	.loc	1	272	19
	.cfi_startproc
	sub	sp, sp, #48
	.cfi_adjust_cfa_offset 48
	.cfi_offset 30, -8
	str	lr, [sp, #40]
	orr	x19, xzr, x0
	orr	x20, xzr, x1
	tbz	x20, #0, L265
	orr	x0, xzr, #1
	ldr	lr, [sp, #40]
	add	sp, sp, #48
	.cfi_adjust_cfa_offset -48
	ret
	.cfi_adjust_cfa_offset 48
L265:
	.loc	1	275	14
	ldr	x21, [x20, #24]
	.loc	1	275	14
	ldr	x22, [x20, #16]
	.loc	1	275	14
	ldr	x23, [x20, #8]
	.loc	1	275	14
	ldr	x24, [x20, #0]
	orr	x0, xzr, x19
	orr	x1, xzr, x23
	.loc	2	14	21
	add	fp, sp, #0
	.cfi_remember_state
	.cfi_def_cfa_register %29
	ldr	x16, [x28, #104]
	add	sp, x16, #0
	bl	_caml_string_compare
	add	sp, fp, #0
	.cfi_restore_state
	ldr	x16, [x28, #40]
	add	x16, x16, #408
	subs	xzr, sp, x16
	b.cc	L342
L343:
	subs	xzr, x0, #1
	b.ne	L311
	tbz	x24, #0, L276
	orr	x0, xzr, x21
	ldr	lr, [sp, #40]
	add	sp, sp, #48
	.cfi_adjust_cfa_offset -48
	ret
	.cfi_adjust_cfa_offset 48
L276:
	tbz	x21, #0, L286
	orr	x0, xzr, x24
	ldr	lr, [sp, #40]
	add	sp, sp, #48
	.cfi_adjust_cfa_offset -48
	ret
	.cfi_adjust_cfa_offset 48
L286:
	orr	x0, xzr, x21
	tbz	x0, #0, L292
L290:
	adrp	x0, _caml_exn_Not_found@GOTPAGE
	ldr	x0, [x0, _caml_exn_Not_found@GOTPAGEOFF]
	.loc	1	240	17
	add	sp, x26, #0
	ldp	x26, x16, [sp], #16
	br	x16
L292:
	.loc	1	241	13
	ldr	x1, [x0, #0]
	tbz	x1, #0, L299
	.loc	1	241	13
	str	x24, [sp, #32]
	.loc	1	241	13
	ldr	x1, [x0, #16]
	.loc	1	241	13
	ldr	x0, [x0, #8]
	str	x0, [sp, #0]
	str	x1, [sp, #8]
	orr	x0, xzr, x21
	.loc	1	270	21
	bl	_camlStdlib__Map__remove_min_binding_22_164_code
L344:
	.loc	1	270	21
	b	L306
L299:
	orr	x0, xzr, x1
	tbz	x0, #0, L292
	b	L290
L306:
	orr	x3, xzr, x0
	ldr	x0, [sp, #32]
	ldr	x1, [sp, #0]
	ldr	x2, [sp, #8]
	.loc	1	270	10
	ldr	lr, [sp, #40]
	add	sp, sp, #48
	.cfi_adjust_cfa_offset -48
	b	_camlStdlib__Map__bal_4_146_code
	.cfi_adjust_cfa_offset 48
L311:
	subs	xzr, x0, #1
	b.ge	L322
	str	x23, [sp, #24]
	str	x22, [sp, #16]
	str	x21, [sp, #8]
	str	x20, [sp, #0]
	orr	x0, xzr, x19
	orr	x1, xzr, x24
	str	x24, [sp, #32]
	.loc	1	279	21
	bl	_camlString_map_equal_content__remove_24_36_code
L345:
	ldr	x4, [sp, #0]
	ldr	x3, [sp, #8]
	ldr	x2, [sp, #16]
	ldr	x1, [sp, #24]
	ldr	x5, [sp, #32]
	subs	xzr, x5, x0
	b.ne	L318
	orr	x0, xzr, x4
	ldr	lr, [sp, #40]
	add	sp, sp, #48
	.cfi_adjust_cfa_offset -48
	ret
	.cfi_adjust_cfa_offset 48
L318:
	.loc	1	279	58
	ldr	lr, [sp, #40]
	add	sp, sp, #48
	.cfi_adjust_cfa_offset -48
	b	_camlStdlib__Map__bal_4_146_code
	.cfi_adjust_cfa_offset 48
L322:
	str	x24, [sp, #32]
	str	x23, [sp, #24]
	str	x22, [sp, #16]
	str	x20, [sp, #0]
	orr	x0, xzr, x19
	orr	x1, xzr, x21
	str	x21, [sp, #8]
	.loc	1	281	21
	bl	_camlString_map_equal_content__remove_24_36_code
L346:
	orr	x3, xzr, x0
	ldr	x4, [sp, #0]
	ldr	x5, [sp, #8]
	ldr	x2, [sp, #16]
	ldr	x1, [sp, #24]
	ldr	x0, [sp, #32]
	subs	xzr, x5, x3
	b.ne	L327
	orr	x0, xzr, x4
	ldr	lr, [sp, #40]
	add	sp, sp, #48
	.cfi_adjust_cfa_offset -48
	ret
	.cfi_adjust_cfa_offset 48
L327:
	.loc	1	281	58
	ldr	lr, [sp, #40]
	add	sp, sp, #48
	.cfi_adjust_cfa_offset -48
	b	_camlStdlib__Map__bal_4_146_code
	.cfi_adjust_cfa_offset 48
L342:
	movz	x16, #48
	stp	x16, lr, [sp, #-16]!
	bl	_caml_call_realloc_stack
	ldp	x16, lr, [sp], #16
	b	L343
	.cfi_endproc
	.text
	.align	3
	.globl	_camlString_map_equal_content__update_25_37_code
_camlString_map_equal_content__update_25_37_code:
L_camlString_map_equal_content__update_25_37_code:
	.loc	1	283	19
	.cfi_startproc
	sub	sp, sp, #64
	.cfi_adjust_cfa_offset 64
	.cfi_offset 30, -8
	str	lr, [sp, #56]
	ldr	x16, [x28, #40]
	add	x16, x16, #424
	subs	xzr, sp, x16
	b.cc	L467
L468:
	orr	x19, xzr, x0
	orr	x20, xzr, x1
	orr	x21, xzr, x2
	tbz	x21, #0, L361
	str	x19, [sp, #0]
	orr	x0, xzr, #1
	.loc	1	285	22
	ldr	x2, [x20, #0]
	orr	x1, xzr, x20
	.loc	1	285	22
	blr	x2
L469:
	orr	x1, xzr, x0
	ldr	x3, [sp, #0]
	tbz	x1, #0, L356
	orr	x0, xzr, #1
	ldr	lr, [sp, #56]
	add	sp, sp, #64
	.cfi_adjust_cfa_offset -64
	ret
	.cfi_adjust_cfa_offset 64
L356:
	.loc	1	287	29
	ldr	x16, [x28, #0]
	sub	x27, x27, #48
	subs	xzr, x27, x16
	b.cc	L472
L471:
	add	x0, x27, #8
	movz	x2, #5120, lsl #0
	.loc	1	287	29
	str	x2, [x0, #-8]
	orr	x2, xzr, #1
	.loc	1	287	29
	str	x2, [x0, #0]
	.loc	1	287	29
	str	x3, [x0, #8]
	.loc	1	287	12
	ldr	x1, [x1, #0]
	.loc	1	287	29
	str	x1, [x0, #16]
	orr	x1, xzr, #1
	.loc	1	287	29
	str	x1, [x0, #24]
	orr	x1, xzr, #3
	.loc	1	287	29
	str	x1, [x0, #32]
	ldr	lr, [sp, #56]
	add	sp, sp, #64
	.cfi_adjust_cfa_offset -64
	ret
	.cfi_adjust_cfa_offset 64
L361:
	.loc	1	289	13
	ldr	x22, [x21, #24]
	.loc	1	289	13
	ldr	x23, [x21, #16]
	.loc	1	289	13
	ldr	x24, [x21, #8]
	.loc	1	289	13
	ldr	x25, [x21, #0]
	orr	x0, xzr, x19
	orr	x1, xzr, x24
	.loc	2	14	21
	add	fp, sp, #0
	.cfi_remember_state
	.cfi_def_cfa_register %29
	ldr	x16, [x28, #104]
	add	sp, x16, #0
	bl	_caml_string_compare
	add	sp, fp, #0
	.cfi_restore_state
	subs	xzr, x0, #1
	b.ne	L423
	.loc	1	292	20
	str	x25, [sp, #32]
	.loc	1	292	20
	str	x22, [sp, #16]
	.loc	1	292	20
	str	x21, [sp, #8]
	.loc	1	292	20
	str	x19, [sp, #0]
	.loc	1	292	20
	ldr	x16, [x28, #0]
	sub	x27, x27, #16
	subs	xzr, x27, x16
	b.cc	L475
L474:
	add	x0, x27, #8
	orr	x1, xzr, #1024
	.loc	1	292	20
	str	x1, [x0, #-8]
	.loc	1	292	20
	str	x23, [x0, #0]
	.loc	1	292	20
	str	x23, [sp, #24]
	.loc	1	292	18
	ldr	x2, [x20, #0]
	orr	x1, xzr, x20
	.loc	1	292	18
	blr	x2
L476:
	ldr	x6, [sp, #0]
	ldr	x4, [sp, #8]
	ldr	x1, [sp, #16]
	ldr	x5, [sp, #24]
	ldr	x2, [sp, #32]
	tbz	x0, #0, L412
	tbz	x2, #0, L377
	orr	x0, xzr, x1
	ldr	lr, [sp, #56]
	add	sp, sp, #64
	.cfi_adjust_cfa_offset -64
	ret
	.cfi_adjust_cfa_offset 64
L377:
	tbz	x1, #0, L387
	orr	x0, xzr, x2
	ldr	lr, [sp, #56]
	add	sp, sp, #64
	.cfi_adjust_cfa_offset -64
	ret
	.cfi_adjust_cfa_offset 64
L387:
	orr	x0, xzr, x1
	tbz	x0, #0, L393
L391:
	adrp	x0, _caml_exn_Not_found@GOTPAGE
	ldr	x0, [x0, _caml_exn_Not_found@GOTPAGEOFF]
	.loc	1	240	17
	add	sp, x26, #0
	ldp	x26, x16, [sp], #16
	br	x16
L393:
	.loc	1	241	13
	ldr	x2, [x0, #0]
	tbz	x2, #0, L400
	.loc	1	241	13
	ldr	x2, [x0, #8]
	.loc	1	241	13
	ldr	x0, [x0, #16]
	str	x0, [sp, #0]
	str	x2, [sp, #40]
	orr	x0, xzr, x1
	.loc	1	270	21
	bl	_camlStdlib__Map__remove_min_binding_22_164_code
L477:
	.loc	1	270	21
	b	L407
L400:
	orr	x0, xzr, x2
	tbz	x0, #0, L393
	b	L391
L407:
	orr	x3, xzr, x0
	ldr	x0, [sp, #32]
	ldr	x1, [sp, #40]
	ldr	x2, [sp, #0]
	.loc	1	270	10
	ldr	lr, [sp, #56]
	add	sp, sp, #64
	.cfi_adjust_cfa_offset -64
	b	_camlStdlib__Map__bal_4_146_code
	.cfi_adjust_cfa_offset 64
L412:
	.loc	1	294	14
	ldr	x3, [x0, #0]
	subs	xzr, x5, x3
	b.ne	L417
	orr	x0, xzr, x4
	ldr	lr, [sp, #56]
	add	sp, sp, #64
	.cfi_adjust_cfa_offset -64
	ret
	.cfi_adjust_cfa_offset 64
L417:
	.loc	1	295	45
	ldr	x16, [x28, #0]
	sub	x27, x27, #48
	subs	xzr, x27, x16
	b.cc	L480
L479:
	add	x0, x27, #8
	movz	x5, #5120, lsl #0
	.loc	1	295	45
	str	x5, [x0, #-8]
	.loc	1	295	45
	str	x2, [x0, #0]
	.loc	1	295	45
	str	x6, [x0, #8]
	.loc	1	295	45
	str	x3, [x0, #16]
	.loc	1	295	45
	str	x1, [x0, #24]
	.loc	1	289	13
	ldr	x1, [x4, #32]
	.loc	1	295	45
	str	x1, [x0, #32]
	ldr	lr, [sp, #56]
	add	sp, sp, #64
	.cfi_adjust_cfa_offset -64
	ret
	.cfi_adjust_cfa_offset 64
L423:
	subs	xzr, x0, #1
	b.ge	L434
	str	x24, [sp, #0]
	str	x23, [sp, #24]
	str	x22, [sp, #16]
	str	x21, [sp, #8]
	orr	x0, xzr, x19
	orr	x1, xzr, x20
	orr	x2, xzr, x25
	str	x25, [sp, #32]
	.loc	1	297	21
	bl	_camlString_map_equal_content__update_25_37_code
L481:
	ldr	x4, [sp, #8]
	ldr	x3, [sp, #16]
	ldr	x2, [sp, #24]
	ldr	x1, [sp, #0]
	ldr	x5, [sp, #32]
	subs	xzr, x5, x0
	b.ne	L430
	orr	x0, xzr, x4
	ldr	lr, [sp, #56]
	add	sp, sp, #64
	.cfi_adjust_cfa_offset -64
	ret
	.cfi_adjust_cfa_offset 64
L430:
	.loc	1	298	35
	ldr	lr, [sp, #56]
	add	sp, sp, #64
	.cfi_adjust_cfa_offset -64
	b	_camlStdlib__Map__bal_4_146_code
	.cfi_adjust_cfa_offset 64
L434:
	str	x25, [sp, #32]
	str	x24, [sp, #0]
	str	x23, [sp, #24]
	str	x21, [sp, #8]
	orr	x0, xzr, x19
	orr	x1, xzr, x20
	orr	x2, xzr, x22
	str	x22, [sp, #16]
	.loc	1	300	21
	bl	_camlString_map_equal_content__update_25_37_code
L482:
	orr	x3, xzr, x0
	ldr	x4, [sp, #8]
	ldr	x5, [sp, #16]
	ldr	x2, [sp, #24]
	ldr	x1, [sp, #0]
	ldr	x0, [sp, #32]
	subs	xzr, x5, x3
	b.ne	L439
	orr	x0, xzr, x4
	ldr	lr, [sp, #56]
	add	sp, sp, #64
	.cfi_adjust_cfa_offset -64
	ret
	.cfi_adjust_cfa_offset 64
L439:
	.loc	1	301	35
	ldr	lr, [sp, #56]
	add	sp, sp, #64
	.cfi_adjust_cfa_offset -64
	b	_camlStdlib__Map__bal_4_146_code
	.cfi_adjust_cfa_offset 64
L480:
	bl	_caml_call_gc
L478:
	b	L479
L475:
	bl	_caml_call_gc
L473:
	b	L474
L472:
	bl	_caml_call_gc
L470:
	b	L471
L467:
	movz	x16, #64
	stp	x16, lr, [sp, #-16]!
	bl	_caml_call_realloc_stack
	ldp	x16, lr, [sp], #16
	b	L468
	.cfi_endproc
	.text
	.align	3
	.globl	_camlString_map_equal_content__add_to_list_26_38_code
_camlString_map_equal_content__add_to_list_26_38_code:
L_camlString_map_equal_content__add_to_list_26_38_code:
	.loc	1	303	20
	.cfi_startproc
	sub	sp, sp, #16
	.cfi_adjust_cfa_offset 16
	.cfi_offset 30, -8
	str	lr, [sp, #8]
	orr	x3, xzr, x1
	.loc	1	304	16
	ldr	x16, [x28, #0]
	sub	x27, x27, #32
	subs	xzr, x27, x16
	b.cc	L493
L492:
	add	x1, x27, #8
	movz	x4, #3319, lsl #0
	.loc	1	304	16
	str	x4, [x1, #-8]
	adrp	x4, _camlString_map_equal_content__add_27_39_code@GOTPAGE
	ldr	x4, [x4, _camlString_map_equal_content__add_27_39_code@GOTPAGEOFF]
	.loc	1	304	16
	str	x4, [x1, #0]
	movz	x4, #5, lsl #0
	movk	x4, #384, lsl #48
	.loc	1	304	16
	str	x4, [x1, #8]
	.loc	1	304	16
	str	x3, [x1, #16]
	.loc	1	305	6
	ldr	lr, [sp, #8]
	add	sp, sp, #16
	.cfi_adjust_cfa_offset -16
	b	_camlString_map_equal_content__update_25_37_code
	.cfi_adjust_cfa_offset 16
L493:
	bl	_caml_call_gc
L491:
	b	L492
	.cfi_endproc
	.text
	.align	3
	.globl	_camlString_map_equal_content__add_27_39_code
_camlString_map_equal_content__add_27_39_code:
L_camlString_map_equal_content__add_27_39_code:
	.loc	1	304	16
	.cfi_startproc
	sub	sp, sp, #16
	.cfi_adjust_cfa_offset 16
	.cfi_offset 30, -8
	str	lr, [sp, #8]
	tbz	x0, #0, L502
	.loc	1	304	38
	ldr	x16, [x28, #0]
	sub	x27, x27, #40
	subs	xzr, x27, x16
	b.cc	L517
L516:
	add	x2, x27, #8
	.loc	1	304	38
	add	x2, x2, #16
	orr	x0, xzr, #2048
	.loc	1	304	38
	str	x0, [x2, #-8]
	ldr	x0, [x1, #16]
	.loc	1	304	38
	str	x0, [x2, #0]
	orr	x0, xzr, #1
	.loc	1	304	38
	str	x0, [x2, #8]
	.loc	1	304	33
	sub	x0, x2, #16
	orr	x1, xzr, #1024
	.loc	1	304	33
	str	x1, [x0, #-8]
	.loc	1	304	33
	str	x2, [x0, #0]
	ldr	lr, [sp, #8]
	add	sp, sp, #16
	.cfi_adjust_cfa_offset -16
	ret
	.cfi_adjust_cfa_offset 16
L502:
	.loc	1	304	62
	ldr	x16, [x28, #0]
	sub	x27, x27, #40
	subs	xzr, x27, x16
	b.cc	L520
L519:
	add	x2, x27, #8
	.loc	1	304	62
	add	x2, x2, #16
	orr	x3, xzr, #2048
	.loc	1	304	62
	str	x3, [x2, #-8]
	ldr	x1, [x1, #16]
	.loc	1	304	62
	str	x1, [x2, #0]
	.loc	1	304	47
	ldr	x0, [x0, #0]
	.loc	1	304	62
	str	x0, [x2, #8]
	.loc	1	304	57
	sub	x0, x2, #16
	orr	x1, xzr, #1024
	.loc	1	304	57
	str	x1, [x0, #-8]
	.loc	1	304	57
	str	x2, [x0, #0]
	ldr	lr, [sp, #8]
	add	sp, sp, #16
	.cfi_adjust_cfa_offset -16
	ret
	.cfi_adjust_cfa_offset 16
L520:
	bl	_caml_call_gc
L518:
	b	L519
L517:
	bl	_caml_call_gc
L515:
	b	L516
	.cfi_endproc
	.text
	.align	3
	.globl	_camlString_map_equal_content__split_39_40_code
_camlString_map_equal_content__split_39_40_code:
L_camlString_map_equal_content__split_39_40_code:
	.loc	1	392	18
	.cfi_startproc
	sub	sp, sp, #48
	.cfi_adjust_cfa_offset 48
	.cfi_offset 30, -8
	str	lr, [sp, #40]
	orr	x19, xzr, x0
	tbz	x1, #0, L526
	adrp	x0, _camlStdlib__Map__const_block821@GOTPAGE
	ldr	x0, [x0, _camlStdlib__Map__const_block821@GOTPAGEOFF]
	ldr	lr, [sp, #40]
	add	sp, sp, #48
	.cfi_adjust_cfa_offset -48
	ret
	.cfi_adjust_cfa_offset 48
L526:
	.loc	1	395	13
	ldr	x20, [x1, #24]
	.loc	1	395	13
	ldr	x21, [x1, #16]
	.loc	1	395	13
	ldr	x22, [x1, #8]
	.loc	1	395	13
	ldr	x23, [x1, #0]
	orr	x0, xzr, x19
	orr	x1, xzr, x22
	.loc	2	14	21
	add	fp, sp, #0
	.cfi_remember_state
	.cfi_def_cfa_register %29
	ldr	x16, [x28, #104]
	add	sp, x16, #0
	bl	_caml_string_compare
	add	sp, fp, #0
	.cfi_restore_state
	subs	xzr, x0, #1
	b.ne	L537
	.loc	1	397	28
	ldr	x16, [x28, #0]
	sub	x27, x27, #48
	subs	xzr, x27, x16
	b.cc	L579
L578:
	add	x1, x27, #8
	.loc	1	397	28
	add	x1, x1, #32
	orr	x0, xzr, #1024
	.loc	1	397	28
	str	x0, [x1, #-8]
	.loc	1	397	28
	str	x21, [x1, #0]
	.loc	1	397	24
	sub	x0, x1, #32
	orr	x2, xzr, #3072
	.loc	1	397	24
	str	x2, [x0, #-8]
	.loc	1	397	24
	str	x23, [x0, #0]
	.loc	1	397	24
	str	x1, [x0, #8]
	.loc	1	397	24
	str	x20, [x0, #16]
	ldr	lr, [sp, #40]
	add	sp, sp, #48
	.cfi_adjust_cfa_offset -48
	ret
	.cfi_adjust_cfa_offset 48
L537:
	ldr	x16, [x28, #40]
	add	x16, x16, #408
	subs	xzr, sp, x16
	b.cc	L580
L581:
	subs	xzr, x0, #1
	b.ge	L547
	str	x22, [sp, #16]
	str	x21, [sp, #8]
	str	x20, [sp, #0]
	orr	x0, xzr, x19
	orr	x1, xzr, x23
	.loc	1	399	33
	bl	_camlString_map_equal_content__split_39_40_code
L582:
	orr	x1, xzr, x0
	.loc	1	399	16
	ldr	x0, [x1, #16]
	.loc	1	399	16
	str	x1, [sp, #24]
	ldr	x1, [sp, #16]
	ldr	x2, [sp, #8]
	ldr	x3, [sp, #0]
	.loc	1	399	57
	bl	_camlStdlib__Map__join_36_178_code
L583:
	orr	x1, xzr, x0
	.loc	1	399	46
	ldr	x16, [x28, #0]
	sub	x27, x27, #32
	subs	xzr, x27, x16
	b.cc	L586
L585:
	add	x0, x27, #8
	orr	x2, xzr, #3072
	.loc	1	399	46
	str	x2, [x0, #-8]
	.loc	1	399	16
	ldr	x3, [sp, #24]
	.loc	1	399	16
	ldr	x2, [x3, #0]
	.loc	1	399	46
	str	x2, [x0, #0]
	.loc	1	399	16
	ldr	x2, [x3, #8]
	.loc	1	399	46
	str	x2, [x0, #8]
	.loc	1	399	46
	str	x1, [x0, #16]
	ldr	lr, [sp, #40]
	add	sp, sp, #48
	.cfi_adjust_cfa_offset -48
	ret
	.cfi_adjust_cfa_offset 48
L547:
	str	x23, [sp, #0]
	str	x22, [sp, #16]
	str	x21, [sp, #8]
	orr	x0, xzr, x19
	orr	x1, xzr, x20
	.loc	1	401	33
	bl	_camlString_map_equal_content__split_39_40_code
L587:
	.loc	1	401	16
	ldr	x3, [x0, #0]
	.loc	1	401	16
	str	x0, [sp, #24]
	ldr	x0, [sp, #0]
	ldr	x1, [sp, #16]
	ldr	x2, [sp, #8]
	.loc	1	401	47
	bl	_camlStdlib__Map__join_36_178_code
L588:
	orr	x1, xzr, x0
	.loc	1	401	46
	ldr	x16, [x28, #0]
	sub	x27, x27, #32
	subs	xzr, x27, x16
	b.cc	L591
L590:
	add	x0, x27, #8
	orr	x2, xzr, #3072
	.loc	1	401	46
	str	x2, [x0, #-8]
	.loc	1	401	46
	str	x1, [x0, #0]
	.loc	1	401	16
	ldr	x2, [sp, #24]
	.loc	1	401	16
	ldr	x1, [x2, #8]
	.loc	1	401	46
	str	x1, [x0, #8]
	.loc	1	401	16
	ldr	x1, [x2, #16]
	.loc	1	401	46
	str	x1, [x0, #16]
	ldr	lr, [sp, #40]
	add	sp, sp, #48
	.cfi_adjust_cfa_offset -48
	ret
	.cfi_adjust_cfa_offset 48
L591:
	bl	_caml_call_gc
L589:
	b	L590
L586:
	bl	_caml_call_gc
L584:
	b	L585
L579:
	bl	_caml_call_gc
L577:
	b	L578
L580:
	movz	x16, #48
	stp	x16, lr, [sp, #-16]!
	bl	_caml_call_realloc_stack
	ldp	x16, lr, [sp], #16
	b	L581
	.cfi_endproc
	.text
	.align	3
	.globl	_camlString_map_equal_content__merge_40_41_code
_camlString_map_equal_content__merge_40_41_code:
L_camlString_map_equal_content__merge_40_41_code:
	.loc	1	403	18
	.cfi_startproc
	sub	sp, sp, #64
	.cfi_adjust_cfa_offset 64
	.cfi_offset 30, -8
	str	lr, [sp, #56]
	ldr	x16, [x28, #40]
	add	x16, x16, #424
	subs	xzr, sp, x16
	b.cc	L776
L777:
	orr	x3, xzr, x0
	tbz	x1, #0, L605
	tbz	x2, #0, L682
	orr	x0, xzr, #1
	ldr	lr, [sp, #56]
	add	sp, sp, #64
	.cfi_adjust_cfa_offset -64
	ret
	.cfi_adjust_cfa_offset 64
L605:
	.loc	1	406	14
	ldr	x0, [x1, #8]
	tbz	x2, #0, L613
	orr	x4, xzr, #1
	b	L617
L613:
	.loc	1	88	13
	ldr	x4, [x2, #32]
L617:
	.loc	1	406	14
	ldr	x5, [x1, #32]
	subs	xzr, x5, x4
	b.lt	L682
	str	x1, [sp, #8]
	str	x3, [sp, #0]
	str	x0, [sp, #16]
	orr	x1, xzr, x2
	.loc	1	407	29
	bl	_camlString_map_equal_content__split_39_40_code
L778:
	.loc	1	407	14
	ldr	x2, [x0, #16]
	.loc	1	407	14
	str	x0, [sp, #24]
	.loc	1	406	14
	ldr	x0, [sp, #8]
	.loc	1	406	14
	ldr	x1, [x0, #24]
	ldr	x0, [sp, #0]
	.loc	1	408	64
	bl	_camlString_map_equal_content__merge_40_41_code
L779:
	str	x0, [sp, #32]
	.loc	1	408	50
	ldr	x16, [x28, #0]
	sub	x27, x27, #16
	subs	xzr, x27, x16
	b.cc	L782
L781:
	add	x1, x27, #8
	orr	x0, xzr, #1024
	.loc	1	408	50
	str	x0, [x1, #-8]
	.loc	1	406	14
	ldr	x0, [sp, #8]
	.loc	1	406	14
	ldr	x0, [x0, #16]
	.loc	1	408	50
	str	x0, [x1, #0]
	.loc	1	407	14
	ldr	x0, [sp, #24]
	.loc	1	407	14
	ldr	x2, [x0, #8]
	ldr	x0, [sp, #16]
	ldr	x3, [sp, #0]
	.loc	1	408	44
	bl	_caml_apply3
L783:
	str	x0, [sp, #40]
	.loc	1	407	14
	ldr	x0, [sp, #24]
	.loc	1	407	14
	ldr	x2, [x0, #0]
	.loc	1	406	14
	ldr	x0, [sp, #8]
	.loc	1	406	14
	ldr	x1, [x0, #0]
	ldr	x0, [sp, #0]
	.loc	1	408	25
	bl	_camlString_map_equal_content__merge_40_41_code
L784:
	ldr	x1, [sp, #16]
	ldr	x3, [sp, #32]
	ldr	x2, [sp, #40]
	tbz	x2, #0, L672
	tbz	x0, #0, L637
	orr	x0, xzr, x3
	ldr	lr, [sp, #56]
	add	sp, sp, #64
	.cfi_adjust_cfa_offset -64
	ret
	.cfi_adjust_cfa_offset 64
L637:
	tbz	x3, #0, L647
	ldr	lr, [sp, #56]
	add	sp, sp, #64
	.cfi_adjust_cfa_offset -64
	ret
	.cfi_adjust_cfa_offset 64
L647:
	orr	x1, xzr, x3
	tbz	x1, #0, L653
L651:
	adrp	x0, _caml_exn_Not_found@GOTPAGE
	ldr	x0, [x0, _caml_exn_Not_found@GOTPAGEOFF]
	.loc	1	240	17
	add	sp, x26, #0
	ldp	x26, x16, [sp], #16
	br	x16
L653:
	.loc	1	241	13
	ldr	x2, [x1, #0]
	tbz	x2, #0, L660
	.loc	1	241	13
	str	x0, [sp, #8]
	.loc	1	241	13
	ldr	x2, [x1, #8]
	.loc	1	241	13
	ldr	x0, [x1, #16]
	str	x0, [sp, #16]
	str	x2, [sp, #24]
	orr	x0, xzr, x3
	.loc	1	385	22
	bl	_camlStdlib__Map__remove_min_binding_22_164_code
L785:
	.loc	1	385	22
	b	L667
L660:
	orr	x1, xzr, x2
	tbz	x1, #0, L653
	b	L651
L667:
	orr	x3, xzr, x0
	ldr	x0, [sp, #8]
	ldr	x1, [sp, #24]
	ldr	x2, [sp, #16]
	.loc	1	385	10
	ldr	lr, [sp, #56]
	add	sp, sp, #64
	.cfi_adjust_cfa_offset -64
	b	_camlStdlib__Map__join_36_178_code
	.cfi_adjust_cfa_offset 64
L672:
	.loc	1	389	8
	ldr	x2, [x2, #0]
	.loc	1	389	18
	ldr	lr, [sp, #56]
	add	sp, sp, #64
	.cfi_adjust_cfa_offset -64
	b	_camlStdlib__Map__join_36_178_code
	.cfi_adjust_cfa_offset 64
L682:
	tbz	x2, #0, L686
	adrp	x0, _camlStdlib__Map__Pmakeblock903@GOTPAGE
	ldr	x0, [x0, _camlStdlib__Map__Pmakeblock903@GOTPAGEOFF]
	.loc	1	413	10
	add	sp, x26, #0
	ldp	x26, x16, [sp], #16
	br	x16
L686:
	.loc	1	409	17
	str	x3, [sp, #0]
	.loc	1	409	17
	ldr	x0, [x2, #8]
	.loc	1	409	17
	str	x2, [sp, #8]
	str	x0, [sp, #16]
	.loc	1	410	29
	bl	_camlString_map_equal_content__split_39_40_code
L786:
	.loc	1	409	17
	ldr	x1, [sp, #8]
	.loc	1	409	17
	ldr	x2, [x1, #24]
	.loc	1	410	14
	ldr	x1, [x0, #16]
	.loc	1	410	14
	str	x0, [sp, #24]
	ldr	x0, [sp, #0]
	.loc	1	411	64
	bl	_camlString_map_equal_content__merge_40_41_code
L787:
	str	x0, [sp, #32]
	.loc	1	411	53
	ldr	x16, [x28, #0]
	sub	x27, x27, #16
	subs	xzr, x27, x16
	b.cc	L790
L789:
	add	x2, x27, #8
	orr	x0, xzr, #1024
	.loc	1	411	53
	str	x0, [x2, #-8]
	.loc	1	409	17
	ldr	x0, [sp, #8]
	.loc	1	409	17
	ldr	x0, [x0, #16]
	.loc	1	411	53
	str	x0, [x2, #0]
	.loc	1	410	14
	ldr	x0, [sp, #24]
	.loc	1	410	14
	ldr	x1, [x0, #8]
	ldr	x0, [sp, #16]
	ldr	x3, [sp, #0]
	.loc	1	411	44
	bl	_caml_apply3
L791:
	str	x0, [sp, #40]
	.loc	1	409	17
	ldr	x0, [sp, #8]
	.loc	1	409	17
	ldr	x2, [x0, #0]
	.loc	1	410	14
	ldr	x0, [sp, #24]
	.loc	1	410	14
	ldr	x1, [x0, #0]
	ldr	x0, [sp, #0]
	.loc	1	411	25
	bl	_camlString_map_equal_content__merge_40_41_code
L792:
	ldr	x1, [sp, #16]
	ldr	x3, [sp, #32]
	ldr	x2, [sp, #40]
	tbz	x2, #0, L739
	tbz	x0, #0, L704
	orr	x0, xzr, x3
	ldr	lr, [sp, #56]
	add	sp, sp, #64
	.cfi_adjust_cfa_offset -64
	ret
	.cfi_adjust_cfa_offset 64
L704:
	tbz	x3, #0, L714
	ldr	lr, [sp, #56]
	add	sp, sp, #64
	.cfi_adjust_cfa_offset -64
	ret
	.cfi_adjust_cfa_offset 64
L714:
	orr	x1, xzr, x3
	tbz	x1, #0, L720
L718:
	adrp	x0, _caml_exn_Not_found@GOTPAGE
	ldr	x0, [x0, _caml_exn_Not_found@GOTPAGEOFF]
	.loc	1	240	17
	add	sp, x26, #0
	ldp	x26, x16, [sp], #16
	br	x16
L720:
	.loc	1	241	13
	ldr	x2, [x1, #0]
	tbz	x2, #0, L727
	.loc	1	241	13
	str	x0, [sp, #0]
	.loc	1	241	13
	ldr	x2, [x1, #16]
	.loc	1	241	13
	ldr	x0, [x1, #8]
	str	x0, [sp, #8]
	str	x2, [sp, #16]
	orr	x0, xzr, x3
	.loc	1	385	22
	bl	_camlStdlib__Map__remove_min_binding_22_164_code
L793:
	.loc	1	385	22
	b	L734
L727:
	orr	x1, xzr, x2
	tbz	x1, #0, L720
	b	L718
L734:
	orr	x3, xzr, x0
	ldr	x0, [sp, #0]
	ldr	x1, [sp, #8]
	ldr	x2, [sp, #16]
	.loc	1	385	10
	ldr	lr, [sp, #56]
	add	sp, sp, #64
	.cfi_adjust_cfa_offset -64
	b	_camlStdlib__Map__join_36_178_code
	.cfi_adjust_cfa_offset 64
L739:
	.loc	1	389	8
	ldr	x2, [x2, #0]
	.loc	1	389	18
	ldr	lr, [sp, #56]
	add	sp, sp, #64
	.cfi_adjust_cfa_offset -64
	b	_camlStdlib__Map__join_36_178_code
	.cfi_adjust_cfa_offset 64
L790:
	bl	_caml_call_gc
L788:
	b	L789
L782:
	bl	_caml_call_gc
L780:
	b	L781
L776:
	movz	x16, #64
	stp	x16, lr, [sp, #-16]!
	bl	_caml_call_realloc_stack
	ldp	x16, lr, [sp], #16
	b	L777
	.cfi_endproc
	.text
	.align	3
	.globl	_camlString_map_equal_content__union_41_42_code
_camlString_map_equal_content__union_41_42_code:
L_camlString_map_equal_content__union_41_42_code:
	.loc	1	415	18
	.cfi_startproc
	sub	sp, sp, #64
	.cfi_adjust_cfa_offset 64
	.cfi_offset 30, -8
	str	lr, [sp, #56]
	orr	x3, xzr, x0
	tbz	x1, #0, L799
	orr	x0, xzr, x2
	ldr	lr, [sp, #56]
	add	sp, sp, #64
	.cfi_adjust_cfa_offset -64
	ret
	.cfi_adjust_cfa_offset 64
L799:
	tbz	x2, #0, L803
	orr	x0, xzr, x1
	ldr	lr, [sp, #56]
	add	sp, sp, #64
	.cfi_adjust_cfa_offset -64
	ret
	.cfi_adjust_cfa_offset 64
L803:
	ldr	x16, [x28, #40]
	add	x16, x16, #424
	subs	xzr, sp, x16
	b.cc	L960
L961:
	.loc	1	419	14
	ldr	x4, [x2, #16]
	.loc	1	419	14
	ldr	x0, [x2, #8]
	.loc	1	418	14
	ldr	x5, [x1, #16]
	.loc	1	418	14
	ldr	x6, [x1, #8]
	.loc	1	419	14
	ldr	x7, [x2, #32]
	.loc	1	418	14
	ldr	x8, [x1, #32]
	subs	xzr, x8, x7
	b.lt	L873
	str	x5, [sp, #24]
	str	x1, [sp, #8]
	str	x3, [sp, #0]
	orr	x0, xzr, x6
	str	x6, [sp, #32]
	orr	x1, xzr, x2
	.loc	1	421	31
	bl	_camlString_map_equal_content__split_39_40_code
L962:
	.loc	1	421	16
	ldr	x1, [x0, #8]
	str	x1, [sp, #40]
	.loc	1	421	16
	ldr	x2, [x0, #0]
	.loc	1	421	16
	str	x0, [sp, #16]
	.loc	1	418	14
	ldr	x0, [sp, #8]
	.loc	1	418	14
	ldr	x1, [x0, #0]
	ldr	x0, [sp, #0]
	.loc	1	422	20
	bl	_camlString_map_equal_content__union_41_42_code
L963:
	str	x0, [sp, #48]
	.loc	1	421	16
	ldr	x0, [sp, #16]
	.loc	1	421	16
	ldr	x2, [x0, #16]
	.loc	1	418	14
	ldr	x0, [sp, #8]
	.loc	1	418	14
	ldr	x1, [x0, #24]
	ldr	x0, [sp, #0]
	.loc	1	422	42
	bl	_camlString_map_equal_content__union_41_42_code
L964:
	orr	x4, xzr, x0
	ldr	x3, [sp, #0]
	ldr	x5, [sp, #24]
	ldr	x1, [sp, #32]
	ldr	x2, [sp, #40]
	ldr	x0, [sp, #48]
	tbz	x2, #0, L824
	orr	x2, xzr, x5
	orr	x3, xzr, x4
	.loc	1	424	22
	ldr	lr, [sp, #56]
	add	sp, sp, #64
	.cfi_adjust_cfa_offset -64
	b	_camlStdlib__Map__join_36_178_code
	.cfi_adjust_cfa_offset 64
L824:
	.loc	1	425	14
	str	x4, [sp, #8]
	.loc	1	425	14
	ldr	x2, [x2, #0]
	orr	x0, xzr, x1
	orr	x1, xzr, x5
	.loc	1	425	45
	bl	_caml_apply3
L965:
	orr	x2, xzr, x0
	ldr	x1, [sp, #32]
	ldr	x0, [sp, #48]
	ldr	x3, [sp, #8]
	tbz	x2, #0, L867
	tbz	x0, #0, L832
	orr	x0, xzr, x3
	ldr	lr, [sp, #56]
	add	sp, sp, #64
	.cfi_adjust_cfa_offset -64
	ret
	.cfi_adjust_cfa_offset 64
L832:
	tbz	x3, #0, L842
	ldr	lr, [sp, #56]
	add	sp, sp, #64
	.cfi_adjust_cfa_offset -64
	ret
	.cfi_adjust_cfa_offset 64
L842:
	orr	x0, xzr, x3
	tbz	x0, #0, L848
L846:
	adrp	x0, _caml_exn_Not_found@GOTPAGE
	ldr	x0, [x0, _caml_exn_Not_found@GOTPAGEOFF]
	.loc	1	240	17
	add	sp, x26, #0
	ldp	x26, x16, [sp], #16
	br	x16
L848:
	.loc	1	241	13
	ldr	x1, [x0, #0]
	tbz	x1, #0, L855
	.loc	1	241	13
	ldr	x1, [x0, #16]
	.loc	1	241	13
	ldr	x0, [x0, #8]
	str	x0, [sp, #8]
	str	x1, [sp, #16]
	orr	x0, xzr, x3
	.loc	1	385	22
	bl	_camlStdlib__Map__remove_min_binding_22_164_code
L966:
	.loc	1	385	22
	b	L862
L855:
	orr	x0, xzr, x1
	tbz	x0, #0, L848
	b	L846
L862:
	orr	x3, xzr, x0
	ldr	x0, [sp, #48]
	ldr	x1, [sp, #8]
	ldr	x2, [sp, #16]
	.loc	1	385	10
	ldr	lr, [sp, #56]
	add	sp, sp, #64
	.cfi_adjust_cfa_offset -64
	b	_camlStdlib__Map__join_36_178_code
	.cfi_adjust_cfa_offset 64
L867:
	.loc	1	389	8
	ldr	x2, [x2, #0]
	.loc	1	389	18
	ldr	lr, [sp, #56]
	add	sp, sp, #64
	.cfi_adjust_cfa_offset -64
	b	_camlStdlib__Map__join_36_178_code
	.cfi_adjust_cfa_offset 64
L873:
	str	x4, [sp, #24]
	str	x2, [sp, #8]
	str	x3, [sp, #0]
	str	x0, [sp, #32]
	.loc	1	427	31
	bl	_camlString_map_equal_content__split_39_40_code
L967:
	.loc	1	427	16
	ldr	x1, [x0, #8]
	str	x1, [sp, #40]
	.loc	1	419	14
	ldr	x1, [sp, #8]
	.loc	1	419	14
	ldr	x2, [x1, #0]
	.loc	1	427	16
	ldr	x1, [x0, #0]
	.loc	1	427	16
	str	x0, [sp, #16]
	ldr	x0, [sp, #0]
	.loc	1	428	20
	bl	_camlString_map_equal_content__union_41_42_code
L968:
	str	x0, [sp, #48]
	.loc	1	419	14
	ldr	x0, [sp, #8]
	.loc	1	419	14
	ldr	x2, [x0, #24]
	.loc	1	427	16
	ldr	x0, [sp, #16]
	.loc	1	427	16
	ldr	x1, [x0, #16]
	ldr	x0, [sp, #0]
	.loc	1	428	42
	bl	_camlString_map_equal_content__union_41_42_code
L969:
	orr	x4, xzr, x0
	ldr	x3, [sp, #0]
	ldr	x2, [sp, #24]
	ldr	x5, [sp, #32]
	ldr	x1, [sp, #40]
	ldr	x0, [sp, #48]
	tbz	x1, #0, L886
	orr	x1, xzr, x5
	orr	x3, xzr, x4
	.loc	1	430	22
	ldr	lr, [sp, #56]
	add	sp, sp, #64
	.cfi_adjust_cfa_offset -64
	b	_camlStdlib__Map__join_36_178_code
	.cfi_adjust_cfa_offset 64
L886:
	.loc	1	431	14
	str	x4, [sp, #0]
	.loc	1	431	14
	ldr	x1, [x1, #0]
	orr	x0, xzr, x5
	.loc	1	431	45
	bl	_caml_apply3
L970:
	orr	x2, xzr, x0
	ldr	x1, [sp, #32]
	ldr	x0, [sp, #48]
	ldr	x3, [sp, #0]
	tbz	x2, #0, L929
	tbz	x0, #0, L894
	orr	x0, xzr, x3
	ldr	lr, [sp, #56]
	add	sp, sp, #64
	.cfi_adjust_cfa_offset -64
	ret
	.cfi_adjust_cfa_offset 64
L894:
	tbz	x3, #0, L904
	ldr	lr, [sp, #56]
	add	sp, sp, #64
	.cfi_adjust_cfa_offset -64
	ret
	.cfi_adjust_cfa_offset 64
L904:
	orr	x0, xzr, x3
	tbz	x0, #0, L910
L908:
	adrp	x0, _caml_exn_Not_found@GOTPAGE
	ldr	x0, [x0, _caml_exn_Not_found@GOTPAGEOFF]
	.loc	1	240	17
	add	sp, x26, #0
	ldp	x26, x16, [sp], #16
	br	x16
L910:
	.loc	1	241	13
	ldr	x1, [x0, #0]
	tbz	x1, #0, L917
	.loc	1	241	13
	ldr	x1, [x0, #8]
	.loc	1	241	13
	ldr	x0, [x0, #16]
	str	x0, [sp, #0]
	str	x1, [sp, #8]
	orr	x0, xzr, x3
	.loc	1	385	22
	bl	_camlStdlib__Map__remove_min_binding_22_164_code
L971:
	.loc	1	385	22
	b	L924
L917:
	orr	x0, xzr, x1
	tbz	x0, #0, L910
	b	L908
L924:
	orr	x3, xzr, x0
	ldr	x0, [sp, #48]
	ldr	x1, [sp, #8]
	ldr	x2, [sp, #0]
	.loc	1	385	10
	ldr	lr, [sp, #56]
	add	sp, sp, #64
	.cfi_adjust_cfa_offset -64
	b	_camlStdlib__Map__join_36_178_code
	.cfi_adjust_cfa_offset 64
L929:
	.loc	1	389	8
	ldr	x2, [x2, #0]
	.loc	1	389	18
	ldr	lr, [sp, #56]
	add	sp, sp, #64
	.cfi_adjust_cfa_offset -64
	b	_camlStdlib__Map__join_36_178_code
	.cfi_adjust_cfa_offset 64
L960:
	movz	x16, #64
	stp	x16, lr, [sp, #-16]!
	bl	_caml_call_realloc_stack
	ldp	x16, lr, [sp], #16
	b	L961
	.cfi_endproc
	.text
	.align	3
	.globl	_camlString_map_equal_content__compare_46_43_code
_camlString_map_equal_content__compare_46_43_code:
L_camlString_map_equal_content__compare_46_43_code:
	.loc	1	473	16
	.cfi_startproc
	sub	sp, sp, #16
	.cfi_adjust_cfa_offset 16
	.cfi_offset 30, -8
	str	lr, [sp, #8]
	orr	x3, xzr, x1
	orr	x4, xzr, x2
	.loc	1	474	26
	ldr	x16, [x28, #0]
	sub	x27, x27, #48
	subs	xzr, x27, x16
	b.cc	L1032
L1031:
	add	x2, x27, #8
	movz	x1, #5367, lsl #0
	.loc	1	474	26
	str	x1, [x2, #-8]
	adrp	x1, _caml_curry2L2@GOTPAGE
	ldr	x1, [x1, _caml_curry2L2@GOTPAGEOFF]
	.loc	1	474	26
	str	x1, [x2, #0]
	movz	x1, #7, lsl #0
	movk	x1, #640, lsl #48
	.loc	1	474	26
	str	x1, [x2, #8]
	adrp	x1, _camlString_map_equal_content__compare_aux_47_44_code@GOTPAGE
	ldr	x1, [x1, _camlString_map_equal_content__compare_aux_47_44_code@GOTPAGEOFF]
	.loc	1	474	26
	str	x1, [x2, #16]
	adrp	x1, _camlString_map_equal_content__Pmakeblock283@GOTPAGE
	ldr	x1, [x1, _camlString_map_equal_content__Pmakeblock283@GOTPAGEOFF]
	.loc	1	474	26
	str	x1, [x2, #24]
	.loc	1	474	26
	str	x0, [x2, #32]
	orr	x1, xzr, #1
	tbz	x4, #0, L986
L984:
	orr	x0, xzr, #1
	tbz	x3, #0, L1007
	b	L1005
L986:
	.loc	1	471	41
	ldr	x16, [x28, #0]
	sub	x27, x27, #40
	subs	xzr, x27, x16
	b.cc	L1035
L1034:
	add	x0, x27, #8
	orr	x5, xzr, #4096
	.loc	1	471	41
	str	x5, [x0, #-8]
	.loc	1	471	13
	ldr	x5, [x4, #8]
	.loc	1	471	41
	str	x5, [x0, #0]
	.loc	1	471	13
	ldr	x5, [x4, #16]
	.loc	1	471	41
	str	x5, [x0, #8]
	.loc	1	471	13
	ldr	x5, [x4, #24]
	.loc	1	471	41
	str	x5, [x0, #16]
	.loc	1	471	41
	str	x1, [x0, #24]
	orr	x1, xzr, x0
	.loc	1	471	13
	ldr	x4, [x4, #0]
	tbz	x4, #0, L986
	b	L984
L1005:
	.loc	1	485	9
	ldr	lr, [sp, #8]
	add	sp, sp, #16
	.cfi_adjust_cfa_offset -16
	b	_camlString_map_equal_content__compare_aux_47_44_code
	.cfi_adjust_cfa_offset 16
L1007:
	.loc	1	471	41
	ldr	x16, [x28, #0]
	sub	x27, x27, #40
	subs	xzr, x27, x16
	b.cc	L1038
L1037:
	add	x4, x27, #8
	orr	x5, xzr, #4096
	.loc	1	471	41
	str	x5, [x4, #-8]
	.loc	1	471	13
	ldr	x5, [x3, #8]
	.loc	1	471	41
	str	x5, [x4, #0]
	.loc	1	471	13
	ldr	x5, [x3, #16]
	.loc	1	471	41
	str	x5, [x4, #8]
	.loc	1	471	13
	ldr	x5, [x3, #24]
	.loc	1	471	41
	str	x5, [x4, #16]
	.loc	1	471	41
	str	x0, [x4, #24]
	orr	x0, xzr, x4
	.loc	1	471	13
	ldr	x3, [x3, #0]
	tbz	x3, #0, L1007
	b	L1005
L1038:
	bl	_caml_call_gc
L1036:
	b	L1037
L1035:
	bl	_caml_call_gc
L1033:
	b	L1034
L1032:
	bl	_caml_call_gc
L1030:
	b	L1031
	.cfi_endproc
	.text
	.align	3
	.globl	_camlString_map_equal_content__compare_aux_47_44_code
_camlString_map_equal_content__compare_aux_47_44_code:
L_camlString_map_equal_content__compare_aux_47_44_code:
	.loc	1	474	26
	.cfi_startproc
	sub	sp, sp, #32
	.cfi_adjust_cfa_offset 32
	.cfi_offset 30, -8
	str	lr, [sp, #24]
	ldr	x16, [x28, #40]
	add	x16, x16, #392
	subs	xzr, sp, x16
	b.cc	L1138
L1139:
	orr	x19, xzr, x0
	orr	x20, xzr, x1
	orr	x21, xzr, x2
	str	x21, [sp, #0]
	tbz	x19, #0, L1054
	b	L1047
L1045:
	tbz	x19, #0, L1054
L1047:
	tbz	x20, #0, L1051
	orr	x0, xzr, #1
	ldr	lr, [sp, #24]
	add	sp, sp, #32
	.cfi_adjust_cfa_offset -32
	ret
	.cfi_adjust_cfa_offset 32
L1051:
	movn	x0, #0
	ldr	lr, [sp, #24]
	add	sp, sp, #32
	.cfi_adjust_cfa_offset -32
	ret
	.cfi_adjust_cfa_offset 32
L1054:
	tbz	x20, #0, L1058
	orr	x0, xzr, #3
	ldr	lr, [sp, #24]
	add	sp, sp, #32
	.cfi_adjust_cfa_offset -32
	ret
	.cfi_adjust_cfa_offset 32
L1058:
	.loc	1	479	33
	ldr	x1, [x20, #0]
	.loc	1	479	11
	ldr	x0, [x19, #0]
	.loc	2	14	21
	add	fp, sp, #0
	.cfi_remember_state
	.cfi_def_cfa_register %29
	ldr	x16, [x28, #104]
	add	sp, x16, #0
	bl	_caml_string_compare
	add	sp, fp, #0
	.cfi_restore_state
	subs	xzr, x0, #1
	b.eq	L1065
	ldr	lr, [sp, #24]
	add	sp, sp, #32
	.cfi_adjust_cfa_offset -32
	ret
	.cfi_adjust_cfa_offset 32
L1065:
	ldr	x2, [x21, #32]
	.loc	1	479	33
	ldr	x1, [x20, #8]
	.loc	1	479	33
	str	x20, [sp, #16]
	.loc	1	479	11
	ldr	x0, [x19, #8]
	.loc	1	479	11
	str	x19, [sp, #8]
	.loc	1	482	20
	bl	_caml_apply2
L1140:
	ldr	x21, [sp, #0]
	ldr	x19, [sp, #8]
	ldr	x20, [sp, #16]
	subs	xzr, x0, #1
	b.eq	L1076
	ldr	lr, [sp, #24]
	add	sp, sp, #32
	.cfi_adjust_cfa_offset -32
	ret
	.cfi_adjust_cfa_offset 32
L1076:
	.loc	1	479	33
	ldr	x0, [x20, #24]
	.loc	1	479	33
	ldr	x1, [x20, #16]
	orr	x20, xzr, x0
	tbz	x1, #0, L1087
L1085:
	.loc	1	479	11
	ldr	x0, [x19, #24]
	.loc	1	479	11
	ldr	x1, [x19, #16]
	orr	x19, xzr, x0
	tbz	x1, #0, L1110
	b	L1045
L1087:
	.loc	1	471	41
	ldr	x16, [x28, #0]
	sub	x27, x27, #40
	subs	xzr, x27, x16
	b.cc	L1143
L1142:
	add	x0, x27, #8
	orr	x2, xzr, #4096
	.loc	1	471	41
	str	x2, [x0, #-8]
	.loc	1	471	13
	ldr	x2, [x1, #8]
	.loc	1	471	41
	str	x2, [x0, #0]
	.loc	1	471	13
	ldr	x2, [x1, #16]
	.loc	1	471	41
	str	x2, [x0, #8]
	.loc	1	471	13
	ldr	x2, [x1, #24]
	.loc	1	471	41
	str	x2, [x0, #16]
	.loc	1	471	41
	str	x20, [x0, #24]
	orr	x20, xzr, x0
	.loc	1	471	13
	ldr	x1, [x1, #0]
	tbz	x1, #0, L1087
	b	L1085
L1110:
	.loc	1	471	41
	ldr	x16, [x28, #0]
	sub	x27, x27, #40
	subs	xzr, x27, x16
	b.cc	L1146
L1145:
	add	x0, x27, #8
	orr	x2, xzr, #4096
	.loc	1	471	41
	str	x2, [x0, #-8]
	.loc	1	471	13
	ldr	x2, [x1, #8]
	.loc	1	471	41
	str	x2, [x0, #0]
	.loc	1	471	13
	ldr	x2, [x1, #16]
	.loc	1	471	41
	str	x2, [x0, #8]
	.loc	1	471	13
	ldr	x2, [x1, #24]
	.loc	1	471	41
	str	x2, [x0, #16]
	.loc	1	471	41
	str	x19, [x0, #24]
	orr	x19, xzr, x0
	.loc	1	471	13
	ldr	x1, [x1, #0]
	tbz	x1, #0, L1110
	b	L1045
L1146:
	bl	_caml_call_gc
L1144:
	b	L1145
L1143:
	bl	_caml_call_gc
L1141:
	b	L1142
L1138:
	movz	x16, #32
	stp	x16, lr, [sp, #-16]!
	bl	_caml_call_realloc_stack
	ldp	x16, lr, [sp], #16
	b	L1139
	.cfi_endproc
	.text
	.align	3
	.globl	_camlString_map_equal_content__equal_48_45_code
_camlString_map_equal_content__equal_48_45_code:
L_camlString_map_equal_content__equal_48_45_code:
	.loc	1	487	14
	.cfi_startproc
	sub	sp, sp, #16
	.cfi_adjust_cfa_offset 16
	.cfi_offset 30, -8
	str	lr, [sp, #8]
	orr	x3, xzr, x1
	orr	x4, xzr, x2
	.loc	1	488	24
	ldr	x16, [x28, #0]
	sub	x27, x27, #48
	subs	xzr, x27, x16
	b.cc	L1207
L1206:
	add	x2, x27, #8
	movz	x1, #5367, lsl #0
	.loc	1	488	24
	str	x1, [x2, #-8]
	adrp	x1, _caml_curry2L2@GOTPAGE
	ldr	x1, [x1, _caml_curry2L2@GOTPAGEOFF]
	.loc	1	488	24
	str	x1, [x2, #0]
	movz	x1, #7, lsl #0
	movk	x1, #640, lsl #48
	.loc	1	488	24
	str	x1, [x2, #8]
	adrp	x1, _camlString_map_equal_content__equal_aux_49_46_code@GOTPAGE
	ldr	x1, [x1, _camlString_map_equal_content__equal_aux_49_46_code@GOTPAGEOFF]
	.loc	1	488	24
	str	x1, [x2, #16]
	adrp	x1, _camlString_map_equal_content__Pmakeblock283@GOTPAGE
	ldr	x1, [x1, _camlString_map_equal_content__Pmakeblock283@GOTPAGEOFF]
	.loc	1	488	24
	str	x1, [x2, #24]
	.loc	1	488	24
	str	x0, [x2, #32]
	orr	x1, xzr, #1
	tbz	x4, #0, L1161
L1159:
	orr	x0, xzr, #1
	tbz	x3, #0, L1182
	b	L1180
L1161:
	.loc	1	471	41
	ldr	x16, [x28, #0]
	sub	x27, x27, #40
	subs	xzr, x27, x16
	b.cc	L1210
L1209:
	add	x0, x27, #8
	orr	x5, xzr, #4096
	.loc	1	471	41
	str	x5, [x0, #-8]
	.loc	1	471	13
	ldr	x5, [x4, #8]
	.loc	1	471	41
	str	x5, [x0, #0]
	.loc	1	471	13
	ldr	x5, [x4, #16]
	.loc	1	471	41
	str	x5, [x0, #8]
	.loc	1	471	13
	ldr	x5, [x4, #24]
	.loc	1	471	41
	str	x5, [x0, #16]
	.loc	1	471	41
	str	x1, [x0, #24]
	orr	x1, xzr, x0
	.loc	1	471	13
	ldr	x4, [x4, #0]
	tbz	x4, #0, L1161
	b	L1159
L1180:
	.loc	1	496	9
	ldr	lr, [sp, #8]
	add	sp, sp, #16
	.cfi_adjust_cfa_offset -16
	b	_camlString_map_equal_content__equal_aux_49_46_code
	.cfi_adjust_cfa_offset 16
L1182:
	.loc	1	471	41
	ldr	x16, [x28, #0]
	sub	x27, x27, #40
	subs	xzr, x27, x16
	b.cc	L1213
L1212:
	add	x4, x27, #8
	orr	x5, xzr, #4096
	.loc	1	471	41
	str	x5, [x4, #-8]
	.loc	1	471	13
	ldr	x5, [x3, #8]
	.loc	1	471	41
	str	x5, [x4, #0]
	.loc	1	471	13
	ldr	x5, [x3, #16]
	.loc	1	471	41
	str	x5, [x4, #8]
	.loc	1	471	13
	ldr	x5, [x3, #24]
	.loc	1	471	41
	str	x5, [x4, #16]
	.loc	1	471	41
	str	x0, [x4, #24]
	orr	x0, xzr, x4
	.loc	1	471	13
	ldr	x3, [x3, #0]
	tbz	x3, #0, L1182
	b	L1180
L1213:
	bl	_caml_call_gc
L1211:
	b	L1212
L1210:
	bl	_caml_call_gc
L1208:
	b	L1209
L1207:
	bl	_caml_call_gc
L1205:
	b	L1206
	.cfi_endproc
	.text
	.align	3
	.globl	_camlString_map_equal_content__equal_aux_49_46_code
_camlString_map_equal_content__equal_aux_49_46_code:
L_camlString_map_equal_content__equal_aux_49_46_code:
	.loc	1	488	24
	.cfi_startproc
	sub	sp, sp, #32
	.cfi_adjust_cfa_offset 32
	.cfi_offset 30, -8
	str	lr, [sp, #24]
	ldr	x16, [x28, #40]
	add	x16, x16, #392
	subs	xzr, sp, x16
	b.cc	L1311
L1312:
	orr	x19, xzr, x0
	orr	x20, xzr, x1
	orr	x21, xzr, x2
	str	x21, [sp, #0]
	tbz	x19, #0, L1226
	b	L1222
L1220:
	tbz	x19, #0, L1226
L1222:
	.loc	1	490	16
	and	x0, x20, #1
	orr	x1, xzr, #1
	.loc	1	490	16
	add	x0, x1, x0, lsl #1
	ldr	lr, [sp, #24]
	add	sp, sp, #32
	.cfi_adjust_cfa_offset -32
	ret
	.cfi_adjust_cfa_offset 32
L1226:
	tbz	x20, #0, L1230
	orr	x0, xzr, #1
	ldr	lr, [sp, #24]
	add	sp, sp, #32
	.cfi_adjust_cfa_offset -32
	ret
	.cfi_adjust_cfa_offset 32
L1230:
	.loc	1	493	33
	ldr	x1, [x20, #0]
	.loc	1	493	11
	ldr	x0, [x19, #0]
	.loc	2	14	21
	add	fp, sp, #0
	.cfi_remember_state
	.cfi_def_cfa_register %29
	ldr	x16, [x28, #104]
	add	sp, x16, #0
	bl	_caml_string_compare
	add	sp, fp, #0
	.cfi_restore_state
	subs	xzr, x0, #1
	b.ne	L1295
	ldr	x2, [x21, #32]
	.loc	1	493	33
	ldr	x1, [x20, #8]
	.loc	1	493	33
	str	x20, [sp, #16]
	.loc	1	493	11
	ldr	x0, [x19, #8]
	.loc	1	493	11
	str	x19, [sp, #8]
	.loc	1	494	37
	bl	_caml_apply2
L1313:
	sbfm	x0, x0, #1, #63
	ldr	x21, [sp, #0]
	ldr	x19, [sp, #8]
	ldr	x20, [sp, #16]
	cbz	x0, L1292
	.loc	1	493	33
	ldr	x0, [x20, #24]
	.loc	1	493	33
	ldr	x1, [x20, #16]
	orr	x20, xzr, x0
	tbz	x1, #0, L1256
L1254:
	.loc	1	493	11
	ldr	x0, [x19, #24]
	.loc	1	493	11
	ldr	x1, [x19, #16]
	orr	x19, xzr, x0
	tbz	x1, #0, L1279
	b	L1220
L1256:
	.loc	1	471	41
	ldr	x16, [x28, #0]
	sub	x27, x27, #40
	subs	xzr, x27, x16
	b.cc	L1316
L1315:
	add	x0, x27, #8
	orr	x2, xzr, #4096
	.loc	1	471	41
	str	x2, [x0, #-8]
	.loc	1	471	13
	ldr	x2, [x1, #8]
	.loc	1	471	41
	str	x2, [x0, #0]
	.loc	1	471	13
	ldr	x2, [x1, #16]
	.loc	1	471	41
	str	x2, [x0, #8]
	.loc	1	471	13
	ldr	x2, [x1, #24]
	.loc	1	471	41
	str	x2, [x0, #16]
	.loc	1	471	41
	str	x20, [x0, #24]
	orr	x20, xzr, x0
	.loc	1	471	13
	ldr	x1, [x1, #0]
	tbz	x1, #0, L1256
	b	L1254
L1279:
	.loc	1	471	41
	ldr	x16, [x28, #0]
	sub	x27, x27, #40
	subs	xzr, x27, x16
	b.cc	L1319
L1318:
	add	x0, x27, #8
	orr	x2, xzr, #4096
	.loc	1	471	41
	str	x2, [x0, #-8]
	.loc	1	471	13
	ldr	x2, [x1, #8]
	.loc	1	471	41
	str	x2, [x0, #0]
	.loc	1	471	13
	ldr	x2, [x1, #16]
	.loc	1	471	41
	str	x2, [x0, #8]
	.loc	1	471	13
	ldr	x2, [x1, #24]
	.loc	1	471	41
	str	x2, [x0, #16]
	.loc	1	471	41
	str	x19, [x0, #24]
	orr	x19, xzr, x0
	.loc	1	471	13
	ldr	x1, [x1, #0]
	tbz	x1, #0, L1279
	b	L1220
L1292:
	orr	x0, xzr, #1
	ldr	lr, [sp, #24]
	add	sp, sp, #32
	.cfi_adjust_cfa_offset -32
	ret
	.cfi_adjust_cfa_offset 32
L1295:
	orr	x0, xzr, #1
	ldr	lr, [sp, #24]
	add	sp, sp, #32
	.cfi_adjust_cfa_offset -32
	ret
	.cfi_adjust_cfa_offset 32
L1319:
	bl	_caml_call_gc
L1317:
	b	L1318
L1316:
	bl	_caml_call_gc
L1314:
	b	L1315
L1311:
	movz	x16, #32
	stp	x16, lr, [sp, #-16]!
	bl	_caml_call_realloc_stack
	ldp	x16, lr, [sp], #16
	b	L1312
	.cfi_endproc
	.text
	.align	3
	.globl	_camlString_map_equal_content__of_list_53_47_code
_camlString_map_equal_content__of_list_53_47_code:
L_camlString_map_equal_content__of_list_53_47_code:
	.loc	1	514	16
	.cfi_startproc
	sub	sp, sp, #16
	.cfi_adjust_cfa_offset 16
	.cfi_offset 30, -8
	str	lr, [sp, #8]
	ldr	x16, [x28, #40]
	add	x16, x16, #376
	subs	xzr, sp, x16
	b.cc	L1343
L1344:
	orr	x2, xzr, #1
	tbz	x0, #0, L1330
L1328:
	orr	x0, xzr, x2
	ldr	lr, [sp, #8]
	add	sp, sp, #16
	.cfi_adjust_cfa_offset -16
	ret
	.cfi_adjust_cfa_offset 16
L1330:
	.file	3	"list.ml"
	.loc	3	128	4
	ldr	x3, [x0, #0]
	.loc	3	128	4
	str	x0, [sp, #0]
	.loc	1	514	43
	ldr	x1, [x3, #8]
	.loc	1	514	43
	ldr	x0, [x3, #0]
	.loc	1	514	53
	bl	_camlString_map_equal_content__add_6_32_code
L1345:
	orr	x2, xzr, x0
	.loc	3	128	4
	ldr	x0, [sp, #0]
	.loc	3	128	4
	ldr	x0, [x0, #8]
	tbz	x0, #0, L1330
	b	L1328
L1343:
	movz	x16, #16
	stp	x16, lr, [sp, #-16]!
	bl	_caml_call_realloc_stack
	ldp	x16, lr, [sp], #16
	b	L1344
	.cfi_endproc
	.text
	.align	3
	.globl	_camlString_map_equal_content__add_seq_55_48_code
_camlString_map_equal_content__add_seq_55_48_code:
L_camlString_map_equal_content__add_seq_55_48_code:
	.loc	1	516	16
	.cfi_startproc
	sub	sp, sp, #16
	.cfi_adjust_cfa_offset 16
	.cfi_offset 30, -8
	str	lr, [sp, #8]
	ldr	x16, [x28, #40]
	add	x16, x16, #376
	subs	xzr, sp, x16
	b.cc	L1373
L1374:
	orr	x2, xzr, x1
	orr	x1, xzr, x0
L1352:
	str	x2, [sp, #0]
	orr	x0, xzr, #1
	.file	4	"seq.ml"
	.loc	4	71	8
	ldr	x2, [x1, #0]
	.loc	4	71	8
	blr	x2
L1375:
	ldr	x2, [sp, #0]
	tbz	x0, #0, L1358
	orr	x0, xzr, x2
	ldr	lr, [sp, #8]
	add	sp, sp, #16
	.cfi_adjust_cfa_offset -16
	ret
	.cfi_adjust_cfa_offset 16
L1358:
	.loc	4	73	6
	ldr	x3, [x0, #0]
	.loc	4	73	6
	str	x0, [sp, #0]
	.loc	1	517	27
	ldr	x1, [x3, #8]
	.loc	1	517	27
	ldr	x0, [x3, #0]
	.loc	1	517	36
	bl	_camlString_map_equal_content__add_6_32_code
L1376:
	orr	x2, xzr, x0
	.loc	4	73	6
	ldr	x0, [sp, #0]
	.loc	4	73	6
	ldr	x1, [x0, #8]
	b	L1352
L1373:
	movz	x16, #16
	stp	x16, lr, [sp, #-16]!
	bl	_caml_call_realloc_stack
	ldp	x16, lr, [sp], #16
	b	L1374
	.cfi_endproc
	.text
	.align	3
	.globl	_camlString_map_equal_content__of_seq_57_49_code
_camlString_map_equal_content__of_seq_57_49_code:
L_camlString_map_equal_content__of_seq_57_49_code:
	.loc	1	519	15
	.cfi_startproc
	sub	sp, sp, #16
	.cfi_adjust_cfa_offset 16
	.cfi_offset 30, -8
	str	lr, [sp, #8]
	ldr	x16, [x28, #40]
	add	x16, x16, #376
	subs	xzr, sp, x16
	b.cc	L1404
L1405:
	orr	x1, xzr, x0
	orr	x2, xzr, #1
L1383:
	str	x2, [sp, #0]
	orr	x0, xzr, #1
	.loc	4	71	8
	ldr	x2, [x1, #0]
	.loc	4	71	8
	blr	x2
L1406:
	ldr	x2, [sp, #0]
	tbz	x0, #0, L1389
	orr	x0, xzr, x2
	ldr	lr, [sp, #8]
	add	sp, sp, #16
	.cfi_adjust_cfa_offset -16
	ret
	.cfi_adjust_cfa_offset 16
L1389:
	.loc	4	73	6
	ldr	x3, [x0, #0]
	.loc	4	73	6
	str	x0, [sp, #0]
	.loc	1	517	27
	ldr	x1, [x3, #8]
	.loc	1	517	27
	ldr	x0, [x3, #0]
	.loc	1	517	36
	bl	_camlString_map_equal_content__add_6_32_code
L1407:
	orr	x2, xzr, x0
	.loc	4	73	6
	ldr	x0, [sp, #0]
	.loc	4	73	6
	ldr	x1, [x0, #8]
	b	L1383
L1404:
	movz	x16, #16
	stp	x16, lr, [sp, #-16]!
	bl	_caml_call_realloc_stack
	ldp	x16, lr, [sp], #16
	b	L1405
	.cfi_endproc
	.text
	.align	3
	.globl	_camlString_map_equal_content__to_seq_from_67_50_code
_camlString_map_equal_content__to_seq_from_67_50_code:
L_camlString_map_equal_content__to_seq_from_67_50_code:
	.loc	1	541	20
	.cfi_startproc
	sub	sp, sp, #16
	.cfi_adjust_cfa_offset 16
	.cfi_offset 30, -8
	str	lr, [sp, #8]
	orr	x19, xzr, x0
	orr	x20, xzr, x1
	orr	x21, xzr, #1
	tbz	x20, #0, L1421
L1419:
	orr	x1, xzr, x21
	b	L1442
L1421:
	.loc	1	544	15
	ldr	x22, [x20, #24]
	.loc	1	544	15
	ldr	x23, [x20, #16]
	.loc	1	544	15
	ldr	x24, [x20, #8]
	orr	x0, xzr, x24
	orr	x1, xzr, x19
	.loc	2	14	21
	add	fp, sp, #0
	.cfi_remember_state
	.cfi_def_cfa_register %29
	ldr	x16, [x28, #104]
	add	sp, x16, #0
	bl	_caml_string_compare
	add	sp, fp, #0
	.cfi_restore_state
	subs	xzr, x0, #1
	b.eq	L1436
	subs	xzr, x0, #1
	b.ge	L1431
	orr	x20, xzr, x22
	tbz	x20, #0, L1421
	b	L1419
L1431:
	.loc	1	548	31
	ldr	x16, [x28, #0]
	sub	x27, x27, #40
	subs	xzr, x27, x16
	b.cc	L1457
L1456:
	add	x0, x27, #8
	orr	x1, xzr, #4096
	.loc	1	548	31
	str	x1, [x0, #-8]
	.loc	1	548	31
	str	x24, [x0, #0]
	.loc	1	548	31
	str	x23, [x0, #8]
	.loc	1	548	31
	str	x22, [x0, #16]
	.loc	1	548	31
	str	x21, [x0, #24]
	orr	x21, xzr, x0
	.loc	1	544	15
	ldr	x20, [x20, #0]
	tbz	x20, #0, L1421
	b	L1419
L1436:
	.loc	1	546	21
	ldr	x16, [x28, #0]
	sub	x27, x27, #40
	subs	xzr, x27, x16
	b.cc	L1460
L1459:
	add	x1, x27, #8
	orr	x0, xzr, #4096
	.loc	1	546	21
	str	x0, [x1, #-8]
	.loc	1	546	21
	str	x24, [x1, #0]
	.loc	1	546	21
	str	x23, [x1, #8]
	.loc	1	546	21
	str	x22, [x1, #16]
	.loc	1	546	21
	str	x21, [x1, #24]
L1442:
	.loc	1	551	6
	ldr	x16, [x28, #0]
	sub	x27, x27, #40
	subs	xzr, x27, x16
	b.cc	L1463
L1462:
	add	x0, x27, #8
	movz	x2, #4343, lsl #0
	.loc	1	551	6
	str	x2, [x0, #-8]
	adrp	x2, _camlStdlib__Map__partial_seq_of_enum__69_69_code@GOTPAGE
	ldr	x2, [x2, _camlStdlib__Map__partial_seq_of_enum__69_69_code@GOTPAGEOFF]
	.loc	1	551	6
	str	x2, [x0, #0]
	movz	x2, #5, lsl #0
	movk	x2, #384, lsl #48
	.loc	1	551	6
	str	x2, [x0, #8]
	.loc	1	551	6
	str	x1, [x0, #16]
	adrp	x1, _camlStdlib__Map__seq_of_enum__180@GOTPAGE
	ldr	x1, [x1, _camlStdlib__Map__seq_of_enum__180@GOTPAGEOFF]
	.loc	1	551	6
	str	x1, [x0, #24]
	ldr	lr, [sp, #8]
	add	sp, sp, #16
	.cfi_adjust_cfa_offset -16
	ret
	.cfi_adjust_cfa_offset 16
L1463:
	bl	_caml_call_gc
L1461:
	b	L1462
L1460:
	bl	_caml_call_gc
L1458:
	b	L1459
L1457:
	bl	_caml_call_gc
L1455:
	b	L1456
	.cfi_endproc
	.text
	.align	3
	.globl	_camlString_map_equal_content__black_box_int_0_9_code
_camlString_map_equal_content__black_box_int_0_9_code:
L_camlString_map_equal_content__black_box_int_0_9_code:
	.loc	2	1	33
	.cfi_startproc
	.loc	2	1	45
	ret
	.cfi_endproc
	.text
	.align	3
	.globl	_camlString_map_equal_content__black_box_string_1_10_code
_camlString_map_equal_content__black_box_string_1_10_code:
L_camlString_map_equal_content__black_box_string_1_10_code:
	.loc	2	2	36
	.cfi_startproc
	.loc	2	2	51
	ret
	.cfi_endproc
	.text
	.align	3
	.globl	_camlString_map_equal_content__black_box_2_11_code
_camlString_map_equal_content__black_box_2_11_code:
L_camlString_map_equal_content__black_box_2_11_code:
	.loc	2	3	29
	.cfi_startproc
	.loc	2	3	33
	ret
	.cfi_endproc
	.text
	.align	3
	.globl	_camlString_map_equal_content__print_result_3_12_code
_camlString_map_equal_content__print_result_3_12_code:
L_camlString_map_equal_content__print_result_3_12_code:
	.loc	2	11	17
	.cfi_startproc
	sub	sp, sp, #16
	.cfi_adjust_cfa_offset 16
	.cfi_offset 30, -8
	str	lr, [sp, #8]
	ldr	x16, [x28, #40]
	add	x16, x16, #376
	subs	xzr, sp, x16
	b.cc	L1484
L1485:
	str	x0, [sp, #0]
	adrp	x2, _camlString_map_equal_content__const_block66@GOTPAGE
	ldr	x2, [x2, _camlString_map_equal_content__const_block66@GOTPAGEOFF]
	orr	x1, xzr, #1
	adrp	x0, _camlStdlib__Printf__fn$5b$2fworkspace_root$2fprintf.ml$3a27$2c14$2d$2d48$5d_31@GOTPAGE
	ldr	x0, [x0, _camlStdlib__Printf__fn$5b$2fworkspace_root$2fprintf.ml$3a27$2c14$2d$2d48$5d_31@GOTPAGEOFF]
	.file	5	"printf.ml"
	.loc	5	27	2
	bl	_camlCamlinternalFormat__make_printf_120_401_code
L1486:
	orr	x1, xzr, x0
	.loc	2	11	44
	ldr	x0, [sp, #0]
	.loc	2	11	44
	and	x0, x0, #2147483647
	.loc	2	11	21
	ldr	x2, [x1, #0]
	.loc	2	11	21
	ldr	lr, [sp, #8]
	add	sp, sp, #16
	.cfi_adjust_cfa_offset -16
	br	x2
	.cfi_adjust_cfa_offset 16
L1484:
	movz	x16, #16
	stp	x16, lr, [sp, #-16]!
	bl	_caml_call_realloc_stack
	ldp	x16, lr, [sp], #16
	b	L1485
	.cfi_endproc
	.text
	.align	3
	.globl	_camlString_map_equal_content__fn$5bstring_map_equal_content.ml$3a14$2c21$2d$2d27$5d_4_4_code
_camlString_map_equal_content__fn$5bstring_map_equal_content.ml$3a14$2c21$2d$2d27$5d_4_4_code:
L_camlString_map_equal_content__fn$5bstring_map_equal_content.ml$3a14$2c21$2d$2d27$5d_4_4_code:
	.loc	2	14	21
	.cfi_startproc
	sub	sp, sp, #16
	.cfi_adjust_cfa_offset 16
	.cfi_offset 30, -8
	str	lr, [sp, #8]
	.loc	2	14	21
	add	fp, sp, #0
	.cfi_remember_state
	.cfi_def_cfa_register %29
	ldr	x16, [x28, #104]
	add	sp, x16, #0
	bl	_caml_string_compare
	add	sp, fp, #0
	.cfi_restore_state
	ldr	lr, [sp, #8]
	add	sp, sp, #16
	.cfi_adjust_cfa_offset -16
	ret
	.cfi_adjust_cfa_offset 16
	.cfi_endproc
	.text
	.align	3
	.globl	_camlString_map_equal_content__fresh_5_51_code
_camlString_map_equal_content__fresh_5_51_code:
L_camlString_map_equal_content__fresh_5_51_code:
	.loc	2	16	10
	.cfi_startproc
	sub	sp, sp, #32
	.cfi_adjust_cfa_offset 32
	.cfi_offset 30, -8
	str	lr, [sp, #24]
	.file	6	"bytes.ml"
	.loc	6	74	12
	ldr	x1, [x0, #-8]
	.loc	6	74	12
	ubfm	x1, x1, #56, #55
	.loc	6	74	12
	ubfm	x1, x1, #18, #63
	.loc	6	74	12
	ubfm	x1, x1, #61, #60
	.loc	6	74	12
	sub	x1, x1, #1
	.loc	6	74	12
	add	x2, x0, x1
	.loc	6	74	12
	str	x0, [sp, #0]
	.loc	6	74	12
	ldrb	w0, [x2, #0]
	.loc	6	74	12
	sub	x0, x1, x0
	orr	x1, xzr, #1
	.loc	6	74	12
	add	x0, x1, x0, lsl #1
	str	x0, [sp, #8]
	.loc	6	75	10
	adrp	x8, _caml_create_bytes@GOTPAGE
	ldr	x8, [x8, _caml_create_bytes@GOTPAGEOFF]
	bl	_caml_c_call
L1520:
	orr	x19, xzr, x0
	orr	x3, xzr, #1
	orr	x1, xzr, #1
	ldr	x0, [sp, #0]
	orr	x2, xzr, x19
	ldr	x4, [sp, #8]
	.loc	6	76	2
	add	fp, sp, #0
	.cfi_remember_state
	.cfi_def_cfa_register %29
	ldr	x16, [x28, #104]
	add	sp, x16, #0
	bl	_caml_blit_bytes
	add	sp, fp, #0
	.cfi_restore_state
	.loc	6	74	12
	ldr	x0, [x19, #-8]
	.loc	6	74	12
	ubfm	x0, x0, #56, #55
	.loc	6	74	12
	ubfm	x0, x0, #18, #63
	.loc	6	74	12
	ubfm	x0, x0, #61, #60
	.loc	6	74	12
	sub	x0, x0, #1
	.loc	6	74	12
	add	x1, x19, x0
	.loc	6	74	12
	str	x19, [sp, #0]
	.loc	6	74	12
	ldrb	w1, [x1, #0]
	.loc	6	74	12
	sub	x0, x0, x1
	orr	x1, xzr, #1
	.loc	6	74	12
	add	x0, x1, x0, lsl #1
	str	x0, [sp, #8]
	.loc	6	75	10
	adrp	x8, _caml_create_bytes@GOTPAGE
	ldr	x8, [x8, _caml_create_bytes@GOTPAGEOFF]
	bl	_caml_c_call
L1521:
	orr	x19, xzr, x0
	orr	x3, xzr, #1
	orr	x1, xzr, #1
	ldr	x0, [sp, #0]
	orr	x2, xzr, x19
	ldr	x4, [sp, #8]
	.loc	6	76	2
	add	fp, sp, #0
	.cfi_remember_state
	.cfi_def_cfa_register %29
	ldr	x16, [x28, #104]
	add	sp, x16, #0
	bl	_caml_blit_bytes
	add	sp, fp, #0
	.cfi_restore_state
	orr	x0, xzr, x19
	ldr	lr, [sp, #24]
	add	sp, sp, #32
	.cfi_adjust_cfa_offset -32
	ret
	.cfi_adjust_cfa_offset 32
	.cfi_endproc
	.text
	.align	3
	.globl	_camlString_map_equal_content__run_6_52_code
_camlString_map_equal_content__run_6_52_code:
L_camlString_map_equal_content__run_6_52_code:
	.loc	2	18	23
	.cfi_startproc
	sub	sp, sp, #64
	.cfi_adjust_cfa_offset 64
	.cfi_offset 30, -8
	str	lr, [sp, #56]
	str	x0, [sp, #40]
	str	x1, [sp, #48]
	orr	x1, xzr, #1
	adrp	x0, _camlStdlib__immstring191@GOTPAGE
	ldr	x0, [x0, _camlStdlib__immstring191@GOTPAGEOFF]
	.file	7	"stdlib.ml"
	.loc	7	280	2
	adrp	x8, _caml_format_int@GOTPAGE
	ldr	x8, [x8, _caml_format_int@GOTPAGEOFF]
	bl	_caml_c_call
L1737:
	.loc	7	225	37
	ldr	x1, [x0, #-8]
	.loc	7	225	37
	ubfm	x1, x1, #56, #55
	.loc	7	225	37
	ubfm	x1, x1, #18, #63
	.loc	7	225	37
	ubfm	x1, x1, #61, #60
	.loc	7	225	37
	sub	x1, x1, #1
	.loc	7	225	37
	add	x2, x0, x1
	.loc	7	225	37
	str	x0, [sp, #0]
	.loc	7	225	37
	ldrb	w0, [x2, #0]
	.loc	7	225	37
	sub	x0, x1, x0
	orr	x1, xzr, #1
	.loc	7	225	37
	add	x1, x1, x0, lsl #1
	.loc	7	226	23
	add	x0, x1, #38
	.loc	7	226	23
	str	x1, [sp, #8]
	.loc	7	226	10
	adrp	x8, _caml_create_bytes@GOTPAGE
	ldr	x8, [x8, _caml_create_bytes@GOTPAGEOFF]
	bl	_caml_c_call
L1738:
	orr	x19, xzr, x0
	movz	x4, #39, lsl #0
	orr	x3, xzr, #1
	orr	x1, xzr, #1
	adrp	x0, L_camlString_map_equal_content__immstring119@PAGE
	add	x0, x0, L_camlString_map_equal_content__immstring119@PAGEOFF
	orr	x2, xzr, x19
	.loc	7	227	2
	add	fp, sp, #0
	.cfi_remember_state
	.cfi_def_cfa_register %29
	ldr	x16, [x28, #104]
	add	sp, x16, #0
	bl	_caml_blit_string
	add	sp, fp, #0
	.cfi_restore_state
	movz	x3, #39, lsl #0
	orr	x1, xzr, #1
	ldr	x0, [sp, #0]
	orr	x2, xzr, x19
	ldr	x4, [sp, #8]
	.loc	7	228	2
	add	fp, sp, #0
	.cfi_remember_state
	.cfi_def_cfa_register %29
	ldr	x16, [x28, #104]
	add	sp, x16, #0
	bl	_caml_blit_string
	add	sp, fp, #0
	.cfi_restore_state
	movz	x0, #129, lsl #0
	orr	x1, xzr, x19
	.file	8	"array.ml"
	.loc	8	85	13
	adrp	x8, _caml_array_make@GOTPAGE
	ldr	x8, [x8, _caml_array_make@GOTPAGEOFF]
	bl	_caml_c_call
L1739:
	ldr	x16, [x28, #40]
	add	x16, x16, #424
	subs	xzr, sp, x16
	b.cc	L1740
L1741:
	str	x0, [sp, #0]
	orr	x19, xzr, #1
L1546:
	orr	x0, xzr, #1
	.loc	8	86	3
	add	x1, x0, x19, lsl #1
	.loc	8	86	3
	str	x19, [sp, #24]
	adrp	x0, _camlStdlib__immstring191@GOTPAGE
	ldr	x0, [x0, _camlStdlib__immstring191@GOTPAGEOFF]
	str	x1, [sp, #32]
	.loc	7	280	2
	adrp	x8, _caml_format_int@GOTPAGE
	ldr	x8, [x8, _caml_format_int@GOTPAGEOFF]
	bl	_caml_c_call
L1742:
	.loc	7	225	37
	ldr	x1, [x0, #-8]
	.loc	7	225	37
	ubfm	x1, x1, #56, #55
	.loc	7	225	37
	ubfm	x1, x1, #18, #63
	.loc	7	225	37
	ubfm	x1, x1, #61, #60
	.loc	7	225	37
	sub	x1, x1, #1
	.loc	7	225	37
	add	x2, x0, x1
	.loc	7	225	37
	str	x0, [sp, #8]
	.loc	7	225	37
	ldrb	w0, [x2, #0]
	.loc	7	225	37
	sub	x0, x1, x0
	orr	x1, xzr, #1
	.loc	7	225	37
	add	x1, x1, x0, lsl #1
	.loc	7	226	23
	add	x0, x1, #38
	.loc	7	226	23
	str	x1, [sp, #16]
	.loc	7	226	10
	adrp	x8, _caml_create_bytes@GOTPAGE
	ldr	x8, [x8, _caml_create_bytes@GOTPAGEOFF]
	bl	_caml_c_call
L1743:
	orr	x20, xzr, x0
	movz	x4, #39, lsl #0
	orr	x3, xzr, #1
	orr	x1, xzr, #1
	adrp	x0, L_camlString_map_equal_content__immstring119@PAGE
	add	x0, x0, L_camlString_map_equal_content__immstring119@PAGEOFF
	orr	x2, xzr, x20
	.loc	7	227	2
	add	fp, sp, #0
	.cfi_remember_state
	.cfi_def_cfa_register %29
	ldr	x16, [x28, #104]
	add	sp, x16, #0
	bl	_caml_blit_string
	add	sp, fp, #0
	.cfi_restore_state
	movz	x3, #39, lsl #0
	orr	x1, xzr, #1
	ldr	x0, [sp, #8]
	orr	x2, xzr, x20
	ldr	x4, [sp, #16]
	.loc	7	228	2
	add	fp, sp, #0
	.cfi_remember_state
	.cfi_def_cfa_register %29
	ldr	x16, [x28, #104]
	add	sp, x16, #0
	bl	_caml_blit_string
	add	sp, fp, #0
	.cfi_restore_state
	.loc	8	87	5
	ldr	x21, [sp, #0]
	.loc	8	87	5
	ldrb	w0, [x21, #-8]
	ldr	x19, [sp, #24]
	ldr	x1, [sp, #32]
	subs	xzr, x0, #254
	b.ne	L1572
	.loc	8	87	5
	add	x0, x21, x1, lsl #2
	.loc	8	87	5
	ldr	d0, [x20, #0]
	.loc	8	87	5
	str	d0, [x0, #-4]
	orr	x0, xzr, #1
	b	L1578
L1572:
	.loc	8	87	5
	add	x0, x21, x1, lsl #2
	.loc	8	87	5
	sub	x0, x0, #4
	orr	x1, xzr, x20
	.loc	8	87	5
	add	fp, sp, #0
	.cfi_remember_state
	.cfi_def_cfa_register %29
	ldr	x16, [x28, #104]
	add	sp, x16, #0
	bl	_caml_modify
	add	sp, fp, #0
	.cfi_restore_state
	orr	x0, xzr, xzr
L1578:
	.loc	8	86	3
	add	x19, x19, #1
	subs	xzr, x19, #63
	b.le	L1546
	str	x21, [sp, #0]
	str	x0, [sp, #8]
	adrp	x0, _camlString_map_equal_content__fresh_46@GOTPAGE
	ldr	x0, [x0, _camlString_map_equal_content__fresh_46@GOTPAGEOFF]
	ldr	x1, [sp, #0]
	ldr	x2, [sp, #0]
	.loc	2	20	15
	bl	_camlStdlib__Array__map_10_80_code
L1744:
	str	x0, [sp, #24]
	orr	x2, xzr, #1
	orr	x1, xzr, xzr
L1597:
	orr	x0, xzr, #1
	.loc	8	221	2
	add	x3, x0, x1, lsl #1
	ldr	x0, [sp, #8]
	cbz	x0, L1608
	.loc	8	222	14
	ldr	x16, [x28, #0]
	sub	x27, x27, #16
	subs	xzr, x27, x16
	b.cc	L1747
L1746:
	add	x0, x27, #8
	movz	x4, #1277, lsl #0
	.loc	8	222	14
	str	x4, [x0, #-8]
	.loc	8	222	14
	ldr	x4, [sp, #0]
	.loc	8	222	14
	add	x3, x4, x3, lsl #2
	.loc	8	222	14
	ldr	d0, [x3, #-4]
	.loc	8	222	14
	str	d0, [x0, #0]
	b	L1613
L1608:
	.loc	8	222	14
	ldr	x0, [sp, #0]
	.loc	8	222	14
	add	x0, x0, x3, lsl #2
	.loc	8	222	14
	ldr	x0, [x0, #-4]
L1613:
	.loc	2	22	40
	str	x1, [sp, #16]
	.loc	2	22	40
	ldr	x1, [x0, #-8]
	.loc	2	22	40
	ubfm	x1, x1, #56, #55
	.loc	2	22	40
	ubfm	x1, x1, #18, #63
	.loc	2	22	40
	ubfm	x1, x1, #61, #60
	.loc	2	22	40
	sub	x1, x1, #1
	.loc	2	22	40
	add	x3, x0, x1
	.loc	2	22	40
	ldrb	w3, [x3, #0]
	.loc	2	22	40
	sub	x1, x1, x3
	orr	x3, xzr, #1
	.loc	2	22	40
	add	x1, x3, x1, lsl #1
	.loc	2	22	32
	bl	_camlString_map_equal_content__add_6_32_code
L1748:
	orr	x2, xzr, x0
	.loc	8	221	2
	ldr	x1, [sp, #16]
	.loc	8	221	2
	add	x1, x1, #1
	ldr	x0, [sp, #0]
	ldr	x3, [sp, #8]
	subs	xzr, x1, #63
	b.gt	L1628
	str	x0, [sp, #0]
	str	x3, [sp, #8]
	b	L1597
L1628:
	str	x2, [sp, #0]
	ldr	x20, [sp, #40]
	ldr	x0, [sp, #48]
	ldr	x21, [sp, #24]
	subs	xzr, x0, #3
	b.lt	L1713
	.loc	2	25	2
	sbfm	x0, x0, #1, #63
	str	x0, [sp, #8]
	orr	x0, xzr, #1
	orr	x19, xzr, #1
L1641:
	orr	x1, xzr, #1
	.loc	2	25	2
	add	x1, x1, x19, lsl #1
	str	x1, [sp, #16]
	subs	xzr, x20, #3
	b.lt	L1703
	.loc	2	26	4
	sbfm	x1, x20, #1, #63
	str	x1, [sp, #24]
	orr	x22, xzr, #1
	orr	x23, xzr, x0
L1653:
	.loc	2	27	41
	ldr	x0, [sp, #16]
	.loc	2	27	41
	add	x0, x0, x22, lsl #1
	.loc	2	27	40
	and	x0, x0, #127
	.loc	2	27	16
	add	x0, x21, x0, lsl #2
	.loc	2	27	16
	ldr	x24, [x0, #-4]
	ldr	x25, [sp, #0]
	tbz	x25, #0, L1669
L1667:
	adrp	x0, _caml_exn_Not_found@GOTPAGE
	ldr	x0, [x0, _caml_exn_Not_found@GOTPAGEOFF]
	.loc	1	146	10
	add	sp, x26, #0
	ldp	x26, x16, [sp], #16
	br	x16
L1669:
	.loc	1	147	13
	ldr	x1, [x25, #8]
	orr	x0, xzr, x24
	.loc	2	14	21
	add	fp, sp, #0
	.cfi_remember_state
	.cfi_def_cfa_register %29
	ldr	x16, [x28, #104]
	add	sp, x16, #0
	bl	_caml_string_compare
	add	sp, fp, #0
	.cfi_restore_state
	subs	xzr, x0, #1
	b.ne	L1676
	.loc	1	147	13
	ldr	x0, [x25, #16]
	.loc	2	28	13
	add	x0, x23, x0
	.loc	2	28	13
	sub	x0, x0, #1
	.loc	2	26	4
	add	x22, x22, #1
	ldr	x1, [sp, #24]
	subs	xzr, x22, x1
	b.gt	L1703
	b	L1693
L1676:
	subs	xzr, x0, #1
	b.ge	L1681
	.loc	1	147	13
	ldr	x25, [x25, #0]
	tbz	x25, #0, L1669
	b	L1667
L1681:
	.loc	1	147	13
	ldr	x25, [x25, #24]
	tbz	x25, #0, L1669
	b	L1667
L1693:
	orr	x23, xzr, x0
	b	L1653
L1703:
	.loc	2	25	2
	add	x19, x19, #1
	ldr	x1, [sp, #8]
	subs	xzr, x19, x1
	b.le	L1641
	ldr	lr, [sp, #56]
	add	sp, sp, #64
	.cfi_adjust_cfa_offset -64
	ret
	.cfi_adjust_cfa_offset 64
L1713:
	orr	x0, xzr, #1
	ldr	lr, [sp, #56]
	add	sp, sp, #64
	.cfi_adjust_cfa_offset -64
	ret
	.cfi_adjust_cfa_offset 64
L1747:
	bl	_caml_call_gc
L1745:
	b	L1746
L1740:
	movz	x16, #64
	stp	x16, lr, [sp, #-16]!
	bl	_caml_call_realloc_stack
	ldp	x16, lr, [sp], #16
	b	L1741
	.cfi_endproc
	.text
	.align	3
	.globl	_camlString_map_equal_content__entry
_camlString_map_equal_content__entry:
L_camlString_map_equal_content__entry:
	.cfi_startproc
	sub	sp, sp, #32
	.cfi_adjust_cfa_offset 32
	.cfi_offset 30, -8
	str	lr, [sp, #24]
	orr	x0, xzr, #1
	.loc	2	6	18
	adrp	x8, _caml_sys_argv@GOTPAGE
	ldr	x8, [x8, _caml_sys_argv@GOTPAGEOFF]
	bl	_caml_c_call
L1857:
	.loc	2	6	5
	ldr	x0, [x0, #-8]
	.loc	2	6	5
	ubfm	x0, x0, #56, #55
	.loc	2	6	5
	ubfm	x0, x0, #17, #63
	subs	xzr, x0, #3
	b.le	L1781
	orr	x0, xzr, #1
	.loc	2	6	50
	adrp	x8, _caml_sys_argv@GOTPAGE
	ldr	x8, [x8, _caml_sys_argv@GOTPAGEOFF]
	bl	_caml_c_call
L1858:
	.loc	2	6	50
	ldr	x1, [x0, #-8]
	.loc	2	6	50
	ubfm	x1, x1, #56, #55
	.loc	2	6	50
	ubfm	x1, x1, #17, #63
	subs	xzr, x1, #3
	b.ls	L1778
	.loc	2	6	50
	ldr	x0, [x0, #8]
	.loc	2	6	36
	adrp	x8, _caml_int_of_string@GOTPAGE
	ldr	x8, [x8, _caml_int_of_string@GOTPAGEOFF]
	bl	_caml_c_call
L1859:
	orr	x2, xzr, x0
	b	L1784
L1778:
	adrp	x0, L_camlString_map_equal_content__block35@PAGE
	add	x0, x0, L_camlString_map_equal_content__block35@PAGEOFF
	.loc	2	6	50
	add	sp, x26, #0
	ldp	x26, x16, [sp], #16
	br	x16
L1781:
	movz	x0, #3393, lsl #0
	movk	x0, #3, lsl #16
	orr	x2, xzr, x0
L1784:
	adrp	x0, _camlString_map_equal_content@GOTPAGE
	ldr	x0, [x0, _camlString_map_equal_content@GOTPAGEOFF]
	add	x0, x0, #24
	orr	x1, xzr, x2
	str	x2, [sp, #0]
	add	fp, sp, #0
	.cfi_remember_state
	.cfi_def_cfa_register %29
	ldr	x16, [x28, #104]
	add	sp, x16, #0
	bl	_caml_initialize
	add	sp, fp, #0
	.cfi_restore_state
	orr	x0, xzr, #1
	.loc	2	9	18
	adrp	x8, _caml_sys_argv@GOTPAGE
	ldr	x8, [x8, _caml_sys_argv@GOTPAGEOFF]
	bl	_caml_c_call
L1860:
	.loc	2	9	5
	ldr	x0, [x0, #-8]
	.loc	2	9	5
	ubfm	x0, x0, #56, #55
	.loc	2	9	5
	ubfm	x0, x0, #17, #63
	ldr	x1, [sp, #0]
	subs	xzr, x0, #5
	b.le	L1814
	str	x1, [sp, #0]
	orr	x0, xzr, #1
	.loc	2	9	50
	adrp	x8, _caml_sys_argv@GOTPAGE
	ldr	x8, [x8, _caml_sys_argv@GOTPAGEOFF]
	bl	_caml_c_call
L1861:
	.loc	2	9	50
	ldr	x1, [x0, #-8]
	.loc	2	9	50
	ubfm	x1, x1, #56, #55
	.loc	2	9	50
	ubfm	x1, x1, #17, #63
	ldr	x2, [sp, #0]
	subs	xzr, x1, #5
	b.ls	L1811
	.loc	2	9	50
	str	x2, [sp, #0]
	.loc	2	9	50
	ldr	x0, [x0, #16]
	.loc	2	9	36
	adrp	x8, _caml_int_of_string@GOTPAGE
	ldr	x8, [x8, _caml_int_of_string@GOTPAGEOFF]
	bl	_caml_c_call
L1862:
	orr	x19, xzr, x0
	ldr	x0, [sp, #0]
	orr	x2, xzr, x0
	b	L1817
L1811:
	adrp	x0, L_camlString_map_equal_content__block35@PAGE
	add	x0, x0, L_camlString_map_equal_content__block35@PAGEOFF
	.loc	2	9	50
	add	sp, x26, #0
	ldp	x26, x16, [sp], #16
	br	x16
L1814:
	movz	x0, #21, lsl #0
	orr	x19, xzr, x0
	orr	x2, xzr, x1
L1817:
	str	x2, [sp, #0]
	adrp	x0, _camlString_map_equal_content@GOTPAGE
	ldr	x0, [x0, _camlString_map_equal_content@GOTPAGEOFF]
	add	x0, x0, #32
	orr	x1, xzr, x19
	add	fp, sp, #0
	.cfi_remember_state
	.cfi_def_cfa_register %29
	ldr	x16, [x28, #104]
	add	sp, x16, #0
	bl	_caml_initialize
	add	sp, fp, #0
	.cfi_restore_state
	ldr	x16, [x28, #40]
	add	x16, x16, #392
	subs	xzr, sp, x16
	b.cc	L1863
L1864:
	orr	x0, xzr, x19
	.loc	2	33	45
	bl	_camlString_map_equal_content__black_box_int_0_9_code
L1865:
	str	x0, [sp, #8]
	ldr	x0, [sp, #0]
	.loc	2	33	27
	bl	_camlString_map_equal_content__black_box_int_0_9_code
L1866:
	ldr	x1, [sp, #8]
	.loc	2	33	22
	bl	_camlString_map_equal_content__run_6_52_code
L1867:
	str	x0, [sp, #0]
	adrp	x2, _camlString_map_equal_content__const_block66@GOTPAGE
	ldr	x2, [x2, _camlString_map_equal_content__const_block66@GOTPAGEOFF]
	orr	x1, xzr, #1
	adrp	x0, _camlStdlib__Printf__fn$5b$2fworkspace_root$2fprintf.ml$3a27$2c14$2d$2d48$5d_31@GOTPAGE
	ldr	x0, [x0, _camlStdlib__Printf__fn$5b$2fworkspace_root$2fprintf.ml$3a27$2c14$2d$2d48$5d_31@GOTPAGEOFF]
	.loc	5	27	2
	bl	_camlCamlinternalFormat__make_printf_120_401_code
L1868:
	orr	x1, xzr, x0
	.loc	2	11	44
	ldr	x0, [sp, #0]
	.loc	2	11	44
	and	x0, x0, #2147483647
	.loc	2	11	21
	ldr	x2, [x1, #0]
	.loc	2	11	21
	blr	x2
L1869:
	orr	x0, xzr, #1
	ldr	lr, [sp, #24]
	add	sp, sp, #32
	.cfi_adjust_cfa_offset -32
	ret
	.cfi_adjust_cfa_offset 32
L1863:
	movz	x16, #32
	stp	x16, lr, [sp, #-16]!
	bl	_caml_call_realloc_stack
	ldp	x16, lr, [sp], #16
	b	L1864
	.cfi_endproc
	.data
	.align	3
	.text
	.globl	_camlString_map_equal_content__code_end
_camlString_map_equal_content__code_end:
	.data
	.8byte	0
	.globl	_camlString_map_equal_content__data_end
_camlString_map_equal_content__data_end:
	.8byte	0
	.align	3
	.globl	_camlString_map_equal_content__frametable
_camlString_map_equal_content__frametable:
	.8byte	90
	.4byte	(L1869 - .) + 0
	.2byte	33
	.2byte	0
	.align	2
	.4byte	(L1870 - .) + 0
	.align	3
	.4byte	(L1868 - .) + 0
	.2byte	33
	.2byte	0
	.align	2
	.4byte	(L1871 - .) + 0
	.align	3
	.4byte	(L1867 - .) + 0
	.2byte	33
	.2byte	0
	.align	2
	.4byte	(L1872 - .) + 0
	.align	3
	.4byte	(L1866 - .) + 0
	.2byte	33
	.2byte	0
	.align	2
	.4byte	(L1873 - .) + 0
	.align	3
	.4byte	(L1865 - .) + 0
	.2byte	33
	.2byte	0
	.align	2
	.4byte	(L1874 - .) + 0
	.align	3
	.4byte	(L1862 - .) + 0
	.2byte	33
	.2byte	0
	.align	2
	.4byte	(L1875 - .) + 0
	.align	3
	.4byte	(L1861 - .) + 0
	.2byte	33
	.2byte	0
	.align	2
	.4byte	(L1876 - .) + 0
	.align	3
	.4byte	(L1860 - .) + 0
	.2byte	33
	.2byte	0
	.align	2
	.4byte	(L1877 - .) + 0
	.align	3
	.4byte	(L1859 - .) + 0
	.2byte	33
	.2byte	0
	.align	2
	.4byte	(L1878 - .) + 0
	.align	3
	.4byte	(L1858 - .) + 0
	.2byte	33
	.2byte	0
	.align	2
	.4byte	(L1879 - .) + 0
	.align	3
	.4byte	(L1857 - .) + 0
	.2byte	33
	.2byte	0
	.align	2
	.4byte	(L1880 - .) + 0
	.align	3
	.4byte	(L1748 - .) + 0
	.2byte	65
	.2byte	2
	.2byte	0
	.2byte	24
	.align	2
	.4byte	(L1881 - .) + 0
	.align	3
	.4byte	(L1745 - .) + 0
	.2byte	66
	.2byte	3
	.2byte	0
	.2byte	5
	.2byte	24
	.byte	1
	.byte	0
	.align	3
	.4byte	(L1744 - .) + 0
	.2byte	65
	.2byte	1
	.2byte	0
	.align	2
	.4byte	(L1882 - .) + 0
	.align	3
	.4byte	(L1743 - .) + 0
	.2byte	65
	.2byte	2
	.2byte	0
	.2byte	8
	.align	2
	.4byte	(L1883 - .) + 0
	.align	3
	.4byte	(L1742 - .) + 0
	.2byte	65
	.2byte	1
	.2byte	0
	.align	2
	.4byte	(L1884 - .) + 0
	.align	3
	.4byte	(L1739 - .) + 0
	.2byte	65
	.2byte	0
	.align	2
	.4byte	(L1885 - .) + 0
	.align	3
	.4byte	(L1738 - .) + 0
	.2byte	65
	.2byte	1
	.2byte	0
	.align	2
	.4byte	(L1886 - .) + 0
	.align	3
	.4byte	(L1737 - .) + 0
	.2byte	65
	.2byte	0
	.align	2
	.4byte	(L1887 - .) + 0
	.align	3
	.4byte	(L1521 - .) + 0
	.2byte	33
	.2byte	1
	.2byte	0
	.align	2
	.4byte	(L1888 - .) + 0
	.align	3
	.4byte	(L1520 - .) + 0
	.2byte	33
	.2byte	1
	.2byte	0
	.align	2
	.4byte	(L1889 - .) + 0
	.align	3
	.4byte	(L1486 - .) + 0
	.2byte	17
	.2byte	0
	.align	2
	.4byte	(L1890 - .) + 0
	.align	3
	.4byte	(L1461 - .) + 0
	.2byte	18
	.2byte	1
	.2byte	3
	.byte	1
	.byte	3
	.align	3
	.4byte	(L1458 - .) + 0
	.2byte	18
	.2byte	4
	.2byte	37
	.2byte	39
	.2byte	41
	.2byte	43
	.byte	1
	.byte	3
	.align	3
	.4byte	(L1455 - .) + 0
	.2byte	18
	.2byte	6
	.2byte	33
	.2byte	35
	.2byte	37
	.2byte	39
	.2byte	41
	.2byte	43
	.byte	1
	.byte	3
	.align	3
	.4byte	(L1407 - .) + 0
	.2byte	17
	.2byte	1
	.2byte	0
	.align	2
	.4byte	(L1891 - .) + 0
	.align	3
	.4byte	(L1406 - .) + 0
	.2byte	17
	.2byte	1
	.2byte	0
	.align	2
	.4byte	(L1892 - .) + 0
	.align	3
	.4byte	(L1376 - .) + 0
	.2byte	17
	.2byte	1
	.2byte	0
	.align	2
	.4byte	(L1893 - .) + 0
	.align	3
	.4byte	(L1375 - .) + 0
	.2byte	17
	.2byte	1
	.2byte	0
	.align	2
	.4byte	(L1894 - .) + 0
	.align	3
	.4byte	(L1345 - .) + 0
	.2byte	17
	.2byte	1
	.2byte	0
	.align	2
	.4byte	(L1895 - .) + 0
	.align	3
	.4byte	(L1317 - .) + 0
	.2byte	34
	.2byte	5
	.2byte	0
	.2byte	3
	.2byte	33
	.2byte	35
	.2byte	37
	.byte	1
	.byte	3
	.align	3
	.4byte	(L1314 - .) + 0
	.2byte	34
	.2byte	5
	.2byte	0
	.2byte	3
	.2byte	33
	.2byte	35
	.2byte	37
	.byte	1
	.byte	3
	.align	3
	.4byte	(L1313 - .) + 0
	.2byte	33
	.2byte	3
	.2byte	0
	.2byte	8
	.2byte	16
	.align	2
	.4byte	(L1896 - .) + 0
	.align	3
	.4byte	(L1211 - .) + 0
	.2byte	18
	.2byte	4
	.2byte	1
	.2byte	3
	.2byte	5
	.2byte	7
	.byte	1
	.byte	3
	.align	3
	.4byte	(L1208 - .) + 0
	.2byte	18
	.2byte	4
	.2byte	3
	.2byte	5
	.2byte	7
	.2byte	9
	.byte	1
	.byte	3
	.align	3
	.4byte	(L1205 - .) + 0
	.2byte	18
	.2byte	3
	.2byte	1
	.2byte	7
	.2byte	9
	.byte	1
	.byte	4
	.align	3
	.4byte	(L1144 - .) + 0
	.2byte	34
	.2byte	5
	.2byte	0
	.2byte	3
	.2byte	33
	.2byte	35
	.2byte	37
	.byte	1
	.byte	3
	.align	3
	.4byte	(L1141 - .) + 0
	.2byte	34
	.2byte	5
	.2byte	0
	.2byte	3
	.2byte	33
	.2byte	35
	.2byte	37
	.byte	1
	.byte	3
	.align	3
	.4byte	(L1140 - .) + 0
	.2byte	33
	.2byte	3
	.2byte	0
	.2byte	8
	.2byte	16
	.align	2
	.4byte	(L1897 - .) + 0
	.align	3
	.4byte	(L1036 - .) + 0
	.2byte	18
	.2byte	4
	.2byte	1
	.2byte	3
	.2byte	5
	.2byte	7
	.byte	1
	.byte	3
	.align	3
	.4byte	(L1033 - .) + 0
	.2byte	18
	.2byte	4
	.2byte	3
	.2byte	5
	.2byte	7
	.2byte	9
	.byte	1
	.byte	3
	.align	3
	.4byte	(L1030 - .) + 0
	.2byte	18
	.2byte	3
	.2byte	1
	.2byte	7
	.2byte	9
	.byte	1
	.byte	4
	.align	3
	.4byte	(L971 - .) + 0
	.2byte	65
	.2byte	3
	.2byte	0
	.2byte	8
	.2byte	48
	.align	2
	.4byte	(L1898 - .) + 0
	.align	3
	.4byte	(L970 - .) + 0
	.2byte	65
	.2byte	3
	.2byte	0
	.2byte	32
	.2byte	48
	.align	2
	.4byte	(L1899 - .) + 0
	.align	3
	.4byte	(L969 - .) + 0
	.2byte	65
	.2byte	5
	.2byte	0
	.2byte	24
	.2byte	32
	.2byte	40
	.2byte	48
	.align	2
	.4byte	(L1900 - .) + 0
	.align	3
	.4byte	(L968 - .) + 0
	.2byte	65
	.2byte	6
	.2byte	0
	.2byte	8
	.2byte	16
	.2byte	24
	.2byte	32
	.2byte	40
	.align	2
	.4byte	(L1901 - .) + 0
	.align	3
	.4byte	(L967 - .) + 0
	.2byte	65
	.2byte	4
	.2byte	0
	.2byte	8
	.2byte	24
	.2byte	32
	.align	2
	.4byte	(L1902 - .) + 0
	.align	3
	.4byte	(L966 - .) + 0
	.2byte	65
	.2byte	3
	.2byte	8
	.2byte	16
	.2byte	48
	.align	2
	.4byte	(L1903 - .) + 0
	.align	3
	.4byte	(L965 - .) + 0
	.2byte	65
	.2byte	3
	.2byte	8
	.2byte	32
	.2byte	48
	.align	2
	.4byte	(L1904 - .) + 0
	.align	3
	.4byte	(L964 - .) + 0
	.2byte	65
	.2byte	5
	.2byte	0
	.2byte	24
	.2byte	32
	.2byte	40
	.2byte	48
	.align	2
	.4byte	(L1905 - .) + 0
	.align	3
	.4byte	(L963 - .) + 0
	.2byte	65
	.2byte	6
	.2byte	0
	.2byte	8
	.2byte	16
	.2byte	24
	.2byte	32
	.2byte	40
	.align	2
	.4byte	(L1906 - .) + 0
	.align	3
	.4byte	(L962 - .) + 0
	.2byte	65
	.2byte	4
	.2byte	0
	.2byte	8
	.2byte	24
	.2byte	32
	.align	2
	.4byte	(L1907 - .) + 0
	.align	3
	.4byte	(L793 - .) + 0
	.2byte	65
	.2byte	3
	.2byte	0
	.2byte	8
	.2byte	16
	.align	2
	.4byte	(L1908 - .) + 0
	.align	3
	.4byte	(L792 - .) + 0
	.2byte	65
	.2byte	3
	.2byte	16
	.2byte	32
	.2byte	40
	.align	2
	.4byte	(L1909 - .) + 0
	.align	3
	.4byte	(L791 - .) + 0
	.2byte	65
	.2byte	5
	.2byte	0
	.2byte	8
	.2byte	16
	.2byte	24
	.2byte	32
	.align	2
	.4byte	(L1910 - .) + 0
	.align	3
	.4byte	(L788 - .) + 0
	.2byte	66
	.2byte	5
	.2byte	0
	.2byte	8
	.2byte	16
	.2byte	24
	.2byte	32
	.byte	1
	.byte	0
	.align	3
	.4byte	(L787 - .) + 0
	.2byte	65
	.2byte	4
	.2byte	0
	.2byte	8
	.2byte	16
	.2byte	24
	.align	2
	.4byte	(L1911 - .) + 0
	.align	3
	.4byte	(L786 - .) + 0
	.2byte	65
	.2byte	3
	.2byte	0
	.2byte	8
	.2byte	16
	.align	2
	.4byte	(L1912 - .) + 0
	.align	3
	.4byte	(L785 - .) + 0
	.2byte	65
	.2byte	3
	.2byte	8
	.2byte	16
	.2byte	24
	.align	2
	.4byte	(L1913 - .) + 0
	.align	3
	.4byte	(L784 - .) + 0
	.2byte	65
	.2byte	3
	.2byte	16
	.2byte	32
	.2byte	40
	.align	2
	.4byte	(L1914 - .) + 0
	.align	3
	.4byte	(L783 - .) + 0
	.2byte	65
	.2byte	5
	.2byte	0
	.2byte	8
	.2byte	16
	.2byte	24
	.2byte	32
	.align	2
	.4byte	(L1915 - .) + 0
	.align	3
	.4byte	(L780 - .) + 0
	.2byte	66
	.2byte	5
	.2byte	0
	.2byte	8
	.2byte	16
	.2byte	24
	.2byte	32
	.byte	1
	.byte	0
	.align	3
	.4byte	(L779 - .) + 0
	.2byte	65
	.2byte	4
	.2byte	0
	.2byte	8
	.2byte	16
	.2byte	24
	.align	2
	.4byte	(L1916 - .) + 0
	.align	3
	.4byte	(L778 - .) + 0
	.2byte	65
	.2byte	3
	.2byte	0
	.2byte	8
	.2byte	16
	.align	2
	.4byte	(L1917 - .) + 0
	.align	3
	.4byte	(L589 - .) + 0
	.2byte	50
	.2byte	2
	.2byte	3
	.2byte	24
	.byte	1
	.byte	2
	.align	3
	.4byte	(L588 - .) + 0
	.2byte	49
	.2byte	1
	.2byte	24
	.align	2
	.4byte	(L1918 - .) + 0
	.align	3
	.4byte	(L587 - .) + 0
	.2byte	49
	.2byte	3
	.2byte	0
	.2byte	8
	.2byte	16
	.align	2
	.4byte	(L1919 - .) + 0
	.align	3
	.4byte	(L584 - .) + 0
	.2byte	50
	.2byte	2
	.2byte	3
	.2byte	24
	.byte	1
	.byte	2
	.align	3
	.4byte	(L583 - .) + 0
	.2byte	49
	.2byte	1
	.2byte	24
	.align	2
	.4byte	(L1920 - .) + 0
	.align	3
	.4byte	(L582 - .) + 0
	.2byte	49
	.2byte	3
	.2byte	0
	.2byte	8
	.2byte	16
	.align	2
	.4byte	(L1921 - .) + 0
	.align	3
	.4byte	(L577 - .) + 0
	.2byte	50
	.2byte	3
	.2byte	35
	.2byte	37
	.2byte	41
	.byte	2
	.byte	2
	.byte	0
	.align	3
	.4byte	(L518 - .) + 0
	.2byte	18
	.2byte	2
	.2byte	1
	.2byte	3
	.byte	2
	.byte	0
	.byte	1
	.align	3
	.4byte	(L515 - .) + 0
	.2byte	18
	.2byte	1
	.2byte	3
	.byte	2
	.byte	0
	.byte	1
	.align	3
	.4byte	(L491 - .) + 0
	.2byte	18
	.2byte	3
	.2byte	1
	.2byte	5
	.2byte	7
	.byte	1
	.byte	2
	.align	3
	.4byte	(L482 - .) + 0
	.2byte	65
	.2byte	5
	.2byte	0
	.2byte	8
	.2byte	16
	.2byte	24
	.2byte	32
	.align	2
	.4byte	(L1922 - .) + 0
	.align	3
	.4byte	(L481 - .) + 0
	.2byte	65
	.2byte	5
	.2byte	0
	.2byte	8
	.2byte	16
	.2byte	24
	.2byte	32
	.align	2
	.4byte	(L1923 - .) + 0
	.align	3
	.4byte	(L478 - .) + 0
	.2byte	66
	.2byte	5
	.2byte	3
	.2byte	5
	.2byte	7
	.2byte	9
	.2byte	13
	.byte	1
	.byte	4
	.align	3
	.4byte	(L477 - .) + 0
	.2byte	65
	.2byte	3
	.2byte	0
	.2byte	32
	.2byte	40
	.align	2
	.4byte	(L1924 - .) + 0
	.align	3
	.4byte	(L476 - .) + 0
	.2byte	65
	.2byte	5
	.2byte	0
	.2byte	8
	.2byte	16
	.2byte	24
	.2byte	32
	.align	2
	.4byte	(L1925 - .) + 0
	.align	3
	.4byte	(L473 - .) + 0
	.2byte	66
	.2byte	6
	.2byte	0
	.2byte	8
	.2byte	16
	.2byte	32
	.2byte	35
	.2byte	41
	.byte	1
	.byte	0
	.align	3
	.4byte	(L470 - .) + 0
	.2byte	66
	.2byte	2
	.2byte	3
	.2byte	7
	.byte	1
	.byte	4
	.align	3
	.4byte	(L469 - .) + 0
	.2byte	65
	.2byte	1
	.2byte	0
	.align	2
	.4byte	(L1926 - .) + 0
	.align	3
	.4byte	(L346 - .) + 0
	.2byte	49
	.2byte	5
	.2byte	0
	.2byte	8
	.2byte	16
	.2byte	24
	.2byte	32
	.align	2
	.4byte	(L1927 - .) + 0
	.align	3
	.4byte	(L345 - .) + 0
	.2byte	49
	.2byte	5
	.2byte	0
	.2byte	8
	.2byte	16
	.2byte	24
	.2byte	32
	.align	2
	.4byte	(L1928 - .) + 0
	.align	3
	.4byte	(L344 - .) + 0
	.2byte	49
	.2byte	3
	.2byte	0
	.2byte	8
	.2byte	32
	.align	2
	.4byte	(L1929 - .) + 0
	.align	3
	.4byte	(L229 - .) + 0
	.2byte	18
	.2byte	1
	.2byte	35
	.byte	1
	.byte	0
	.align	3
	.4byte	(L166 - .) + 0
	.2byte	49
	.2byte	5
	.2byte	0
	.2byte	8
	.2byte	16
	.2byte	24
	.2byte	32
	.align	2
	.4byte	(L1930 - .) + 0
	.align	3
	.4byte	(L165 - .) + 0
	.2byte	49
	.2byte	5
	.2byte	0
	.2byte	8
	.2byte	16
	.2byte	24
	.2byte	32
	.align	2
	.4byte	(L1931 - .) + 0
	.align	3
	.4byte	(L160 - .) + 0
	.2byte	50
	.2byte	5
	.2byte	33
	.2byte	35
	.2byte	37
	.2byte	39
	.2byte	45
	.byte	1
	.byte	4
	.align	3
	.4byte	(L157 - .) + 0
	.2byte	50
	.2byte	2
	.2byte	33
	.2byte	35
	.byte	1
	.byte	4
	.align	3
	.align	2
L1909:
	.4byte	(L1933 - .) + 0
	.4byte	215508288
	.align	2
L1890:
	.4byte	(L1935 - .) + 1
	.4byte	14158328
	.4byte	(L1936 - .) + 1
	.4byte	17847640
	.4byte	(L1937 - .) + 1
	.4byte	19940632
	.4byte	(L1939 - .) + 0
	.4byte	5789176
	.align	2
L1888:
	.4byte	(L1941 - .) + 1
	.4byte	39332000
	.4byte	(L1942 - .) + 1
	.4byte	41454936
	.4byte	(L1943 - .) + 0
	.4byte	8403336
	.align	2
L1924:
	.4byte	(L1933 - .) + 1
	.4byte	141579616
	.4byte	(L1944 - .) + 0
	.4byte	153639160
	.align	2
L1908:
	.4byte	(L1945 - .) + 1
	.4byte	201873768
	.4byte	(L1946 - .) + 1
	.4byte	204488928
	.4byte	(L1933 - .) + 0
	.4byte	215493240
	.align	2
L1912:
	.4byte	(L1933 - .) + 0
	.4byte	214988096
	.align	2
L1921:
	.4byte	(L1947 - .) + 0
	.4byte	209225040
	.align	2
L1902:
	.4byte	(L1948 - .) + 0
	.4byte	223903056
	.align	2
L1891:
	.4byte	(L1949 - .) + 1
	.4byte	271094120
	.4byte	(L1951 - .) + 1
	.4byte	38815944
	.4byte	(L1952 - .) + 1
	.4byte	271063440
	.4byte	(L1953 - .) + 0
	.4byte	272125200
	.align	2
L1886:
	.4byte	(L1955 - .) + 1
	.4byte	118499584
	.4byte	(L1956 - .) + 1
	.4byte	10002032
	.4byte	(L1958 - .) + 1
	.4byte	44587224
	.4byte	(L1959 - .) + 0
	.4byte	9977464
	.align	2
L1876:
	.4byte	(L1960 - .) + 0
	.4byte	4770256
	.align	2
L1927:
	.4byte	(L1961 - .) + 0
	.4byte	147346680
	.align	2
L1878:
	.4byte	(L1962 - .) + 0
	.4byte	3183088
	.align	2
L1922:
	.4byte	(L1944 - .) + 0
	.4byte	157308168
	.align	2
L1914:
	.4byte	(L1933 - .) + 0
	.4byte	213935424
	.align	2
L1903:
	.4byte	(L1945 - .) + 1
	.4byte	201873768
	.4byte	(L1946 - .) + 1
	.4byte	204488928
	.4byte	(L1948 - .) + 0
	.4byte	222848472
	.align	2
L1874:
	.4byte	(L1963 - .) + 0
	.4byte	17348104
	.align	2
L1911:
	.4byte	(L1964 - .) + 0
	.4byte	-2145800192
	.align	2
L1907:
	.4byte	(L1948 - .) + 0
	.4byte	220757328
	.align	2
L1900:
	.4byte	(L1948 - .) + 0
	.4byte	224438712
	.align	2
L1872:
	.4byte	(L1963 - .) + 0
	.4byte	17324560
	.align	2
L1884:
	.4byte	(L1965 - .) + 1
	.4byte	146802840
	.4byte	(L1956 - .) + 1
	.4byte	10026608
	.4byte	(L1958 - .) + 1
	.4byte	45635800
	.4byte	(L1959 - .) + 0
	.4byte	9977464
	.align	2
L1883:
	.4byte	(L1955 - .) + 1
	.4byte	118499584
	.4byte	(L1956 - .) + 1
	.4byte	10002032
	.4byte	(L1958 - .) + 1
	.4byte	45635800
	.4byte	(L1959 - .) + 0
	.4byte	9977464
	.align	2
L1881:
	.4byte	(L1956 - .) + 1
	.4byte	11567576
	.4byte	(L1966 - .) + 1
	.4byte	116401392
	.4byte	(L1959 - .) + 0
	.4byte	11539032
	.align	2
L1882:
	.4byte	(L1959 - .) + 0
	.4byte	10501416
	.align	2
L1871:
	.4byte	(L1935 - .) + 1
	.4byte	14158328
	.4byte	(L1936 - .) + 1
	.4byte	17847640
	.4byte	(L1937 - .) + 1
	.4byte	19940632
	.4byte	(L1939 - .) + 1
	.4byte	5789176
	.4byte	(L1963 - .) + 0
	.4byte	17311248
	.align	2
L1879:
	.4byte	(L1962 - .) + 0
	.4byte	3197392
	.align	2
L1875:
	.4byte	(L1960 - .) + 0
	.4byte	4755952
	.align	2
L1870:
	.4byte	(L1939 - .) + 1
	.4byte	5789176
	.4byte	(L1963 - .) + 0
	.4byte	17311248
	.align	2
L1928:
	.4byte	(L1961 - .) + 0
	.4byte	146298104
	.align	2
L1926:
	.4byte	(L1944 - .) + 0
	.4byte	149444832
	.align	2
L1917:
	.4byte	(L1933 - .) + 0
	.4byte	213415232
	.align	2
L1895:
	.4byte	(L1967 - .) + 1
	.4byte	269538800
	.4byte	(L1969 - .) + 1
	.4byte	67133712
	.4byte	(L1970 - .) + 0
	.4byte	269506112
	.align	2
L1923:
	.4byte	(L1944 - .) + 0
	.4byte	155735304
	.align	2
L1910:
	.4byte	(L1933 - .) + 0
	.4byte	215527928
	.align	2
L1931:
	.4byte	(L1971 - .) + 0
	.4byte	72373512
	.align	2
L1885:
	.4byte	(L1958 - .) + 1
	.4byte	44578008
	.4byte	(L1959 - .) + 0
	.4byte	9977464
	.align	2
L1893:
	.4byte	(L1949 - .) + 1
	.4byte	271094120
	.4byte	(L1951 - .) + 1
	.4byte	38815944
	.4byte	(L1952 - .) + 0
	.4byte	271063440
	.align	2
L1873:
	.4byte	(L1963 - .) + 0
	.4byte	17329504
	.align	2
L1889:
	.4byte	(L1941 - .) + 1
	.4byte	39332000
	.4byte	(L1972 - .) + 1
	.4byte	41961816
	.4byte	(L1943 - .) + 0
	.4byte	8419720
	.align	2
L1925:
	.4byte	(L1944 - .) + 0
	.4byte	153110752
	.align	2
L1918:
	.4byte	(L1947 - .) + 0
	.4byte	210288096
	.align	2
L1887:
	.4byte	(L1965 - .) + 1
	.4byte	146802840
	.4byte	(L1956 - .) + 1
	.4byte	10026608
	.4byte	(L1958 - .) + 1
	.4byte	44587224
	.4byte	(L1959 - .) + 0
	.4byte	9977464
	.align	2
L1880:
	.4byte	(L1962 - .) + 0
	.4byte	3164368
	.align	2
L1877:
	.4byte	(L1960 - .) + 0
	.4byte	4737232
	.align	2
L1892:
	.4byte	(L1951 - .) + 1
	.4byte	37232752
	.4byte	(L1952 - .) + 1
	.4byte	271063440
	.4byte	(L1953 - .) + 0
	.4byte	272125200
	.align	2
L1930:
	.4byte	(L1971 - .) + 0
	.4byte	73946376
	.align	2
L1913:
	.4byte	(L1945 - .) + 1
	.4byte	201873768
	.4byte	(L1946 - .) + 1
	.4byte	204488928
	.4byte	(L1933 - .) + 0
	.4byte	213920376
	.align	2
L1929:
	.4byte	(L1933 - .) + 1
	.4byte	141579616
	.4byte	(L1961 - .) + 0
	.4byte	145252616
	.align	2
L1906:
	.4byte	(L1948 - .) + 0
	.4byte	221270280
	.align	2
L1894:
	.4byte	(L1951 - .) + 1
	.4byte	37232752
	.4byte	(L1952 - .) + 0
	.4byte	271063440
	.align	2
L1904:
	.4byte	(L1948 - .) + 0
	.4byte	222868936
	.align	2
L1901:
	.4byte	(L1948 - .) + 0
	.4byte	224416008
	.align	2
L1899:
	.4byte	(L1948 - .) + 0
	.4byte	226014664
	.align	2
L1897:
	.4byte	(L1973 - .) + 0
	.4byte	252727528
	.align	2
L1916:
	.4byte	(L1964 - .) + 0
	.4byte	-2145812480
	.align	2
L1905:
	.4byte	(L1948 - .) + 0
	.4byte	221292984
	.align	2
L1920:
	.4byte	(L1947 - .) + 0
	.4byte	209249840
	.align	2
L1919:
	.4byte	(L1947 - .) + 0
	.4byte	210273616
	.align	2
L1898:
	.4byte	(L1945 - .) + 1
	.4byte	201873768
	.4byte	(L1946 - .) + 1
	.4byte	204488928
	.4byte	(L1948 - .) + 0
	.4byte	225994200
	.align	2
L1915:
	.4byte	(L1933 - .) + 0
	.4byte	213955064
	.align	2
L1896:
	.4byte	(L1974 - .) + 0
	.4byte	259036528
L1954:
	.ascii	"stdlib.ml\0"
L1968:
	.ascii	"list.ml\0"
L1950:
	.ascii	"seq.ml\0"
L1938:
	.ascii	"string_map_equal_content.ml\0"
L1940:
	.ascii	"bytes.ml\0"
L1934:
	.ascii	"printf.ml\0"
L1932:
	.ascii	"map.ml\0"
L1957:
	.ascii	"array.ml\0"
	.align	2
L1959:
	.4byte	(L1938 - .) + 0
	.ascii	"String_map_equal_content.run\0"
	.align	2
L1951:
	.4byte	(L1950 - .) + 0
	.ascii	"Stdlib__Seq.fold_left\0"
	.align	2
L1942:
	.4byte	(L1940 - .) + 0
	.ascii	"Stdlib__Bytes.to_string\0"
	.align	2
L1964:
	.4byte	(L1932 - .) + 0
	.2byte	64
	.2byte	79
	.4byte	79
	.ascii	"Stdlib__Map.Make.merge\0"
	.align	2
L1952:
	.4byte	(L1932 - .) + 0
	.ascii	"Stdlib__Map.Make.add_seq\0"
	.align	2
L1972:
	.4byte	(L1940 - .) + 0
	.ascii	"Stdlib__Bytes.of_string\0"
	.align	2
L1955:
	.4byte	(L1954 - .) + 0
	.ascii	"Stdlib.(^)\0"
	.align	2
L1948:
	.4byte	(L1932 - .) + 0
	.ascii	"Stdlib__Map.Make.union\0"
	.align	2
L1944:
	.4byte	(L1932 - .) + 0
	.ascii	"Stdlib__Map.Make.update\0"
	.align	2
L1958:
	.4byte	(L1957 - .) + 0
	.ascii	"Stdlib__Array.init\0"
	.align	2
L1967:
	.4byte	(L1932 - .) + 0
	.ascii	"Stdlib__Map.Make.of_list.(fun)\0"
	.align	2
L1973:
	.4byte	(L1932 - .) + 0
	.ascii	"Stdlib__Map.Make.compare.compare_aux\0"
	.align	2
L1962:
	.4byte	(L1938 - .) + 0
	.ascii	"String_map_equal_content.n\0"
	.align	2
L1935:
	.4byte	(L1934 - .) + 0
	.ascii	"Stdlib__Printf.kfprintf\0"
	.align	2
L1974:
	.4byte	(L1932 - .) + 0
	.ascii	"Stdlib__Map.Make.equal.equal_aux\0"
	.align	2
L1971:
	.4byte	(L1932 - .) + 0
	.ascii	"Stdlib__Map.Make.add\0"
	.align	2
L1947:
	.4byte	(L1932 - .) + 0
	.ascii	"Stdlib__Map.Make.split\0"
	.align	2
L1943:
	.4byte	(L1938 - .) + 0
	.ascii	"String_map_equal_content.fresh\0"
	.align	2
L1961:
	.4byte	(L1932 - .) + 0
	.ascii	"Stdlib__Map.Make.remove\0"
	.align	2
L1956:
	.4byte	(L1938 - .) + 0
	.ascii	"String_map_equal_content.run.(fun)\0"
	.align	2
L1933:
	.4byte	(L1932 - .) + 0
	.ascii	"Stdlib__Map.Make.merge\0"
	.align	2
L1970:
	.4byte	(L1932 - .) + 0
	.ascii	"Stdlib__Map.Make.of_list\0"
	.align	2
L1949:
	.4byte	(L1932 - .) + 0
	.ascii	"Stdlib__Map.Make.add_seq.(fun)\0"
	.align	2
L1941:
	.4byte	(L1940 - .) + 0
	.ascii	"Stdlib__Bytes.copy\0"
	.align	2
L1946:
	.4byte	(L1932 - .) + 0
	.ascii	"Stdlib__Map.Make.concat_or_join\0"
	.align	2
L1953:
	.4byte	(L1932 - .) + 0
	.ascii	"Stdlib__Map.Make.of_seq\0"
	.align	2
L1939:
	.4byte	(L1938 - .) + 0
	.ascii	"String_map_equal_content.print_result\0"
	.align	2
L1969:
	.4byte	(L1968 - .) + 0
	.ascii	"Stdlib__List.fold_left\0"
	.align	2
L1963:
	.4byte	(L1938 - .) + 0
	.ascii	"String_map_equal_content\0"
	.align	2
L1960:
	.4byte	(L1938 - .) + 0
	.ascii	"String_map_equal_content.reps\0"
	.align	2
L1937:
	.4byte	(L1934 - .) + 0
	.ascii	"Stdlib__Printf.printf\0"
	.align	2
L1936:
	.4byte	(L1934 - .) + 0
	.ascii	"Stdlib__Printf.fprintf\0"
	.align	2
L1965:
	.4byte	(L1954 - .) + 0
	.ascii	"Stdlib.string_of_int\0"
	.align	2
L1966:
	.4byte	(L1957 - .) + 0
	.ascii	"Stdlib__Array.fold_left\0"
	.align	2
L1945:
	.4byte	(L1932 - .) + 0
	.ascii	"Stdlib__Map.Make.concat\0"
	.align	3
